ARM GAS  C:\Users\leejo\AppData\Local\Temp\ccB8JMTe.s 			page 1


   1              		.cpu cortex-m4
   2              		.arch armv7e-m
   3              		.fpu fpv4-sp-d16
   4              		.eabi_attribute 27, 1
   5              		.eabi_attribute 28, 1
   6              		.eabi_attribute 20, 1
   7              		.eabi_attribute 21, 1
   8              		.eabi_attribute 23, 3
   9              		.eabi_attribute 24, 1
  10              		.eabi_attribute 25, 1
  11              		.eabi_attribute 26, 1
  12              		.eabi_attribute 30, 1
  13              		.eabi_attribute 34, 1
  14              		.eabi_attribute 18, 4
  15              		.file	"main.c"
  16              		.text
  17              	.Ltext0:
  18              		.cfi_sections	.debug_frame
  19              		.file 1 "Core/Src/main.c"
  20              		.section	.text.MX_GPIO_Init,"ax",%progbits
  21              		.align	1
  22              		.syntax unified
  23              		.thumb
  24              		.thumb_func
  26              	MX_GPIO_Init:
  27              	.LFB146:
   1:Core/Src/main.c **** /* USER CODE BEGIN Header */
   2:Core/Src/main.c **** /**
   3:Core/Src/main.c ****   ******************************************************************************
   4:Core/Src/main.c ****   * @file           : main.c
   5:Core/Src/main.c ****   * @brief          : Main program body
   6:Core/Src/main.c ****   ******************************************************************************
   7:Core/Src/main.c ****   * @attention
   8:Core/Src/main.c ****   *
   9:Core/Src/main.c ****   * Copyright (c) 2026 STMicroelectronics.
  10:Core/Src/main.c ****   * All rights reserved.
  11:Core/Src/main.c ****   *
  12:Core/Src/main.c ****   * This software is licensed under terms that can be found in the LICENSE file
  13:Core/Src/main.c ****   * in the root directory of this software component.
  14:Core/Src/main.c ****   * If no LICENSE file comes with this software, it is provided AS-IS.
  15:Core/Src/main.c ****   *
  16:Core/Src/main.c ****   ******************************************************************************
  17:Core/Src/main.c ****   */
  18:Core/Src/main.c **** /* USER CODE END Header */
  19:Core/Src/main.c **** /* Includes ------------------------------------------------------------------*/
  20:Core/Src/main.c **** #include "main.h"
  21:Core/Src/main.c **** #include "cmsis_os.h"
  22:Core/Src/main.c **** 
  23:Core/Src/main.c **** /* Private includes ----------------------------------------------------------*/
  24:Core/Src/main.c **** /* USER CODE BEGIN Includes */
  25:Core/Src/main.c **** #include "dsp_task.h"
  26:Core/Src/main.c **** #include "spi_task.h"
  27:Core/Src/main.c **** /* USER CODE END Includes */
  28:Core/Src/main.c **** 
  29:Core/Src/main.c **** /* Private typedef -----------------------------------------------------------*/
  30:Core/Src/main.c **** /* USER CODE BEGIN PTD */
  31:Core/Src/main.c **** 
ARM GAS  C:\Users\leejo\AppData\Local\Temp\ccB8JMTe.s 			page 2


  32:Core/Src/main.c **** /* USER CODE END PTD */
  33:Core/Src/main.c **** 
  34:Core/Src/main.c **** /* Private define ------------------------------------------------------------*/
  35:Core/Src/main.c **** /* USER CODE BEGIN PD */
  36:Core/Src/main.c **** 
  37:Core/Src/main.c **** /* USER CODE END PD */
  38:Core/Src/main.c **** 
  39:Core/Src/main.c **** /* Private macro -------------------------------------------------------------*/
  40:Core/Src/main.c **** /* USER CODE BEGIN PM */
  41:Core/Src/main.c **** 
  42:Core/Src/main.c **** /* USER CODE END PM */
  43:Core/Src/main.c **** 
  44:Core/Src/main.c **** /* Private variables ---------------------------------------------------------*/
  45:Core/Src/main.c **** I2C_HandleTypeDef hi2c1;
  46:Core/Src/main.c **** 
  47:Core/Src/main.c **** I2S_HandleTypeDef hi2s3;
  48:Core/Src/main.c **** 
  49:Core/Src/main.c **** SPI_HandleTypeDef hspi1;
  50:Core/Src/main.c **** SPI_HandleTypeDef hspi2;
  51:Core/Src/main.c **** 
  52:Core/Src/main.c **** PCD_HandleTypeDef hpcd_USB_OTG_FS;
  53:Core/Src/main.c **** 
  54:Core/Src/main.c **** osThreadId defaultTaskHandle;
  55:Core/Src/main.c **** /* USER CODE BEGIN PV */
  56:Core/Src/main.c **** osThreadId dspTaskHandle;
  57:Core/Src/main.c **** osThreadId spiTaskHandle;
  58:Core/Src/main.c **** /* USER CODE END PV */
  59:Core/Src/main.c **** 
  60:Core/Src/main.c **** /* Private function prototypes -----------------------------------------------*/
  61:Core/Src/main.c **** void SystemClock_Config(void);
  62:Core/Src/main.c **** static void MX_GPIO_Init(void);
  63:Core/Src/main.c **** static void MX_I2C1_Init(void);
  64:Core/Src/main.c **** static void MX_I2S3_Init(void);
  65:Core/Src/main.c **** static void MX_SPI1_Init(void);
  66:Core/Src/main.c **** static void MX_SPI2_Init(void);
  67:Core/Src/main.c **** static void MX_USB_OTG_FS_PCD_Init(void);
  68:Core/Src/main.c **** void StartDefaultTask(void const * argument);
  69:Core/Src/main.c **** 
  70:Core/Src/main.c **** /* USER CODE BEGIN PFP */
  71:Core/Src/main.c **** 
  72:Core/Src/main.c **** /* USER CODE END PFP */
  73:Core/Src/main.c **** 
  74:Core/Src/main.c **** /* Private user code ---------------------------------------------------------*/
  75:Core/Src/main.c **** /* USER CODE BEGIN 0 */
  76:Core/Src/main.c **** 
  77:Core/Src/main.c **** /* USER CODE END 0 */
  78:Core/Src/main.c **** 
  79:Core/Src/main.c **** /**
  80:Core/Src/main.c ****   * @brief  The application entry point.
  81:Core/Src/main.c ****   * @retval int
  82:Core/Src/main.c ****   */
  83:Core/Src/main.c **** int main(void)
  84:Core/Src/main.c **** {
  85:Core/Src/main.c **** 
  86:Core/Src/main.c ****   /* USER CODE BEGIN 1 */
  87:Core/Src/main.c **** 
  88:Core/Src/main.c ****   /* USER CODE END 1 */
ARM GAS  C:\Users\leejo\AppData\Local\Temp\ccB8JMTe.s 			page 3


  89:Core/Src/main.c **** 
  90:Core/Src/main.c ****   /* MCU Configuration--------------------------------------------------------*/
  91:Core/Src/main.c **** 
  92:Core/Src/main.c ****   /* Reset of all peripherals, Initializes the Flash interface and the Systick. */
  93:Core/Src/main.c ****   HAL_Init();
  94:Core/Src/main.c **** 
  95:Core/Src/main.c ****   /* USER CODE BEGIN Init */
  96:Core/Src/main.c ****   GPIO_InitTypeDef GPIO_InitStruct = {0};
  97:Core/Src/main.c ****   GPIO_InitStruct.Pin = GPIO_PIN_12;
  98:Core/Src/main.c ****   GPIO_InitStruct.Mode = GPIO_MODE_OUTPUT_PP; // Push-Pull
  99:Core/Src/main.c ****   GPIO_InitStruct.Pull = GPIO_NOPULL;
 100:Core/Src/main.c ****   GPIO_InitStruct.Speed = GPIO_SPEED_FREQ_LOW;
 101:Core/Src/main.c ****   HAL_GPIO_Init(GPIOD, &GPIO_InitStruct);
 102:Core/Src/main.c ****   /* USER CODE END Init */
 103:Core/Src/main.c **** 
 104:Core/Src/main.c ****   /* Configure the system clock */
 105:Core/Src/main.c ****   SystemClock_Config();
 106:Core/Src/main.c **** 
 107:Core/Src/main.c ****   /* USER CODE BEGIN SysInit */
 108:Core/Src/main.c **** 
 109:Core/Src/main.c ****   /* USER CODE END SysInit */
 110:Core/Src/main.c **** 
 111:Core/Src/main.c ****   /* Initialize all configured peripherals */
 112:Core/Src/main.c ****   MX_GPIO_Init();
 113:Core/Src/main.c ****   MX_I2C1_Init();
 114:Core/Src/main.c ****   MX_I2S3_Init();
 115:Core/Src/main.c ****   MX_SPI1_Init();
 116:Core/Src/main.c ****   MX_SPI2_Init();
 117:Core/Src/main.c ****   MX_USB_OTG_FS_PCD_Init();
 118:Core/Src/main.c ****   /* USER CODE BEGIN 2 */
 119:Core/Src/main.c **** 
 120:Core/Src/main.c ****   /* USER CODE END 2 */
 121:Core/Src/main.c **** 
 122:Core/Src/main.c ****   /* USER CODE BEGIN RTOS_MUTEX */
 123:Core/Src/main.c ****   osMutexDef(paramsMutex);
 124:Core/Src/main.c ****   g_params_mutex = osMutexCreate(osMutex(paramsMutex));
 125:Core/Src/main.c ****   /* USER CODE END RTOS_MUTEX */
 126:Core/Src/main.c **** 
 127:Core/Src/main.c ****   /* USER CODE BEGIN RTOS_SEMAPHORES */
 128:Core/Src/main.c ****   /* add semaphores, ... */
 129:Core/Src/main.c ****   /* USER CODE END RTOS_SEMAPHORES */
 130:Core/Src/main.c **** 
 131:Core/Src/main.c ****   /* USER CODE BEGIN RTOS_TIMERS */
 132:Core/Src/main.c ****   /* start timers, add new ones, ... */
 133:Core/Src/main.c ****   /* USER CODE END RTOS_TIMERS */
 134:Core/Src/main.c **** 
 135:Core/Src/main.c ****   /* USER CODE BEGIN RTOS_QUEUES */
 136:Core/Src/main.c ****   /* add queues, ... */
 137:Core/Src/main.c ****   /* USER CODE END RTOS_QUEUES */
 138:Core/Src/main.c **** 
 139:Core/Src/main.c ****   /* Create the thread(s) */
 140:Core/Src/main.c ****   /* definition and creation of defaultTask */
 141:Core/Src/main.c ****   osThreadDef(defaultTask, StartDefaultTask, osPriorityNormal, 0, 128);
 142:Core/Src/main.c ****   defaultTaskHandle = osThreadCreate(osThread(defaultTask), NULL);
 143:Core/Src/main.c **** 
 144:Core/Src/main.c ****   /* USER CODE BEGIN RTOS_THREADS */
 145:Core/Src/main.c ****   osThreadDef(dspTask, StartDSPTask, osPriorityRealtime, 0, 512);
ARM GAS  C:\Users\leejo\AppData\Local\Temp\ccB8JMTe.s 			page 4


 146:Core/Src/main.c ****   dspTaskHandle = osThreadCreate(osThread(dspTask), NULL);
 147:Core/Src/main.c **** 
 148:Core/Src/main.c ****   osThreadDef(spiTask, StartSPITask, osPriorityAboveNormal, 0, 256);
 149:Core/Src/main.c ****   spiTaskHandle = osThreadCreate(osThread(spiTask), NULL);
 150:Core/Src/main.c ****   /* USER CODE END RTOS_THREADS */
 151:Core/Src/main.c **** 
 152:Core/Src/main.c ****   /* Start scheduler */
 153:Core/Src/main.c ****   osKernelStart();
 154:Core/Src/main.c **** 
 155:Core/Src/main.c ****   /* We should never get here as control is now taken by the scheduler */
 156:Core/Src/main.c **** 
 157:Core/Src/main.c ****   /* Infinite loop */
 158:Core/Src/main.c ****   /* USER CODE BEGIN WHILE */
 159:Core/Src/main.c ****   while (1)
 160:Core/Src/main.c ****   {
 161:Core/Src/main.c ****     /* USER CODE END WHILE */
 162:Core/Src/main.c **** 
 163:Core/Src/main.c ****     /* USER CODE BEGIN 3 */
 164:Core/Src/main.c ****   }
 165:Core/Src/main.c ****   /* USER CODE END 3 */
 166:Core/Src/main.c **** }
 167:Core/Src/main.c **** 
 168:Core/Src/main.c **** /**
 169:Core/Src/main.c ****   * @brief System Clock Configuration
 170:Core/Src/main.c ****   * @retval None
 171:Core/Src/main.c ****   */
 172:Core/Src/main.c **** void SystemClock_Config(void)
 173:Core/Src/main.c **** {
 174:Core/Src/main.c ****   RCC_OscInitTypeDef RCC_OscInitStruct = {0};
 175:Core/Src/main.c ****   RCC_ClkInitTypeDef RCC_ClkInitStruct = {0};
 176:Core/Src/main.c **** 
 177:Core/Src/main.c ****   /** Configure the main internal regulator output voltage
 178:Core/Src/main.c ****   */
 179:Core/Src/main.c ****   __HAL_RCC_PWR_CLK_ENABLE();
 180:Core/Src/main.c ****   __HAL_PWR_VOLTAGESCALING_CONFIG(PWR_REGULATOR_VOLTAGE_SCALE1);
 181:Core/Src/main.c **** 
 182:Core/Src/main.c ****   /** Initializes the RCC Oscillators according to the specified parameters
 183:Core/Src/main.c ****   * in the RCC_OscInitTypeDef structure.
 184:Core/Src/main.c ****   */
 185:Core/Src/main.c ****   RCC_OscInitStruct.OscillatorType = RCC_OSCILLATORTYPE_HSE;
 186:Core/Src/main.c ****   RCC_OscInitStruct.HSEState = RCC_HSE_ON;
 187:Core/Src/main.c ****   RCC_OscInitStruct.PLL.PLLState = RCC_PLL_ON;
 188:Core/Src/main.c ****   RCC_OscInitStruct.PLL.PLLSource = RCC_PLLSOURCE_HSE;
 189:Core/Src/main.c ****   RCC_OscInitStruct.PLL.PLLM = 8;
 190:Core/Src/main.c ****   RCC_OscInitStruct.PLL.PLLN = 336;
 191:Core/Src/main.c ****   RCC_OscInitStruct.PLL.PLLP = RCC_PLLP_DIV2;
 192:Core/Src/main.c ****   RCC_OscInitStruct.PLL.PLLQ = 7;
 193:Core/Src/main.c ****   if (HAL_RCC_OscConfig(&RCC_OscInitStruct) != HAL_OK)
 194:Core/Src/main.c ****   {
 195:Core/Src/main.c ****     Error_Handler();
 196:Core/Src/main.c ****   }
 197:Core/Src/main.c **** 
 198:Core/Src/main.c ****   /** Initializes the CPU, AHB and APB buses clocks
 199:Core/Src/main.c ****   */
 200:Core/Src/main.c ****   RCC_ClkInitStruct.ClockType = RCC_CLOCKTYPE_HCLK|RCC_CLOCKTYPE_SYSCLK
 201:Core/Src/main.c ****                               |RCC_CLOCKTYPE_PCLK1|RCC_CLOCKTYPE_PCLK2;
 202:Core/Src/main.c ****   RCC_ClkInitStruct.SYSCLKSource = RCC_SYSCLKSOURCE_PLLCLK;
ARM GAS  C:\Users\leejo\AppData\Local\Temp\ccB8JMTe.s 			page 5


 203:Core/Src/main.c ****   RCC_ClkInitStruct.AHBCLKDivider = RCC_SYSCLK_DIV1;
 204:Core/Src/main.c ****   RCC_ClkInitStruct.APB1CLKDivider = RCC_HCLK_DIV4;
 205:Core/Src/main.c ****   RCC_ClkInitStruct.APB2CLKDivider = RCC_HCLK_DIV2;
 206:Core/Src/main.c **** 
 207:Core/Src/main.c ****   if (HAL_RCC_ClockConfig(&RCC_ClkInitStruct, FLASH_LATENCY_5) != HAL_OK)
 208:Core/Src/main.c ****   {
 209:Core/Src/main.c ****     Error_Handler();
 210:Core/Src/main.c ****   }
 211:Core/Src/main.c **** }
 212:Core/Src/main.c **** 
 213:Core/Src/main.c **** /**
 214:Core/Src/main.c ****   * @brief I2C1 Initialization Function
 215:Core/Src/main.c ****   * @param None
 216:Core/Src/main.c ****   * @retval None
 217:Core/Src/main.c ****   */
 218:Core/Src/main.c **** static void MX_I2C1_Init(void)
 219:Core/Src/main.c **** {
 220:Core/Src/main.c **** 
 221:Core/Src/main.c ****   /* USER CODE BEGIN I2C1_Init 0 */
 222:Core/Src/main.c **** 
 223:Core/Src/main.c ****   /* USER CODE END I2C1_Init 0 */
 224:Core/Src/main.c **** 
 225:Core/Src/main.c ****   /* USER CODE BEGIN I2C1_Init 1 */
 226:Core/Src/main.c **** 
 227:Core/Src/main.c ****   /* USER CODE END I2C1_Init 1 */
 228:Core/Src/main.c ****   hi2c1.Instance = I2C1;
 229:Core/Src/main.c ****   hi2c1.Init.ClockSpeed = 100000;
 230:Core/Src/main.c ****   hi2c1.Init.DutyCycle = I2C_DUTYCYCLE_2;
 231:Core/Src/main.c ****   hi2c1.Init.OwnAddress1 = 0;
 232:Core/Src/main.c ****   hi2c1.Init.AddressingMode = I2C_ADDRESSINGMODE_7BIT;
 233:Core/Src/main.c ****   hi2c1.Init.DualAddressMode = I2C_DUALADDRESS_DISABLE;
 234:Core/Src/main.c ****   hi2c1.Init.OwnAddress2 = 0;
 235:Core/Src/main.c ****   hi2c1.Init.GeneralCallMode = I2C_GENERALCALL_DISABLE;
 236:Core/Src/main.c ****   hi2c1.Init.NoStretchMode = I2C_NOSTRETCH_DISABLE;
 237:Core/Src/main.c ****   if (HAL_I2C_Init(&hi2c1) != HAL_OK)
 238:Core/Src/main.c ****   {
 239:Core/Src/main.c ****     Error_Handler();
 240:Core/Src/main.c ****   }
 241:Core/Src/main.c ****   /* USER CODE BEGIN I2C1_Init 2 */
 242:Core/Src/main.c **** 
 243:Core/Src/main.c ****   /* USER CODE END I2C1_Init 2 */
 244:Core/Src/main.c **** 
 245:Core/Src/main.c **** }
 246:Core/Src/main.c **** 
 247:Core/Src/main.c **** /**
 248:Core/Src/main.c ****   * @brief I2S3 Initialization Function
 249:Core/Src/main.c ****   * @param None
 250:Core/Src/main.c ****   * @retval None
 251:Core/Src/main.c ****   */
 252:Core/Src/main.c **** static void MX_I2S3_Init(void)
 253:Core/Src/main.c **** {
 254:Core/Src/main.c **** 
 255:Core/Src/main.c ****   /* USER CODE BEGIN I2S3_Init 0 */
 256:Core/Src/main.c **** 
 257:Core/Src/main.c ****   /* USER CODE END I2S3_Init 0 */
 258:Core/Src/main.c **** 
 259:Core/Src/main.c ****   /* USER CODE BEGIN I2S3_Init 1 */
ARM GAS  C:\Users\leejo\AppData\Local\Temp\ccB8JMTe.s 			page 6


 260:Core/Src/main.c **** 
 261:Core/Src/main.c ****   /* USER CODE END I2S3_Init 1 */
 262:Core/Src/main.c ****   hi2s3.Instance = SPI3;
 263:Core/Src/main.c ****   hi2s3.Init.Mode = I2S_MODE_MASTER_TX;
 264:Core/Src/main.c ****   hi2s3.Init.Standard = I2S_STANDARD_PHILIPS;
 265:Core/Src/main.c ****   hi2s3.Init.DataFormat = I2S_DATAFORMAT_24B;
 266:Core/Src/main.c ****   hi2s3.Init.MCLKOutput = I2S_MCLKOUTPUT_ENABLE;
 267:Core/Src/main.c ****   hi2s3.Init.AudioFreq = I2S_AUDIOFREQ_32K;
 268:Core/Src/main.c ****   hi2s3.Init.CPOL = I2S_CPOL_LOW;
 269:Core/Src/main.c ****   hi2s3.Init.ClockSource = I2S_CLOCK_PLL;
 270:Core/Src/main.c ****   hi2s3.Init.FullDuplexMode = I2S_FULLDUPLEXMODE_ENABLE;
 271:Core/Src/main.c ****   if (HAL_I2S_Init(&hi2s3) != HAL_OK)
 272:Core/Src/main.c ****   {
 273:Core/Src/main.c ****     Error_Handler();
 274:Core/Src/main.c ****   }
 275:Core/Src/main.c ****   /* USER CODE BEGIN I2S3_Init 2 */
 276:Core/Src/main.c **** 
 277:Core/Src/main.c ****   /* USER CODE END I2S3_Init 2 */
 278:Core/Src/main.c **** 
 279:Core/Src/main.c **** }
 280:Core/Src/main.c **** 
 281:Core/Src/main.c **** /**
 282:Core/Src/main.c ****   * @brief SPI1 Initialization Function
 283:Core/Src/main.c ****   * @param None
 284:Core/Src/main.c ****   * @retval None
 285:Core/Src/main.c ****   */
 286:Core/Src/main.c **** static void MX_SPI1_Init(void)
 287:Core/Src/main.c **** {
 288:Core/Src/main.c **** 
 289:Core/Src/main.c ****   /* USER CODE BEGIN SPI1_Init 0 */
 290:Core/Src/main.c **** 
 291:Core/Src/main.c ****   /* USER CODE END SPI1_Init 0 */
 292:Core/Src/main.c **** 
 293:Core/Src/main.c ****   /* USER CODE BEGIN SPI1_Init 1 */
 294:Core/Src/main.c **** 
 295:Core/Src/main.c ****   /* USER CODE END SPI1_Init 1 */
 296:Core/Src/main.c ****   /* SPI1 parameter configuration*/
 297:Core/Src/main.c ****   hspi1.Instance = SPI1;
 298:Core/Src/main.c ****   hspi1.Init.Mode = SPI_MODE_MASTER;
 299:Core/Src/main.c ****   hspi1.Init.Direction = SPI_DIRECTION_2LINES;
 300:Core/Src/main.c ****   hspi1.Init.DataSize = SPI_DATASIZE_8BIT;
 301:Core/Src/main.c ****   hspi1.Init.CLKPolarity = SPI_POLARITY_LOW;
 302:Core/Src/main.c ****   hspi1.Init.CLKPhase = SPI_PHASE_1EDGE;
 303:Core/Src/main.c ****   hspi1.Init.NSS = SPI_NSS_SOFT;
 304:Core/Src/main.c ****   hspi1.Init.BaudRatePrescaler = SPI_BAUDRATEPRESCALER_2;
 305:Core/Src/main.c ****   hspi1.Init.FirstBit = SPI_FIRSTBIT_MSB;
 306:Core/Src/main.c ****   hspi1.Init.TIMode = SPI_TIMODE_DISABLE;
 307:Core/Src/main.c ****   hspi1.Init.CRCCalculation = SPI_CRCCALCULATION_DISABLE;
 308:Core/Src/main.c ****   hspi1.Init.CRCPolynomial = 10;
 309:Core/Src/main.c ****   if (HAL_SPI_Init(&hspi1) != HAL_OK)
 310:Core/Src/main.c ****   {
 311:Core/Src/main.c ****     Error_Handler();
 312:Core/Src/main.c ****   }
 313:Core/Src/main.c ****   /* USER CODE BEGIN SPI1_Init 2 */
 314:Core/Src/main.c **** 
 315:Core/Src/main.c ****   /* USER CODE END SPI1_Init 2 */
 316:Core/Src/main.c **** 
ARM GAS  C:\Users\leejo\AppData\Local\Temp\ccB8JMTe.s 			page 7


 317:Core/Src/main.c **** }
 318:Core/Src/main.c **** 
 319:Core/Src/main.c **** /**
 320:Core/Src/main.c ****   * @brief SPI2 Initialization Function
 321:Core/Src/main.c ****   * @param None
 322:Core/Src/main.c ****   * @retval None
 323:Core/Src/main.c ****   */
 324:Core/Src/main.c **** static void MX_SPI2_Init(void)
 325:Core/Src/main.c **** {
 326:Core/Src/main.c **** 
 327:Core/Src/main.c ****   /* USER CODE BEGIN SPI2_Init 0 */
 328:Core/Src/main.c **** 
 329:Core/Src/main.c ****   /* USER CODE END SPI2_Init 0 */
 330:Core/Src/main.c **** 
 331:Core/Src/main.c ****   /* USER CODE BEGIN SPI2_Init 1 */
 332:Core/Src/main.c **** 
 333:Core/Src/main.c ****   /* USER CODE END SPI2_Init 1 */
 334:Core/Src/main.c ****   /* SPI2 parameter configuration*/
 335:Core/Src/main.c ****   hspi2.Instance = SPI2;
 336:Core/Src/main.c ****   hspi2.Init.Mode = SPI_MODE_SLAVE;
 337:Core/Src/main.c ****   hspi2.Init.Direction = SPI_DIRECTION_2LINES;
 338:Core/Src/main.c ****   hspi2.Init.DataSize = SPI_DATASIZE_8BIT;
 339:Core/Src/main.c ****   hspi2.Init.CLKPolarity = SPI_POLARITY_LOW;
 340:Core/Src/main.c ****   hspi2.Init.CLKPhase = SPI_PHASE_1EDGE;
 341:Core/Src/main.c ****   hspi2.Init.NSS = SPI_NSS_SOFT;
 342:Core/Src/main.c ****   hspi2.Init.FirstBit = SPI_FIRSTBIT_MSB;
 343:Core/Src/main.c ****   hspi2.Init.TIMode = SPI_TIMODE_DISABLE;
 344:Core/Src/main.c ****   hspi2.Init.CRCCalculation = SPI_CRCCALCULATION_DISABLE;
 345:Core/Src/main.c ****   hspi2.Init.CRCPolynomial = 10;
 346:Core/Src/main.c ****   if (HAL_SPI_Init(&hspi2) != HAL_OK)
 347:Core/Src/main.c ****   {
 348:Core/Src/main.c ****     Error_Handler();
 349:Core/Src/main.c ****   }
 350:Core/Src/main.c ****   /* USER CODE BEGIN SPI2_Init 2 */
 351:Core/Src/main.c **** 
 352:Core/Src/main.c ****   /* USER CODE END SPI2_Init 2 */
 353:Core/Src/main.c **** 
 354:Core/Src/main.c **** }
 355:Core/Src/main.c **** 
 356:Core/Src/main.c **** /**
 357:Core/Src/main.c ****   * @brief USB_OTG_FS Initialization Function
 358:Core/Src/main.c ****   * @param None
 359:Core/Src/main.c ****   * @retval None
 360:Core/Src/main.c ****   */
 361:Core/Src/main.c **** static void MX_USB_OTG_FS_PCD_Init(void)
 362:Core/Src/main.c **** {
 363:Core/Src/main.c **** 
 364:Core/Src/main.c ****   /* USER CODE BEGIN USB_OTG_FS_Init 0 */
 365:Core/Src/main.c **** 
 366:Core/Src/main.c ****   /* USER CODE END USB_OTG_FS_Init 0 */
 367:Core/Src/main.c **** 
 368:Core/Src/main.c ****   /* USER CODE BEGIN USB_OTG_FS_Init 1 */
 369:Core/Src/main.c **** 
 370:Core/Src/main.c ****   /* USER CODE END USB_OTG_FS_Init 1 */
 371:Core/Src/main.c ****   hpcd_USB_OTG_FS.Instance = USB_OTG_FS;
 372:Core/Src/main.c ****   hpcd_USB_OTG_FS.Init.dev_endpoints = 4;
 373:Core/Src/main.c ****   hpcd_USB_OTG_FS.Init.speed = PCD_SPEED_FULL;
ARM GAS  C:\Users\leejo\AppData\Local\Temp\ccB8JMTe.s 			page 8


 374:Core/Src/main.c ****   hpcd_USB_OTG_FS.Init.dma_enable = DISABLE;
 375:Core/Src/main.c ****   hpcd_USB_OTG_FS.Init.phy_itface = PCD_PHY_EMBEDDED;
 376:Core/Src/main.c ****   hpcd_USB_OTG_FS.Init.Sof_enable = DISABLE;
 377:Core/Src/main.c ****   hpcd_USB_OTG_FS.Init.low_power_enable = DISABLE;
 378:Core/Src/main.c ****   hpcd_USB_OTG_FS.Init.lpm_enable = DISABLE;
 379:Core/Src/main.c ****   hpcd_USB_OTG_FS.Init.vbus_sensing_enable = DISABLE;
 380:Core/Src/main.c ****   hpcd_USB_OTG_FS.Init.use_dedicated_ep1 = DISABLE;
 381:Core/Src/main.c ****   if (HAL_PCD_Init(&hpcd_USB_OTG_FS) != HAL_OK)
 382:Core/Src/main.c ****   {
 383:Core/Src/main.c ****     Error_Handler();
 384:Core/Src/main.c ****   }
 385:Core/Src/main.c ****   /* USER CODE BEGIN USB_OTG_FS_Init 2 */
 386:Core/Src/main.c **** 
 387:Core/Src/main.c ****   /* USER CODE END USB_OTG_FS_Init 2 */
 388:Core/Src/main.c **** 
 389:Core/Src/main.c **** }
 390:Core/Src/main.c **** 
 391:Core/Src/main.c **** /**
 392:Core/Src/main.c ****   * @brief GPIO Initialization Function
 393:Core/Src/main.c ****   * @param None
 394:Core/Src/main.c ****   * @retval None
 395:Core/Src/main.c ****   */
 396:Core/Src/main.c **** static void MX_GPIO_Init(void)
 397:Core/Src/main.c **** {
  28              		.loc 1 397 1 view -0
  29              		.cfi_startproc
  30              		@ args = 0, pretend = 0, frame = 48
  31              		@ frame_needed = 0, uses_anonymous_args = 0
  32 0000 2DE9F04F 		push	{r4, r5, r6, r7, r8, r9, r10, fp, lr}
  33              		.cfi_def_cfa_offset 36
  34              		.cfi_offset 4, -36
  35              		.cfi_offset 5, -32
  36              		.cfi_offset 6, -28
  37              		.cfi_offset 7, -24
  38              		.cfi_offset 8, -20
  39              		.cfi_offset 9, -16
  40              		.cfi_offset 10, -12
  41              		.cfi_offset 11, -8
  42              		.cfi_offset 14, -4
  43 0004 8DB0     		sub	sp, sp, #52
  44              		.cfi_def_cfa_offset 88
 398:Core/Src/main.c ****   GPIO_InitTypeDef GPIO_InitStruct = {0};
  45              		.loc 1 398 3 view .LVU1
  46              		.loc 1 398 20 is_stmt 0 view .LVU2
  47 0006 07AD     		add	r5, sp, #28
  48 0008 0024     		movs	r4, #0
  49 000a 0794     		str	r4, [sp, #28]
  50 000c 0894     		str	r4, [sp, #32]
  51 000e 0994     		str	r4, [sp, #36]
  52 0010 0A94     		str	r4, [sp, #40]
  53 0012 0B94     		str	r4, [sp, #44]
 399:Core/Src/main.c ****   /* USER CODE BEGIN MX_GPIO_Init_1 */
 400:Core/Src/main.c **** 
 401:Core/Src/main.c ****   /* USER CODE END MX_GPIO_Init_1 */
 402:Core/Src/main.c **** 
 403:Core/Src/main.c ****   /* GPIO Ports Clock Enable */
 404:Core/Src/main.c ****   __HAL_RCC_GPIOE_CLK_ENABLE();
ARM GAS  C:\Users\leejo\AppData\Local\Temp\ccB8JMTe.s 			page 9


  54              		.loc 1 404 3 is_stmt 1 view .LVU3
  55              	.LBB4:
  56              		.loc 1 404 3 view .LVU4
  57 0014 0194     		str	r4, [sp, #4]
  58              		.loc 1 404 3 view .LVU5
  59 0016 594B     		ldr	r3, .L3
  60 0018 1A6B     		ldr	r2, [r3, #48]
  61 001a 42F01002 		orr	r2, r2, #16
  62 001e 1A63     		str	r2, [r3, #48]
  63              		.loc 1 404 3 view .LVU6
  64 0020 1A6B     		ldr	r2, [r3, #48]
  65 0022 02F01002 		and	r2, r2, #16
  66 0026 0192     		str	r2, [sp, #4]
  67              		.loc 1 404 3 view .LVU7
  68 0028 019A     		ldr	r2, [sp, #4]
  69              	.LBE4:
  70              		.loc 1 404 3 view .LVU8
 405:Core/Src/main.c ****   __HAL_RCC_GPIOC_CLK_ENABLE();
  71              		.loc 1 405 3 view .LVU9
  72              	.LBB5:
  73              		.loc 1 405 3 view .LVU10
  74 002a 0294     		str	r4, [sp, #8]
  75              		.loc 1 405 3 view .LVU11
  76 002c 1A6B     		ldr	r2, [r3, #48]
  77 002e 42F00402 		orr	r2, r2, #4
  78 0032 1A63     		str	r2, [r3, #48]
  79              		.loc 1 405 3 view .LVU12
  80 0034 1A6B     		ldr	r2, [r3, #48]
  81 0036 02F00402 		and	r2, r2, #4
  82 003a 0292     		str	r2, [sp, #8]
  83              		.loc 1 405 3 view .LVU13
  84 003c 029A     		ldr	r2, [sp, #8]
  85              	.LBE5:
  86              		.loc 1 405 3 view .LVU14
 406:Core/Src/main.c ****   __HAL_RCC_GPIOH_CLK_ENABLE();
  87              		.loc 1 406 3 view .LVU15
  88              	.LBB6:
  89              		.loc 1 406 3 view .LVU16
  90 003e 0394     		str	r4, [sp, #12]
  91              		.loc 1 406 3 view .LVU17
  92 0040 1A6B     		ldr	r2, [r3, #48]
  93 0042 42F08002 		orr	r2, r2, #128
  94 0046 1A63     		str	r2, [r3, #48]
  95              		.loc 1 406 3 view .LVU18
  96 0048 1A6B     		ldr	r2, [r3, #48]
  97 004a 02F08002 		and	r2, r2, #128
  98 004e 0392     		str	r2, [sp, #12]
  99              		.loc 1 406 3 view .LVU19
 100 0050 039A     		ldr	r2, [sp, #12]
 101              	.LBE6:
 102              		.loc 1 406 3 view .LVU20
 407:Core/Src/main.c ****   __HAL_RCC_GPIOA_CLK_ENABLE();
 103              		.loc 1 407 3 view .LVU21
 104              	.LBB7:
 105              		.loc 1 407 3 view .LVU22
 106 0052 0494     		str	r4, [sp, #16]
 107              		.loc 1 407 3 view .LVU23
ARM GAS  C:\Users\leejo\AppData\Local\Temp\ccB8JMTe.s 			page 10


 108 0054 1A6B     		ldr	r2, [r3, #48]
 109 0056 42F00102 		orr	r2, r2, #1
 110 005a 1A63     		str	r2, [r3, #48]
 111              		.loc 1 407 3 view .LVU24
 112 005c 1A6B     		ldr	r2, [r3, #48]
 113 005e 02F00102 		and	r2, r2, #1
 114 0062 0492     		str	r2, [sp, #16]
 115              		.loc 1 407 3 view .LVU25
 116 0064 049A     		ldr	r2, [sp, #16]
 117              	.LBE7:
 118              		.loc 1 407 3 view .LVU26
 408:Core/Src/main.c ****   __HAL_RCC_GPIOB_CLK_ENABLE();
 119              		.loc 1 408 3 view .LVU27
 120              	.LBB8:
 121              		.loc 1 408 3 view .LVU28
 122 0066 0594     		str	r4, [sp, #20]
 123              		.loc 1 408 3 view .LVU29
 124 0068 1A6B     		ldr	r2, [r3, #48]
 125 006a 42F00202 		orr	r2, r2, #2
 126 006e 1A63     		str	r2, [r3, #48]
 127              		.loc 1 408 3 view .LVU30
 128 0070 1A6B     		ldr	r2, [r3, #48]
 129 0072 02F00202 		and	r2, r2, #2
 130 0076 0592     		str	r2, [sp, #20]
 131              		.loc 1 408 3 view .LVU31
 132 0078 059A     		ldr	r2, [sp, #20]
 133              	.LBE8:
 134              		.loc 1 408 3 view .LVU32
 409:Core/Src/main.c ****   __HAL_RCC_GPIOD_CLK_ENABLE();
 135              		.loc 1 409 3 view .LVU33
 136              	.LBB9:
 137              		.loc 1 409 3 view .LVU34
 138 007a 0694     		str	r4, [sp, #24]
 139              		.loc 1 409 3 view .LVU35
 140 007c 1A6B     		ldr	r2, [r3, #48]
 141 007e 42F00802 		orr	r2, r2, #8
 142 0082 1A63     		str	r2, [r3, #48]
 143              		.loc 1 409 3 view .LVU36
 144 0084 1B6B     		ldr	r3, [r3, #48]
 145 0086 03F00803 		and	r3, r3, #8
 146 008a 0693     		str	r3, [sp, #24]
 147              		.loc 1 409 3 view .LVU37
 148 008c 069B     		ldr	r3, [sp, #24]
 149              	.LBE9:
 150              		.loc 1 409 3 view .LVU38
 410:Core/Src/main.c **** 
 411:Core/Src/main.c ****   /*Configure GPIO pin Output Level */
 412:Core/Src/main.c ****   HAL_GPIO_WritePin(CS_I2C_SPI_GPIO_Port, CS_I2C_SPI_Pin, GPIO_PIN_RESET);
 151              		.loc 1 412 3 view .LVU39
 152 008e 3C4F     		ldr	r7, .L3+4
 153 0090 2246     		mov	r2, r4
 154 0092 0821     		movs	r1, #8
 155 0094 3846     		mov	r0, r7
 156 0096 FFF7FEFF 		bl	HAL_GPIO_WritePin
 157              	.LVL0:
 413:Core/Src/main.c **** 
 414:Core/Src/main.c ****   /*Configure GPIO pin Output Level */
ARM GAS  C:\Users\leejo\AppData\Local\Temp\ccB8JMTe.s 			page 11


 415:Core/Src/main.c ****   HAL_GPIO_WritePin(OTG_FS_PowerSwitchOn_GPIO_Port, OTG_FS_PowerSwitchOn_Pin, GPIO_PIN_SET);
 158              		.loc 1 415 3 view .LVU40
 159 009a DFF8F0A0 		ldr	r10, .L3+16
 160 009e 0122     		movs	r2, #1
 161 00a0 1146     		mov	r1, r2
 162 00a2 5046     		mov	r0, r10
 163 00a4 FFF7FEFF 		bl	HAL_GPIO_WritePin
 164              	.LVL1:
 416:Core/Src/main.c **** 
 417:Core/Src/main.c ****   /*Configure GPIO pin Output Level */
 418:Core/Src/main.c ****   HAL_GPIO_WritePin(GPIOD, LD4_Pin|LD3_Pin|LD5_Pin|LD6_Pin
 165              		.loc 1 418 3 view .LVU41
 166 00a8 DFF8E490 		ldr	r9, .L3+20
 167 00ac 2246     		mov	r2, r4
 168 00ae 4FF21001 		movw	r1, #61456
 169 00b2 4846     		mov	r0, r9
 170 00b4 FFF7FEFF 		bl	HAL_GPIO_WritePin
 171              	.LVL2:
 419:Core/Src/main.c ****                           |Audio_RST_Pin, GPIO_PIN_RESET);
 420:Core/Src/main.c **** 
 421:Core/Src/main.c ****   /*Configure GPIO pin : CS_I2C_SPI_Pin */
 422:Core/Src/main.c ****   GPIO_InitStruct.Pin = CS_I2C_SPI_Pin;
 172              		.loc 1 422 3 view .LVU42
 173              		.loc 1 422 23 is_stmt 0 view .LVU43
 174 00b8 4FF00808 		mov	r8, #8
 175 00bc CDF81C80 		str	r8, [sp, #28]
 423:Core/Src/main.c ****   GPIO_InitStruct.Mode = GPIO_MODE_OUTPUT_PP;
 176              		.loc 1 423 3 is_stmt 1 view .LVU44
 177              		.loc 1 423 24 is_stmt 0 view .LVU45
 178 00c0 0126     		movs	r6, #1
 179 00c2 0896     		str	r6, [sp, #32]
 424:Core/Src/main.c ****   GPIO_InitStruct.Pull = GPIO_NOPULL;
 180              		.loc 1 424 3 is_stmt 1 view .LVU46
 181              		.loc 1 424 24 is_stmt 0 view .LVU47
 182 00c4 0994     		str	r4, [sp, #36]
 425:Core/Src/main.c ****   GPIO_InitStruct.Speed = GPIO_SPEED_FREQ_LOW;
 183              		.loc 1 425 3 is_stmt 1 view .LVU48
 184              		.loc 1 425 25 is_stmt 0 view .LVU49
 185 00c6 0A94     		str	r4, [sp, #40]
 426:Core/Src/main.c ****   HAL_GPIO_Init(CS_I2C_SPI_GPIO_Port, &GPIO_InitStruct);
 186              		.loc 1 426 3 is_stmt 1 view .LVU50
 187 00c8 2946     		mov	r1, r5
 188 00ca 3846     		mov	r0, r7
 189 00cc FFF7FEFF 		bl	HAL_GPIO_Init
 190              	.LVL3:
 427:Core/Src/main.c **** 
 428:Core/Src/main.c ****   /*Configure GPIO pin : OTG_FS_PowerSwitchOn_Pin */
 429:Core/Src/main.c ****   GPIO_InitStruct.Pin = OTG_FS_PowerSwitchOn_Pin;
 191              		.loc 1 429 3 view .LVU51
 192              		.loc 1 429 23 is_stmt 0 view .LVU52
 193 00d0 0796     		str	r6, [sp, #28]
 430:Core/Src/main.c ****   GPIO_InitStruct.Mode = GPIO_MODE_OUTPUT_PP;
 194              		.loc 1 430 3 is_stmt 1 view .LVU53
 195              		.loc 1 430 24 is_stmt 0 view .LVU54
 196 00d2 0896     		str	r6, [sp, #32]
 431:Core/Src/main.c ****   GPIO_InitStruct.Pull = GPIO_NOPULL;
 197              		.loc 1 431 3 is_stmt 1 view .LVU55
ARM GAS  C:\Users\leejo\AppData\Local\Temp\ccB8JMTe.s 			page 12


 198              		.loc 1 431 24 is_stmt 0 view .LVU56
 199 00d4 0994     		str	r4, [sp, #36]
 432:Core/Src/main.c ****   GPIO_InitStruct.Speed = GPIO_SPEED_FREQ_LOW;
 200              		.loc 1 432 3 is_stmt 1 view .LVU57
 201              		.loc 1 432 25 is_stmt 0 view .LVU58
 202 00d6 0A94     		str	r4, [sp, #40]
 433:Core/Src/main.c ****   HAL_GPIO_Init(OTG_FS_PowerSwitchOn_GPIO_Port, &GPIO_InitStruct);
 203              		.loc 1 433 3 is_stmt 1 view .LVU59
 204 00d8 2946     		mov	r1, r5
 205 00da 5046     		mov	r0, r10
 206 00dc FFF7FEFF 		bl	HAL_GPIO_Init
 207              	.LVL4:
 434:Core/Src/main.c **** 
 435:Core/Src/main.c ****   /*Configure GPIO pin : PDM_OUT_Pin */
 436:Core/Src/main.c ****   GPIO_InitStruct.Pin = PDM_OUT_Pin;
 208              		.loc 1 436 3 view .LVU60
 209              		.loc 1 436 23 is_stmt 0 view .LVU61
 210 00e0 CDF81C80 		str	r8, [sp, #28]
 437:Core/Src/main.c ****   GPIO_InitStruct.Mode = GPIO_MODE_AF_PP;
 211              		.loc 1 437 3 is_stmt 1 view .LVU62
 212              		.loc 1 437 24 is_stmt 0 view .LVU63
 213 00e4 4FF00208 		mov	r8, #2
 214 00e8 CDF82080 		str	r8, [sp, #32]
 438:Core/Src/main.c ****   GPIO_InitStruct.Pull = GPIO_NOPULL;
 215              		.loc 1 438 3 is_stmt 1 view .LVU64
 216              		.loc 1 438 24 is_stmt 0 view .LVU65
 217 00ec 0994     		str	r4, [sp, #36]
 439:Core/Src/main.c ****   GPIO_InitStruct.Speed = GPIO_SPEED_FREQ_LOW;
 218              		.loc 1 439 3 is_stmt 1 view .LVU66
 219              		.loc 1 439 25 is_stmt 0 view .LVU67
 220 00ee 0A94     		str	r4, [sp, #40]
 440:Core/Src/main.c ****   GPIO_InitStruct.Alternate = GPIO_AF5_SPI2;
 221              		.loc 1 440 3 is_stmt 1 view .LVU68
 222              		.loc 1 440 29 is_stmt 0 view .LVU69
 223 00f0 4FF0050B 		mov	fp, #5
 224 00f4 CDF82CB0 		str	fp, [sp, #44]
 441:Core/Src/main.c ****   HAL_GPIO_Init(PDM_OUT_GPIO_Port, &GPIO_InitStruct);
 225              		.loc 1 441 3 is_stmt 1 view .LVU70
 226 00f8 2946     		mov	r1, r5
 227 00fa 5046     		mov	r0, r10
 228 00fc FFF7FEFF 		bl	HAL_GPIO_Init
 229              	.LVL5:
 442:Core/Src/main.c **** 
 443:Core/Src/main.c ****   /*Configure GPIO pin : B1_Pin */
 444:Core/Src/main.c ****   GPIO_InitStruct.Pin = B1_Pin;
 230              		.loc 1 444 3 view .LVU71
 231              		.loc 1 444 23 is_stmt 0 view .LVU72
 232 0100 0796     		str	r6, [sp, #28]
 445:Core/Src/main.c ****   GPIO_InitStruct.Mode = GPIO_MODE_EVT_RISING;
 233              		.loc 1 445 3 is_stmt 1 view .LVU73
 234              		.loc 1 445 24 is_stmt 0 view .LVU74
 235 0102 4FF4901A 		mov	r10, #1179648
 236 0106 CDF820A0 		str	r10, [sp, #32]
 446:Core/Src/main.c ****   GPIO_InitStruct.Pull = GPIO_NOPULL;
 237              		.loc 1 446 3 is_stmt 1 view .LVU75
 238              		.loc 1 446 24 is_stmt 0 view .LVU76
 239 010a 0994     		str	r4, [sp, #36]
ARM GAS  C:\Users\leejo\AppData\Local\Temp\ccB8JMTe.s 			page 13


 447:Core/Src/main.c ****   HAL_GPIO_Init(B1_GPIO_Port, &GPIO_InitStruct);
 240              		.loc 1 447 3 is_stmt 1 view .LVU77
 241 010c 2946     		mov	r1, r5
 242 010e 1D48     		ldr	r0, .L3+8
 243 0110 FFF7FEFF 		bl	HAL_GPIO_Init
 244              	.LVL6:
 448:Core/Src/main.c **** 
 449:Core/Src/main.c ****   /*Configure GPIO pin : BOOT1_Pin */
 450:Core/Src/main.c ****   GPIO_InitStruct.Pin = BOOT1_Pin;
 245              		.loc 1 450 3 view .LVU78
 246              		.loc 1 450 23 is_stmt 0 view .LVU79
 247 0114 0423     		movs	r3, #4
 248 0116 0793     		str	r3, [sp, #28]
 451:Core/Src/main.c ****   GPIO_InitStruct.Mode = GPIO_MODE_INPUT;
 249              		.loc 1 451 3 is_stmt 1 view .LVU80
 250              		.loc 1 451 24 is_stmt 0 view .LVU81
 251 0118 0894     		str	r4, [sp, #32]
 452:Core/Src/main.c ****   GPIO_InitStruct.Pull = GPIO_NOPULL;
 252              		.loc 1 452 3 is_stmt 1 view .LVU82
 253              		.loc 1 452 24 is_stmt 0 view .LVU83
 254 011a 0994     		str	r4, [sp, #36]
 453:Core/Src/main.c ****   HAL_GPIO_Init(BOOT1_GPIO_Port, &GPIO_InitStruct);
 255              		.loc 1 453 3 is_stmt 1 view .LVU84
 256 011c 2946     		mov	r1, r5
 257 011e 1A48     		ldr	r0, .L3+12
 258 0120 FFF7FEFF 		bl	HAL_GPIO_Init
 259              	.LVL7:
 454:Core/Src/main.c **** 
 455:Core/Src/main.c ****   /*Configure GPIO pin : CLK_IN_Pin */
 456:Core/Src/main.c ****   GPIO_InitStruct.Pin = CLK_IN_Pin;
 260              		.loc 1 456 3 view .LVU85
 261              		.loc 1 456 23 is_stmt 0 view .LVU86
 262 0124 4FF48063 		mov	r3, #1024
 263 0128 0793     		str	r3, [sp, #28]
 457:Core/Src/main.c ****   GPIO_InitStruct.Mode = GPIO_MODE_AF_PP;
 264              		.loc 1 457 3 is_stmt 1 view .LVU87
 265              		.loc 1 457 24 is_stmt 0 view .LVU88
 266 012a CDF82080 		str	r8, [sp, #32]
 458:Core/Src/main.c ****   GPIO_InitStruct.Pull = GPIO_NOPULL;
 267              		.loc 1 458 3 is_stmt 1 view .LVU89
 268              		.loc 1 458 24 is_stmt 0 view .LVU90
 269 012e 0994     		str	r4, [sp, #36]
 459:Core/Src/main.c ****   GPIO_InitStruct.Speed = GPIO_SPEED_FREQ_LOW;
 270              		.loc 1 459 3 is_stmt 1 view .LVU91
 271              		.loc 1 459 25 is_stmt 0 view .LVU92
 272 0130 0A94     		str	r4, [sp, #40]
 460:Core/Src/main.c ****   GPIO_InitStruct.Alternate = GPIO_AF5_SPI2;
 273              		.loc 1 460 3 is_stmt 1 view .LVU93
 274              		.loc 1 460 29 is_stmt 0 view .LVU94
 275 0132 CDF82CB0 		str	fp, [sp, #44]
 461:Core/Src/main.c ****   HAL_GPIO_Init(CLK_IN_GPIO_Port, &GPIO_InitStruct);
 276              		.loc 1 461 3 is_stmt 1 view .LVU95
 277 0136 2946     		mov	r1, r5
 278 0138 1348     		ldr	r0, .L3+12
 279 013a FFF7FEFF 		bl	HAL_GPIO_Init
 280              	.LVL8:
 462:Core/Src/main.c **** 
ARM GAS  C:\Users\leejo\AppData\Local\Temp\ccB8JMTe.s 			page 14


 463:Core/Src/main.c ****   /*Configure GPIO pins : LD4_Pin LD3_Pin LD5_Pin LD6_Pin
 464:Core/Src/main.c ****                            Audio_RST_Pin */
 465:Core/Src/main.c ****   GPIO_InitStruct.Pin = LD4_Pin|LD3_Pin|LD5_Pin|LD6_Pin
 281              		.loc 1 465 3 view .LVU96
 282              		.loc 1 465 23 is_stmt 0 view .LVU97
 283 013e 4FF21003 		movw	r3, #61456
 284 0142 0793     		str	r3, [sp, #28]
 466:Core/Src/main.c ****                           |Audio_RST_Pin;
 467:Core/Src/main.c ****   GPIO_InitStruct.Mode = GPIO_MODE_OUTPUT_PP;
 285              		.loc 1 467 3 is_stmt 1 view .LVU98
 286              		.loc 1 467 24 is_stmt 0 view .LVU99
 287 0144 0896     		str	r6, [sp, #32]
 468:Core/Src/main.c ****   GPIO_InitStruct.Pull = GPIO_NOPULL;
 288              		.loc 1 468 3 is_stmt 1 view .LVU100
 289              		.loc 1 468 24 is_stmt 0 view .LVU101
 290 0146 0994     		str	r4, [sp, #36]
 469:Core/Src/main.c ****   GPIO_InitStruct.Speed = GPIO_SPEED_FREQ_LOW;
 291              		.loc 1 469 3 is_stmt 1 view .LVU102
 292              		.loc 1 469 25 is_stmt 0 view .LVU103
 293 0148 0A94     		str	r4, [sp, #40]
 470:Core/Src/main.c ****   HAL_GPIO_Init(GPIOD, &GPIO_InitStruct);
 294              		.loc 1 470 3 is_stmt 1 view .LVU104
 295 014a 2946     		mov	r1, r5
 296 014c 4846     		mov	r0, r9
 297 014e FFF7FEFF 		bl	HAL_GPIO_Init
 298              	.LVL9:
 471:Core/Src/main.c **** 
 472:Core/Src/main.c ****   /*Configure GPIO pin : OTG_FS_OverCurrent_Pin */
 473:Core/Src/main.c ****   GPIO_InitStruct.Pin = OTG_FS_OverCurrent_Pin;
 299              		.loc 1 473 3 view .LVU105
 300              		.loc 1 473 23 is_stmt 0 view .LVU106
 301 0152 2023     		movs	r3, #32
 302 0154 0793     		str	r3, [sp, #28]
 474:Core/Src/main.c ****   GPIO_InitStruct.Mode = GPIO_MODE_INPUT;
 303              		.loc 1 474 3 is_stmt 1 view .LVU107
 304              		.loc 1 474 24 is_stmt 0 view .LVU108
 305 0156 0894     		str	r4, [sp, #32]
 475:Core/Src/main.c ****   GPIO_InitStruct.Pull = GPIO_NOPULL;
 306              		.loc 1 475 3 is_stmt 1 view .LVU109
 307              		.loc 1 475 24 is_stmt 0 view .LVU110
 308 0158 0994     		str	r4, [sp, #36]
 476:Core/Src/main.c ****   HAL_GPIO_Init(OTG_FS_OverCurrent_GPIO_Port, &GPIO_InitStruct);
 309              		.loc 1 476 3 is_stmt 1 view .LVU111
 310 015a 2946     		mov	r1, r5
 311 015c 4846     		mov	r0, r9
 312 015e FFF7FEFF 		bl	HAL_GPIO_Init
 313              	.LVL10:
 477:Core/Src/main.c **** 
 478:Core/Src/main.c ****   /*Configure GPIO pin : MEMS_INT2_Pin */
 479:Core/Src/main.c ****   GPIO_InitStruct.Pin = MEMS_INT2_Pin;
 314              		.loc 1 479 3 view .LVU112
 315              		.loc 1 479 23 is_stmt 0 view .LVU113
 316 0162 CDF81C80 		str	r8, [sp, #28]
 480:Core/Src/main.c ****   GPIO_InitStruct.Mode = GPIO_MODE_EVT_RISING;
 317              		.loc 1 480 3 is_stmt 1 view .LVU114
 318              		.loc 1 480 24 is_stmt 0 view .LVU115
 319 0166 CDF820A0 		str	r10, [sp, #32]
ARM GAS  C:\Users\leejo\AppData\Local\Temp\ccB8JMTe.s 			page 15


 481:Core/Src/main.c ****   GPIO_InitStruct.Pull = GPIO_NOPULL;
 320              		.loc 1 481 3 is_stmt 1 view .LVU116
 321              		.loc 1 481 24 is_stmt 0 view .LVU117
 322 016a 0994     		str	r4, [sp, #36]
 482:Core/Src/main.c ****   HAL_GPIO_Init(MEMS_INT2_GPIO_Port, &GPIO_InitStruct);
 323              		.loc 1 482 3 is_stmt 1 view .LVU118
 324 016c 2946     		mov	r1, r5
 325 016e 3846     		mov	r0, r7
 326 0170 FFF7FEFF 		bl	HAL_GPIO_Init
 327              	.LVL11:
 483:Core/Src/main.c **** 
 484:Core/Src/main.c ****   /* USER CODE BEGIN MX_GPIO_Init_2 */
 485:Core/Src/main.c **** 
 486:Core/Src/main.c ****   /* USER CODE END MX_GPIO_Init_2 */
 487:Core/Src/main.c **** }
 328              		.loc 1 487 1 is_stmt 0 view .LVU119
 329 0174 0DB0     		add	sp, sp, #52
 330              		.cfi_def_cfa_offset 36
 331              		@ sp needed
 332 0176 BDE8F08F 		pop	{r4, r5, r6, r7, r8, r9, r10, fp, pc}
 333              	.L4:
 334 017a 00BF     		.align	2
 335              	.L3:
 336 017c 00380240 		.word	1073887232
 337 0180 00100240 		.word	1073876992
 338 0184 00000240 		.word	1073872896
 339 0188 00040240 		.word	1073873920
 340 018c 00080240 		.word	1073874944
 341 0190 000C0240 		.word	1073875968
 342              		.cfi_endproc
 343              	.LFE146:
 345              		.section	.text.StartDefaultTask,"ax",%progbits
 346              		.align	1
 347              		.global	StartDefaultTask
 348              		.syntax unified
 349              		.thumb
 350              		.thumb_func
 352              	StartDefaultTask:
 353              	.LFB147:
 488:Core/Src/main.c **** 
 489:Core/Src/main.c **** /* USER CODE BEGIN 4 */
 490:Core/Src/main.c **** 
 491:Core/Src/main.c **** /* USER CODE END 4 */
 492:Core/Src/main.c **** 
 493:Core/Src/main.c **** /* USER CODE BEGIN Header_StartDefaultTask */
 494:Core/Src/main.c **** /**
 495:Core/Src/main.c ****   * @brief  Function implementing the defaultTask thread.
 496:Core/Src/main.c ****   * @param  argument: Not used
 497:Core/Src/main.c ****   * @retval None
 498:Core/Src/main.c ****   */
 499:Core/Src/main.c **** /* USER CODE END Header_StartDefaultTask */
 500:Core/Src/main.c **** void StartDefaultTask(void const * argument)
 501:Core/Src/main.c **** {
 354              		.loc 1 501 1 is_stmt 1 view -0
 355              		.cfi_startproc
 356              		@ Volatile: function does not return.
 357              		@ args = 0, pretend = 0, frame = 0
ARM GAS  C:\Users\leejo\AppData\Local\Temp\ccB8JMTe.s 			page 16


 358              		@ frame_needed = 0, uses_anonymous_args = 0
 359              	.LVL12:
 360              		.loc 1 501 1 is_stmt 0 view .LVU121
 361 0000 08B5     		push	{r3, lr}
 362              		.cfi_def_cfa_offset 8
 363              		.cfi_offset 3, -8
 364              		.cfi_offset 14, -4
 365              	.LVL13:
 366              	.L6:
 502:Core/Src/main.c ****   /* USER CODE BEGIN 5 */
 503:Core/Src/main.c ****   /* Infinite loop */
 504:Core/Src/main.c ****   for(;;)
 367              		.loc 1 504 3 is_stmt 1 view .LVU122
 505:Core/Src/main.c ****   {
 506:Core/Src/main.c ****     HAL_GPIO_TogglePin(GPIOD, GPIO_PIN_12);
 368              		.loc 1 506 5 view .LVU123
 369 0002 4FF48051 		mov	r1, #4096
 370 0006 0448     		ldr	r0, .L8
 371 0008 FFF7FEFF 		bl	HAL_GPIO_TogglePin
 372              	.LVL14:
 507:Core/Src/main.c ****     osDelay(500);
 373              		.loc 1 507 5 discriminator 2 view .LVU124
 374 000c 4FF4FA70 		mov	r0, #500
 375 0010 FFF7FEFF 		bl	osDelay
 376              	.LVL15:
 504:Core/Src/main.c ****   {
 377              		.loc 1 504 3 view .LVU125
 378 0014 F5E7     		b	.L6
 379              	.L9:
 380 0016 00BF     		.align	2
 381              	.L8:
 382 0018 000C0240 		.word	1073875968
 383              		.cfi_endproc
 384              	.LFE147:
 386              		.section	.text.HAL_TIM_PeriodElapsedCallback,"ax",%progbits
 387              		.align	1
 388              		.global	HAL_TIM_PeriodElapsedCallback
 389              		.syntax unified
 390              		.thumb
 391              		.thumb_func
 393              	HAL_TIM_PeriodElapsedCallback:
 394              	.LVL16:
 395              	.LFB148:
 508:Core/Src/main.c ****   }
 509:Core/Src/main.c ****   /* USER CODE END 5 */
 510:Core/Src/main.c **** }
 511:Core/Src/main.c **** 
 512:Core/Src/main.c **** /**
 513:Core/Src/main.c ****   * @brief  Period elapsed callback in non blocking mode
 514:Core/Src/main.c ****   * @note   This function is called  when TIM1 interrupt took place, inside
 515:Core/Src/main.c ****   * HAL_TIM_IRQHandler(). It makes a direct call to HAL_IncTick() to increment
 516:Core/Src/main.c ****   * a global variable "uwTick" used as application time base.
 517:Core/Src/main.c ****   * @param  htim : TIM handle
 518:Core/Src/main.c ****   * @retval None
 519:Core/Src/main.c ****   */
 520:Core/Src/main.c **** void HAL_TIM_PeriodElapsedCallback(TIM_HandleTypeDef *htim)
 521:Core/Src/main.c **** {
ARM GAS  C:\Users\leejo\AppData\Local\Temp\ccB8JMTe.s 			page 17


 396              		.loc 1 521 1 view -0
 397              		.cfi_startproc
 398              		@ args = 0, pretend = 0, frame = 0
 399              		@ frame_needed = 0, uses_anonymous_args = 0
 400              		.loc 1 521 1 is_stmt 0 view .LVU127
 401 0000 08B5     		push	{r3, lr}
 402              		.cfi_def_cfa_offset 8
 403              		.cfi_offset 3, -8
 404              		.cfi_offset 14, -4
 522:Core/Src/main.c ****   /* USER CODE BEGIN Callback 0 */
 523:Core/Src/main.c **** 
 524:Core/Src/main.c ****   /* USER CODE END Callback 0 */
 525:Core/Src/main.c ****   if (htim->Instance == TIM1)
 405              		.loc 1 525 3 is_stmt 1 view .LVU128
 406              		.loc 1 525 11 is_stmt 0 view .LVU129
 407 0002 0268     		ldr	r2, [r0]
 408              		.loc 1 525 6 view .LVU130
 409 0004 034B     		ldr	r3, .L14
 410 0006 9A42     		cmp	r2, r3
 411 0008 00D0     		beq	.L13
 412              	.LVL17:
 413              	.L10:
 526:Core/Src/main.c ****   {
 527:Core/Src/main.c ****     HAL_IncTick();
 528:Core/Src/main.c ****   }
 529:Core/Src/main.c ****   /* USER CODE BEGIN Callback 1 */
 530:Core/Src/main.c **** 
 531:Core/Src/main.c ****   /* USER CODE END Callback 1 */
 532:Core/Src/main.c **** }
 414              		.loc 1 532 1 view .LVU131
 415 000a 08BD     		pop	{r3, pc}
 416              	.LVL18:
 417              	.L13:
 527:Core/Src/main.c ****   }
 418              		.loc 1 527 5 is_stmt 1 view .LVU132
 419 000c FFF7FEFF 		bl	HAL_IncTick
 420              	.LVL19:
 421              		.loc 1 532 1 is_stmt 0 view .LVU133
 422 0010 FBE7     		b	.L10
 423              	.L15:
 424 0012 00BF     		.align	2
 425              	.L14:
 426 0014 00000140 		.word	1073807360
 427              		.cfi_endproc
 428              	.LFE148:
 430              		.section	.text.Error_Handler,"ax",%progbits
 431              		.align	1
 432              		.global	Error_Handler
 433              		.syntax unified
 434              		.thumb
 435              		.thumb_func
 437              	Error_Handler:
 438              	.LFB149:
 533:Core/Src/main.c **** 
 534:Core/Src/main.c **** /**
 535:Core/Src/main.c ****   * @brief  This function is executed in case of error occurrence.
 536:Core/Src/main.c ****   * @retval None
ARM GAS  C:\Users\leejo\AppData\Local\Temp\ccB8JMTe.s 			page 18


 537:Core/Src/main.c ****   */
 538:Core/Src/main.c **** void Error_Handler(void)
 539:Core/Src/main.c **** {
 439              		.loc 1 539 1 is_stmt 1 view -0
 440              		.cfi_startproc
 441              		@ Volatile: function does not return.
 442              		@ args = 0, pretend = 0, frame = 0
 443              		@ frame_needed = 0, uses_anonymous_args = 0
 444              		@ link register save eliminated.
 540:Core/Src/main.c ****   /* USER CODE BEGIN Error_Handler_Debug */
 541:Core/Src/main.c ****   /* User can add his own implementation to report the HAL error return state */
 542:Core/Src/main.c ****   __disable_irq();
 445              		.loc 1 542 3 view .LVU135
 446              	.LBB10:
 447              	.LBI10:
 448              		.file 2 "Drivers/CMSIS/Include/cmsis_gcc.h"
   1:Drivers/CMSIS/Include/cmsis_gcc.h **** /**************************************************************************//**
   2:Drivers/CMSIS/Include/cmsis_gcc.h ****  * @file     cmsis_gcc.h
   3:Drivers/CMSIS/Include/cmsis_gcc.h ****  * @brief    CMSIS compiler GCC header file
   4:Drivers/CMSIS/Include/cmsis_gcc.h ****  * @version  V5.4.1
   5:Drivers/CMSIS/Include/cmsis_gcc.h ****  * @date     27. May 2021
   6:Drivers/CMSIS/Include/cmsis_gcc.h ****  ******************************************************************************/
   7:Drivers/CMSIS/Include/cmsis_gcc.h **** /*
   8:Drivers/CMSIS/Include/cmsis_gcc.h ****  * Copyright (c) 2009-2021 Arm Limited. All rights reserved.
   9:Drivers/CMSIS/Include/cmsis_gcc.h ****  *
  10:Drivers/CMSIS/Include/cmsis_gcc.h ****  * SPDX-License-Identifier: Apache-2.0
  11:Drivers/CMSIS/Include/cmsis_gcc.h ****  *
  12:Drivers/CMSIS/Include/cmsis_gcc.h ****  * Licensed under the Apache License, Version 2.0 (the License); you may
  13:Drivers/CMSIS/Include/cmsis_gcc.h ****  * not use this file except in compliance with the License.
  14:Drivers/CMSIS/Include/cmsis_gcc.h ****  * You may obtain a copy of the License at
  15:Drivers/CMSIS/Include/cmsis_gcc.h ****  *
  16:Drivers/CMSIS/Include/cmsis_gcc.h ****  * www.apache.org/licenses/LICENSE-2.0
  17:Drivers/CMSIS/Include/cmsis_gcc.h ****  *
  18:Drivers/CMSIS/Include/cmsis_gcc.h ****  * Unless required by applicable law or agreed to in writing, software
  19:Drivers/CMSIS/Include/cmsis_gcc.h ****  * distributed under the License is distributed on an AS IS BASIS, WITHOUT
  20:Drivers/CMSIS/Include/cmsis_gcc.h ****  * WARRANTIES OR CONDITIONS OF ANY KIND, either express or implied.
  21:Drivers/CMSIS/Include/cmsis_gcc.h ****  * See the License for the specific language governing permissions and
  22:Drivers/CMSIS/Include/cmsis_gcc.h ****  * limitations under the License.
  23:Drivers/CMSIS/Include/cmsis_gcc.h ****  */
  24:Drivers/CMSIS/Include/cmsis_gcc.h **** 
  25:Drivers/CMSIS/Include/cmsis_gcc.h **** #ifndef __CMSIS_GCC_H
  26:Drivers/CMSIS/Include/cmsis_gcc.h **** #define __CMSIS_GCC_H
  27:Drivers/CMSIS/Include/cmsis_gcc.h **** 
  28:Drivers/CMSIS/Include/cmsis_gcc.h **** /* ignore some GCC warnings */
  29:Drivers/CMSIS/Include/cmsis_gcc.h **** #pragma GCC diagnostic push
  30:Drivers/CMSIS/Include/cmsis_gcc.h **** #pragma GCC diagnostic ignored "-Wsign-conversion"
  31:Drivers/CMSIS/Include/cmsis_gcc.h **** #pragma GCC diagnostic ignored "-Wconversion"
  32:Drivers/CMSIS/Include/cmsis_gcc.h **** #pragma GCC diagnostic ignored "-Wunused-parameter"
  33:Drivers/CMSIS/Include/cmsis_gcc.h **** 
  34:Drivers/CMSIS/Include/cmsis_gcc.h **** /* Fallback for __has_builtin */
  35:Drivers/CMSIS/Include/cmsis_gcc.h **** #ifndef __has_builtin
  36:Drivers/CMSIS/Include/cmsis_gcc.h ****   #define __has_builtin(x) (0)
  37:Drivers/CMSIS/Include/cmsis_gcc.h **** #endif
  38:Drivers/CMSIS/Include/cmsis_gcc.h **** 
  39:Drivers/CMSIS/Include/cmsis_gcc.h **** /* CMSIS compiler specific defines */
  40:Drivers/CMSIS/Include/cmsis_gcc.h **** #ifndef   __ASM
  41:Drivers/CMSIS/Include/cmsis_gcc.h ****   #define __ASM                                  __asm
ARM GAS  C:\Users\leejo\AppData\Local\Temp\ccB8JMTe.s 			page 19


  42:Drivers/CMSIS/Include/cmsis_gcc.h **** #endif
  43:Drivers/CMSIS/Include/cmsis_gcc.h **** #ifndef   __INLINE
  44:Drivers/CMSIS/Include/cmsis_gcc.h ****   #define __INLINE                               inline
  45:Drivers/CMSIS/Include/cmsis_gcc.h **** #endif
  46:Drivers/CMSIS/Include/cmsis_gcc.h **** #ifndef   __STATIC_INLINE
  47:Drivers/CMSIS/Include/cmsis_gcc.h ****   #define __STATIC_INLINE                        static inline
  48:Drivers/CMSIS/Include/cmsis_gcc.h **** #endif
  49:Drivers/CMSIS/Include/cmsis_gcc.h **** #ifndef   __STATIC_FORCEINLINE
  50:Drivers/CMSIS/Include/cmsis_gcc.h ****   #define __STATIC_FORCEINLINE                   __attribute__((always_inline)) static inline
  51:Drivers/CMSIS/Include/cmsis_gcc.h **** #endif
  52:Drivers/CMSIS/Include/cmsis_gcc.h **** #ifndef   __NO_RETURN
  53:Drivers/CMSIS/Include/cmsis_gcc.h ****   #define __NO_RETURN                            __attribute__((__noreturn__))
  54:Drivers/CMSIS/Include/cmsis_gcc.h **** #endif
  55:Drivers/CMSIS/Include/cmsis_gcc.h **** #ifndef   __USED
  56:Drivers/CMSIS/Include/cmsis_gcc.h ****   #define __USED                                 __attribute__((used))
  57:Drivers/CMSIS/Include/cmsis_gcc.h **** #endif
  58:Drivers/CMSIS/Include/cmsis_gcc.h **** #ifndef   __WEAK
  59:Drivers/CMSIS/Include/cmsis_gcc.h ****   #define __WEAK                                 __attribute__((weak))
  60:Drivers/CMSIS/Include/cmsis_gcc.h **** #endif
  61:Drivers/CMSIS/Include/cmsis_gcc.h **** #ifndef   __PACKED
  62:Drivers/CMSIS/Include/cmsis_gcc.h ****   #define __PACKED                               __attribute__((packed, aligned(1)))
  63:Drivers/CMSIS/Include/cmsis_gcc.h **** #endif
  64:Drivers/CMSIS/Include/cmsis_gcc.h **** #ifndef   __PACKED_STRUCT
  65:Drivers/CMSIS/Include/cmsis_gcc.h ****   #define __PACKED_STRUCT                        struct __attribute__((packed, aligned(1)))
  66:Drivers/CMSIS/Include/cmsis_gcc.h **** #endif
  67:Drivers/CMSIS/Include/cmsis_gcc.h **** #ifndef   __PACKED_UNION
  68:Drivers/CMSIS/Include/cmsis_gcc.h ****   #define __PACKED_UNION                         union __attribute__((packed, aligned(1)))
  69:Drivers/CMSIS/Include/cmsis_gcc.h **** #endif
  70:Drivers/CMSIS/Include/cmsis_gcc.h **** #ifndef   __UNALIGNED_UINT32        /* deprecated */
  71:Drivers/CMSIS/Include/cmsis_gcc.h ****   #pragma GCC diagnostic push
  72:Drivers/CMSIS/Include/cmsis_gcc.h ****   #pragma GCC diagnostic ignored "-Wpacked"
  73:Drivers/CMSIS/Include/cmsis_gcc.h ****   #pragma GCC diagnostic ignored "-Wattributes"
  74:Drivers/CMSIS/Include/cmsis_gcc.h ****   struct __attribute__((packed)) T_UINT32 { uint32_t v; };
  75:Drivers/CMSIS/Include/cmsis_gcc.h ****   #pragma GCC diagnostic pop
  76:Drivers/CMSIS/Include/cmsis_gcc.h ****   #define __UNALIGNED_UINT32(x)                  (((struct T_UINT32 *)(x))->v)
  77:Drivers/CMSIS/Include/cmsis_gcc.h **** #endif
  78:Drivers/CMSIS/Include/cmsis_gcc.h **** #ifndef   __UNALIGNED_UINT16_WRITE
  79:Drivers/CMSIS/Include/cmsis_gcc.h ****   #pragma GCC diagnostic push
  80:Drivers/CMSIS/Include/cmsis_gcc.h ****   #pragma GCC diagnostic ignored "-Wpacked"
  81:Drivers/CMSIS/Include/cmsis_gcc.h ****   #pragma GCC diagnostic ignored "-Wattributes"
  82:Drivers/CMSIS/Include/cmsis_gcc.h ****   __PACKED_STRUCT T_UINT16_WRITE { uint16_t v; };
  83:Drivers/CMSIS/Include/cmsis_gcc.h ****   #pragma GCC diagnostic pop
  84:Drivers/CMSIS/Include/cmsis_gcc.h ****   #define __UNALIGNED_UINT16_WRITE(addr, val)    (void)((((struct T_UINT16_WRITE *)(void *)(addr))-
  85:Drivers/CMSIS/Include/cmsis_gcc.h **** #endif
  86:Drivers/CMSIS/Include/cmsis_gcc.h **** #ifndef   __UNALIGNED_UINT16_READ
  87:Drivers/CMSIS/Include/cmsis_gcc.h ****   #pragma GCC diagnostic push
  88:Drivers/CMSIS/Include/cmsis_gcc.h ****   #pragma GCC diagnostic ignored "-Wpacked"
  89:Drivers/CMSIS/Include/cmsis_gcc.h ****   #pragma GCC diagnostic ignored "-Wattributes"
  90:Drivers/CMSIS/Include/cmsis_gcc.h ****   __PACKED_STRUCT T_UINT16_READ { uint16_t v; };
  91:Drivers/CMSIS/Include/cmsis_gcc.h ****   #pragma GCC diagnostic pop
  92:Drivers/CMSIS/Include/cmsis_gcc.h ****   #define __UNALIGNED_UINT16_READ(addr)          (((const struct T_UINT16_READ *)(const void *)(add
  93:Drivers/CMSIS/Include/cmsis_gcc.h **** #endif
  94:Drivers/CMSIS/Include/cmsis_gcc.h **** #ifndef   __UNALIGNED_UINT32_WRITE
  95:Drivers/CMSIS/Include/cmsis_gcc.h ****   #pragma GCC diagnostic push
  96:Drivers/CMSIS/Include/cmsis_gcc.h ****   #pragma GCC diagnostic ignored "-Wpacked"
  97:Drivers/CMSIS/Include/cmsis_gcc.h ****   #pragma GCC diagnostic ignored "-Wattributes"
  98:Drivers/CMSIS/Include/cmsis_gcc.h ****   __PACKED_STRUCT T_UINT32_WRITE { uint32_t v; };
ARM GAS  C:\Users\leejo\AppData\Local\Temp\ccB8JMTe.s 			page 20


  99:Drivers/CMSIS/Include/cmsis_gcc.h ****   #pragma GCC diagnostic pop
 100:Drivers/CMSIS/Include/cmsis_gcc.h ****   #define __UNALIGNED_UINT32_WRITE(addr, val)    (void)((((struct T_UINT32_WRITE *)(void *)(addr))-
 101:Drivers/CMSIS/Include/cmsis_gcc.h **** #endif
 102:Drivers/CMSIS/Include/cmsis_gcc.h **** #ifndef   __UNALIGNED_UINT32_READ
 103:Drivers/CMSIS/Include/cmsis_gcc.h ****   #pragma GCC diagnostic push
 104:Drivers/CMSIS/Include/cmsis_gcc.h ****   #pragma GCC diagnostic ignored "-Wpacked"
 105:Drivers/CMSIS/Include/cmsis_gcc.h ****   #pragma GCC diagnostic ignored "-Wattributes"
 106:Drivers/CMSIS/Include/cmsis_gcc.h ****   __PACKED_STRUCT T_UINT32_READ { uint32_t v; };
 107:Drivers/CMSIS/Include/cmsis_gcc.h ****   #pragma GCC diagnostic pop
 108:Drivers/CMSIS/Include/cmsis_gcc.h ****   #define __UNALIGNED_UINT32_READ(addr)          (((const struct T_UINT32_READ *)(const void *)(add
 109:Drivers/CMSIS/Include/cmsis_gcc.h **** #endif
 110:Drivers/CMSIS/Include/cmsis_gcc.h **** #ifndef   __ALIGNED
 111:Drivers/CMSIS/Include/cmsis_gcc.h ****   #define __ALIGNED(x)                           __attribute__((aligned(x)))
 112:Drivers/CMSIS/Include/cmsis_gcc.h **** #endif
 113:Drivers/CMSIS/Include/cmsis_gcc.h **** #ifndef   __RESTRICT
 114:Drivers/CMSIS/Include/cmsis_gcc.h ****   #define __RESTRICT                             __restrict
 115:Drivers/CMSIS/Include/cmsis_gcc.h **** #endif
 116:Drivers/CMSIS/Include/cmsis_gcc.h **** #ifndef   __COMPILER_BARRIER
 117:Drivers/CMSIS/Include/cmsis_gcc.h ****   #define __COMPILER_BARRIER()                   __ASM volatile("":::"memory")
 118:Drivers/CMSIS/Include/cmsis_gcc.h **** #endif
 119:Drivers/CMSIS/Include/cmsis_gcc.h **** 
 120:Drivers/CMSIS/Include/cmsis_gcc.h **** /* #########################  Startup and Lowlevel Init  ######################## */
 121:Drivers/CMSIS/Include/cmsis_gcc.h **** 
 122:Drivers/CMSIS/Include/cmsis_gcc.h **** #ifndef __PROGRAM_START
 123:Drivers/CMSIS/Include/cmsis_gcc.h **** 
 124:Drivers/CMSIS/Include/cmsis_gcc.h **** /**
 125:Drivers/CMSIS/Include/cmsis_gcc.h ****   \brief   Initializes data and bss sections
 126:Drivers/CMSIS/Include/cmsis_gcc.h ****   \details This default implementations initialized all data and additional bss
 127:Drivers/CMSIS/Include/cmsis_gcc.h ****            sections relying on .copy.table and .zero.table specified properly
 128:Drivers/CMSIS/Include/cmsis_gcc.h ****            in the used linker script.
 129:Drivers/CMSIS/Include/cmsis_gcc.h **** 
 130:Drivers/CMSIS/Include/cmsis_gcc.h ****  */
 131:Drivers/CMSIS/Include/cmsis_gcc.h **** __STATIC_FORCEINLINE __NO_RETURN void __cmsis_start(void)
 132:Drivers/CMSIS/Include/cmsis_gcc.h **** {
 133:Drivers/CMSIS/Include/cmsis_gcc.h ****   extern void _start(void) __NO_RETURN;
 134:Drivers/CMSIS/Include/cmsis_gcc.h **** 
 135:Drivers/CMSIS/Include/cmsis_gcc.h ****   typedef struct {
 136:Drivers/CMSIS/Include/cmsis_gcc.h ****     uint32_t const* src;
 137:Drivers/CMSIS/Include/cmsis_gcc.h ****     uint32_t* dest;
 138:Drivers/CMSIS/Include/cmsis_gcc.h ****     uint32_t  wlen;
 139:Drivers/CMSIS/Include/cmsis_gcc.h ****   } __copy_table_t;
 140:Drivers/CMSIS/Include/cmsis_gcc.h **** 
 141:Drivers/CMSIS/Include/cmsis_gcc.h ****   typedef struct {
 142:Drivers/CMSIS/Include/cmsis_gcc.h ****     uint32_t* dest;
 143:Drivers/CMSIS/Include/cmsis_gcc.h ****     uint32_t  wlen;
 144:Drivers/CMSIS/Include/cmsis_gcc.h ****   } __zero_table_t;
 145:Drivers/CMSIS/Include/cmsis_gcc.h **** 
 146:Drivers/CMSIS/Include/cmsis_gcc.h ****   extern const __copy_table_t __copy_table_start__;
 147:Drivers/CMSIS/Include/cmsis_gcc.h ****   extern const __copy_table_t __copy_table_end__;
 148:Drivers/CMSIS/Include/cmsis_gcc.h ****   extern const __zero_table_t __zero_table_start__;
 149:Drivers/CMSIS/Include/cmsis_gcc.h ****   extern const __zero_table_t __zero_table_end__;
 150:Drivers/CMSIS/Include/cmsis_gcc.h **** 
 151:Drivers/CMSIS/Include/cmsis_gcc.h ****   for (__copy_table_t const* pTable = &__copy_table_start__; pTable < &__copy_table_end__; ++pTable
 152:Drivers/CMSIS/Include/cmsis_gcc.h ****     for(uint32_t i=0u; i<pTable->wlen; ++i) {
 153:Drivers/CMSIS/Include/cmsis_gcc.h ****       pTable->dest[i] = pTable->src[i];
 154:Drivers/CMSIS/Include/cmsis_gcc.h ****     }
 155:Drivers/CMSIS/Include/cmsis_gcc.h ****   }
ARM GAS  C:\Users\leejo\AppData\Local\Temp\ccB8JMTe.s 			page 21


 156:Drivers/CMSIS/Include/cmsis_gcc.h **** 
 157:Drivers/CMSIS/Include/cmsis_gcc.h ****   for (__zero_table_t const* pTable = &__zero_table_start__; pTable < &__zero_table_end__; ++pTable
 158:Drivers/CMSIS/Include/cmsis_gcc.h ****     for(uint32_t i=0u; i<pTable->wlen; ++i) {
 159:Drivers/CMSIS/Include/cmsis_gcc.h ****       pTable->dest[i] = 0u;
 160:Drivers/CMSIS/Include/cmsis_gcc.h ****     }
 161:Drivers/CMSIS/Include/cmsis_gcc.h ****   }
 162:Drivers/CMSIS/Include/cmsis_gcc.h **** 
 163:Drivers/CMSIS/Include/cmsis_gcc.h ****   _start();
 164:Drivers/CMSIS/Include/cmsis_gcc.h **** }
 165:Drivers/CMSIS/Include/cmsis_gcc.h **** 
 166:Drivers/CMSIS/Include/cmsis_gcc.h **** #define __PROGRAM_START           __cmsis_start
 167:Drivers/CMSIS/Include/cmsis_gcc.h **** #endif
 168:Drivers/CMSIS/Include/cmsis_gcc.h **** 
 169:Drivers/CMSIS/Include/cmsis_gcc.h **** #ifndef __INITIAL_SP
 170:Drivers/CMSIS/Include/cmsis_gcc.h **** #define __INITIAL_SP              __StackTop
 171:Drivers/CMSIS/Include/cmsis_gcc.h **** #endif
 172:Drivers/CMSIS/Include/cmsis_gcc.h **** 
 173:Drivers/CMSIS/Include/cmsis_gcc.h **** #ifndef __STACK_LIMIT
 174:Drivers/CMSIS/Include/cmsis_gcc.h **** #define __STACK_LIMIT             __StackLimit
 175:Drivers/CMSIS/Include/cmsis_gcc.h **** #endif
 176:Drivers/CMSIS/Include/cmsis_gcc.h **** 
 177:Drivers/CMSIS/Include/cmsis_gcc.h **** #ifndef __VECTOR_TABLE
 178:Drivers/CMSIS/Include/cmsis_gcc.h **** #define __VECTOR_TABLE            __Vectors
 179:Drivers/CMSIS/Include/cmsis_gcc.h **** #endif
 180:Drivers/CMSIS/Include/cmsis_gcc.h **** 
 181:Drivers/CMSIS/Include/cmsis_gcc.h **** #ifndef __VECTOR_TABLE_ATTRIBUTE
 182:Drivers/CMSIS/Include/cmsis_gcc.h **** #define __VECTOR_TABLE_ATTRIBUTE  __attribute__((used, section(".vectors")))
 183:Drivers/CMSIS/Include/cmsis_gcc.h **** #endif
 184:Drivers/CMSIS/Include/cmsis_gcc.h **** 
 185:Drivers/CMSIS/Include/cmsis_gcc.h **** #if defined (__ARM_FEATURE_CMSE) && (__ARM_FEATURE_CMSE == 3U)
 186:Drivers/CMSIS/Include/cmsis_gcc.h **** #ifndef __STACK_SEAL
 187:Drivers/CMSIS/Include/cmsis_gcc.h **** #define __STACK_SEAL              __StackSeal
 188:Drivers/CMSIS/Include/cmsis_gcc.h **** #endif
 189:Drivers/CMSIS/Include/cmsis_gcc.h **** 
 190:Drivers/CMSIS/Include/cmsis_gcc.h **** #ifndef __TZ_STACK_SEAL_SIZE
 191:Drivers/CMSIS/Include/cmsis_gcc.h **** #define __TZ_STACK_SEAL_SIZE      8U
 192:Drivers/CMSIS/Include/cmsis_gcc.h **** #endif
 193:Drivers/CMSIS/Include/cmsis_gcc.h **** 
 194:Drivers/CMSIS/Include/cmsis_gcc.h **** #ifndef __TZ_STACK_SEAL_VALUE
 195:Drivers/CMSIS/Include/cmsis_gcc.h **** #define __TZ_STACK_SEAL_VALUE     0xFEF5EDA5FEF5EDA5ULL
 196:Drivers/CMSIS/Include/cmsis_gcc.h **** #endif
 197:Drivers/CMSIS/Include/cmsis_gcc.h **** 
 198:Drivers/CMSIS/Include/cmsis_gcc.h **** 
 199:Drivers/CMSIS/Include/cmsis_gcc.h **** __STATIC_FORCEINLINE void __TZ_set_STACKSEAL_S (uint32_t* stackTop) {
 200:Drivers/CMSIS/Include/cmsis_gcc.h ****   *((uint64_t *)stackTop) = __TZ_STACK_SEAL_VALUE;
 201:Drivers/CMSIS/Include/cmsis_gcc.h **** }
 202:Drivers/CMSIS/Include/cmsis_gcc.h **** #endif
 203:Drivers/CMSIS/Include/cmsis_gcc.h **** 
 204:Drivers/CMSIS/Include/cmsis_gcc.h **** 
 205:Drivers/CMSIS/Include/cmsis_gcc.h **** /* ##########################  Core Instruction Access  ######################### */
 206:Drivers/CMSIS/Include/cmsis_gcc.h **** /** \defgroup CMSIS_Core_InstructionInterface CMSIS Core Instruction Interface
 207:Drivers/CMSIS/Include/cmsis_gcc.h ****   Access to dedicated instructions
 208:Drivers/CMSIS/Include/cmsis_gcc.h ****   @{
 209:Drivers/CMSIS/Include/cmsis_gcc.h **** */
 210:Drivers/CMSIS/Include/cmsis_gcc.h **** 
 211:Drivers/CMSIS/Include/cmsis_gcc.h **** /* Define macros for porting to both thumb1 and thumb2.
 212:Drivers/CMSIS/Include/cmsis_gcc.h ****  * For thumb1, use low register (r0-r7), specified by constraint "l"
ARM GAS  C:\Users\leejo\AppData\Local\Temp\ccB8JMTe.s 			page 22


 213:Drivers/CMSIS/Include/cmsis_gcc.h ****  * Otherwise, use general registers, specified by constraint "r" */
 214:Drivers/CMSIS/Include/cmsis_gcc.h **** #if defined (__thumb__) && !defined (__thumb2__)
 215:Drivers/CMSIS/Include/cmsis_gcc.h **** #define __CMSIS_GCC_OUT_REG(r) "=l" (r)
 216:Drivers/CMSIS/Include/cmsis_gcc.h **** #define __CMSIS_GCC_RW_REG(r) "+l" (r)
 217:Drivers/CMSIS/Include/cmsis_gcc.h **** #define __CMSIS_GCC_USE_REG(r) "l" (r)
 218:Drivers/CMSIS/Include/cmsis_gcc.h **** #else
 219:Drivers/CMSIS/Include/cmsis_gcc.h **** #define __CMSIS_GCC_OUT_REG(r) "=r" (r)
 220:Drivers/CMSIS/Include/cmsis_gcc.h **** #define __CMSIS_GCC_RW_REG(r) "+r" (r)
 221:Drivers/CMSIS/Include/cmsis_gcc.h **** #define __CMSIS_GCC_USE_REG(r) "r" (r)
 222:Drivers/CMSIS/Include/cmsis_gcc.h **** #endif
 223:Drivers/CMSIS/Include/cmsis_gcc.h **** 
 224:Drivers/CMSIS/Include/cmsis_gcc.h **** /**
 225:Drivers/CMSIS/Include/cmsis_gcc.h ****   \brief   No Operation
 226:Drivers/CMSIS/Include/cmsis_gcc.h ****   \details No Operation does nothing. This instruction can be used for code alignment purposes.
 227:Drivers/CMSIS/Include/cmsis_gcc.h ****  */
 228:Drivers/CMSIS/Include/cmsis_gcc.h **** #define __NOP()                             __ASM volatile ("nop")
 229:Drivers/CMSIS/Include/cmsis_gcc.h **** 
 230:Drivers/CMSIS/Include/cmsis_gcc.h **** /**
 231:Drivers/CMSIS/Include/cmsis_gcc.h ****   \brief   Wait For Interrupt
 232:Drivers/CMSIS/Include/cmsis_gcc.h ****   \details Wait For Interrupt is a hint instruction that suspends execution until one of a number o
 233:Drivers/CMSIS/Include/cmsis_gcc.h ****  */
 234:Drivers/CMSIS/Include/cmsis_gcc.h **** #define __WFI()                             __ASM volatile ("wfi":::"memory")
 235:Drivers/CMSIS/Include/cmsis_gcc.h **** 
 236:Drivers/CMSIS/Include/cmsis_gcc.h **** 
 237:Drivers/CMSIS/Include/cmsis_gcc.h **** /**
 238:Drivers/CMSIS/Include/cmsis_gcc.h ****   \brief   Wait For Event
 239:Drivers/CMSIS/Include/cmsis_gcc.h ****   \details Wait For Event is a hint instruction that permits the processor to enter
 240:Drivers/CMSIS/Include/cmsis_gcc.h ****            a low-power state until one of a number of events occurs.
 241:Drivers/CMSIS/Include/cmsis_gcc.h ****  */
 242:Drivers/CMSIS/Include/cmsis_gcc.h **** #define __WFE()                             __ASM volatile ("wfe":::"memory")
 243:Drivers/CMSIS/Include/cmsis_gcc.h **** 
 244:Drivers/CMSIS/Include/cmsis_gcc.h **** 
 245:Drivers/CMSIS/Include/cmsis_gcc.h **** /**
 246:Drivers/CMSIS/Include/cmsis_gcc.h ****   \brief   Send Event
 247:Drivers/CMSIS/Include/cmsis_gcc.h ****   \details Send Event is a hint instruction. It causes an event to be signaled to the CPU.
 248:Drivers/CMSIS/Include/cmsis_gcc.h ****  */
 249:Drivers/CMSIS/Include/cmsis_gcc.h **** #define __SEV()                             __ASM volatile ("sev")
 250:Drivers/CMSIS/Include/cmsis_gcc.h **** 
 251:Drivers/CMSIS/Include/cmsis_gcc.h **** 
 252:Drivers/CMSIS/Include/cmsis_gcc.h **** /**
 253:Drivers/CMSIS/Include/cmsis_gcc.h ****   \brief   Instruction Synchronization Barrier
 254:Drivers/CMSIS/Include/cmsis_gcc.h ****   \details Instruction Synchronization Barrier flushes the pipeline in the processor,
 255:Drivers/CMSIS/Include/cmsis_gcc.h ****            so that all instructions following the ISB are fetched from cache or memory,
 256:Drivers/CMSIS/Include/cmsis_gcc.h ****            after the instruction has been completed.
 257:Drivers/CMSIS/Include/cmsis_gcc.h ****  */
 258:Drivers/CMSIS/Include/cmsis_gcc.h **** __STATIC_FORCEINLINE void __ISB(void)
 259:Drivers/CMSIS/Include/cmsis_gcc.h **** {
 260:Drivers/CMSIS/Include/cmsis_gcc.h ****   __ASM volatile ("isb 0xF":::"memory");
 261:Drivers/CMSIS/Include/cmsis_gcc.h **** }
 262:Drivers/CMSIS/Include/cmsis_gcc.h **** 
 263:Drivers/CMSIS/Include/cmsis_gcc.h **** 
 264:Drivers/CMSIS/Include/cmsis_gcc.h **** /**
 265:Drivers/CMSIS/Include/cmsis_gcc.h ****   \brief   Data Synchronization Barrier
 266:Drivers/CMSIS/Include/cmsis_gcc.h ****   \details Acts as a special kind of Data Memory Barrier.
 267:Drivers/CMSIS/Include/cmsis_gcc.h ****            It completes when all explicit memory accesses before this instruction complete.
 268:Drivers/CMSIS/Include/cmsis_gcc.h ****  */
 269:Drivers/CMSIS/Include/cmsis_gcc.h **** __STATIC_FORCEINLINE void __DSB(void)
ARM GAS  C:\Users\leejo\AppData\Local\Temp\ccB8JMTe.s 			page 23


 270:Drivers/CMSIS/Include/cmsis_gcc.h **** {
 271:Drivers/CMSIS/Include/cmsis_gcc.h ****   __ASM volatile ("dsb 0xF":::"memory");
 272:Drivers/CMSIS/Include/cmsis_gcc.h **** }
 273:Drivers/CMSIS/Include/cmsis_gcc.h **** 
 274:Drivers/CMSIS/Include/cmsis_gcc.h **** 
 275:Drivers/CMSIS/Include/cmsis_gcc.h **** /**
 276:Drivers/CMSIS/Include/cmsis_gcc.h ****   \brief   Data Memory Barrier
 277:Drivers/CMSIS/Include/cmsis_gcc.h ****   \details Ensures the apparent order of the explicit memory operations before
 278:Drivers/CMSIS/Include/cmsis_gcc.h ****            and after the instruction, without ensuring their completion.
 279:Drivers/CMSIS/Include/cmsis_gcc.h ****  */
 280:Drivers/CMSIS/Include/cmsis_gcc.h **** __STATIC_FORCEINLINE void __DMB(void)
 281:Drivers/CMSIS/Include/cmsis_gcc.h **** {
 282:Drivers/CMSIS/Include/cmsis_gcc.h ****   __ASM volatile ("dmb 0xF":::"memory");
 283:Drivers/CMSIS/Include/cmsis_gcc.h **** }
 284:Drivers/CMSIS/Include/cmsis_gcc.h **** 
 285:Drivers/CMSIS/Include/cmsis_gcc.h **** 
 286:Drivers/CMSIS/Include/cmsis_gcc.h **** /**
 287:Drivers/CMSIS/Include/cmsis_gcc.h ****   \brief   Reverse byte order (32 bit)
 288:Drivers/CMSIS/Include/cmsis_gcc.h ****   \details Reverses the byte order in unsigned integer value. For example, 0x12345678 becomes 0x785
 289:Drivers/CMSIS/Include/cmsis_gcc.h ****   \param [in]    value  Value to reverse
 290:Drivers/CMSIS/Include/cmsis_gcc.h ****   \return               Reversed value
 291:Drivers/CMSIS/Include/cmsis_gcc.h ****  */
 292:Drivers/CMSIS/Include/cmsis_gcc.h **** __STATIC_FORCEINLINE uint32_t __REV(uint32_t value)
 293:Drivers/CMSIS/Include/cmsis_gcc.h **** {
 294:Drivers/CMSIS/Include/cmsis_gcc.h **** #if (__GNUC__ > 4) || (__GNUC__ == 4 && __GNUC_MINOR__ >= 5)
 295:Drivers/CMSIS/Include/cmsis_gcc.h ****   return __builtin_bswap32(value);
 296:Drivers/CMSIS/Include/cmsis_gcc.h **** #else
 297:Drivers/CMSIS/Include/cmsis_gcc.h ****   uint32_t result;
 298:Drivers/CMSIS/Include/cmsis_gcc.h **** 
 299:Drivers/CMSIS/Include/cmsis_gcc.h ****   __ASM ("rev %0, %1" : __CMSIS_GCC_OUT_REG (result) : __CMSIS_GCC_USE_REG (value) );
 300:Drivers/CMSIS/Include/cmsis_gcc.h ****   return result;
 301:Drivers/CMSIS/Include/cmsis_gcc.h **** #endif
 302:Drivers/CMSIS/Include/cmsis_gcc.h **** }
 303:Drivers/CMSIS/Include/cmsis_gcc.h **** 
 304:Drivers/CMSIS/Include/cmsis_gcc.h **** 
 305:Drivers/CMSIS/Include/cmsis_gcc.h **** /**
 306:Drivers/CMSIS/Include/cmsis_gcc.h ****   \brief   Reverse byte order (16 bit)
 307:Drivers/CMSIS/Include/cmsis_gcc.h ****   \details Reverses the byte order within each halfword of a word. For example, 0x12345678 becomes 
 308:Drivers/CMSIS/Include/cmsis_gcc.h ****   \param [in]    value  Value to reverse
 309:Drivers/CMSIS/Include/cmsis_gcc.h ****   \return               Reversed value
 310:Drivers/CMSIS/Include/cmsis_gcc.h ****  */
 311:Drivers/CMSIS/Include/cmsis_gcc.h **** __STATIC_FORCEINLINE uint32_t __REV16(uint32_t value)
 312:Drivers/CMSIS/Include/cmsis_gcc.h **** {
 313:Drivers/CMSIS/Include/cmsis_gcc.h ****   uint32_t result;
 314:Drivers/CMSIS/Include/cmsis_gcc.h **** 
 315:Drivers/CMSIS/Include/cmsis_gcc.h ****   __ASM ("rev16 %0, %1" : __CMSIS_GCC_OUT_REG (result) : __CMSIS_GCC_USE_REG (value) );
 316:Drivers/CMSIS/Include/cmsis_gcc.h ****   return result;
 317:Drivers/CMSIS/Include/cmsis_gcc.h **** }
 318:Drivers/CMSIS/Include/cmsis_gcc.h **** 
 319:Drivers/CMSIS/Include/cmsis_gcc.h **** 
 320:Drivers/CMSIS/Include/cmsis_gcc.h **** /**
 321:Drivers/CMSIS/Include/cmsis_gcc.h ****   \brief   Reverse byte order (16 bit)
 322:Drivers/CMSIS/Include/cmsis_gcc.h ****   \details Reverses the byte order in a 16-bit value and returns the signed 16-bit result. For exam
 323:Drivers/CMSIS/Include/cmsis_gcc.h ****   \param [in]    value  Value to reverse
 324:Drivers/CMSIS/Include/cmsis_gcc.h ****   \return               Reversed value
 325:Drivers/CMSIS/Include/cmsis_gcc.h ****  */
 326:Drivers/CMSIS/Include/cmsis_gcc.h **** __STATIC_FORCEINLINE int16_t __REVSH(int16_t value)
ARM GAS  C:\Users\leejo\AppData\Local\Temp\ccB8JMTe.s 			page 24


 327:Drivers/CMSIS/Include/cmsis_gcc.h **** {
 328:Drivers/CMSIS/Include/cmsis_gcc.h **** #if (__GNUC__ > 4) || (__GNUC__ == 4 && __GNUC_MINOR__ >= 8)
 329:Drivers/CMSIS/Include/cmsis_gcc.h ****   return (int16_t)__builtin_bswap16(value);
 330:Drivers/CMSIS/Include/cmsis_gcc.h **** #else
 331:Drivers/CMSIS/Include/cmsis_gcc.h ****   int16_t result;
 332:Drivers/CMSIS/Include/cmsis_gcc.h **** 
 333:Drivers/CMSIS/Include/cmsis_gcc.h ****   __ASM ("revsh %0, %1" : __CMSIS_GCC_OUT_REG (result) : __CMSIS_GCC_USE_REG (value) );
 334:Drivers/CMSIS/Include/cmsis_gcc.h ****   return result;
 335:Drivers/CMSIS/Include/cmsis_gcc.h **** #endif
 336:Drivers/CMSIS/Include/cmsis_gcc.h **** }
 337:Drivers/CMSIS/Include/cmsis_gcc.h **** 
 338:Drivers/CMSIS/Include/cmsis_gcc.h **** 
 339:Drivers/CMSIS/Include/cmsis_gcc.h **** /**
 340:Drivers/CMSIS/Include/cmsis_gcc.h ****   \brief   Rotate Right in unsigned value (32 bit)
 341:Drivers/CMSIS/Include/cmsis_gcc.h ****   \details Rotate Right (immediate) provides the value of the contents of a register rotated by a v
 342:Drivers/CMSIS/Include/cmsis_gcc.h ****   \param [in]    op1  Value to rotate
 343:Drivers/CMSIS/Include/cmsis_gcc.h ****   \param [in]    op2  Number of Bits to rotate
 344:Drivers/CMSIS/Include/cmsis_gcc.h ****   \return               Rotated value
 345:Drivers/CMSIS/Include/cmsis_gcc.h ****  */
 346:Drivers/CMSIS/Include/cmsis_gcc.h **** __STATIC_FORCEINLINE uint32_t __ROR(uint32_t op1, uint32_t op2)
 347:Drivers/CMSIS/Include/cmsis_gcc.h **** {
 348:Drivers/CMSIS/Include/cmsis_gcc.h ****   op2 %= 32U;
 349:Drivers/CMSIS/Include/cmsis_gcc.h ****   if (op2 == 0U)
 350:Drivers/CMSIS/Include/cmsis_gcc.h ****   {
 351:Drivers/CMSIS/Include/cmsis_gcc.h ****     return op1;
 352:Drivers/CMSIS/Include/cmsis_gcc.h ****   }
 353:Drivers/CMSIS/Include/cmsis_gcc.h ****   return (op1 >> op2) | (op1 << (32U - op2));
 354:Drivers/CMSIS/Include/cmsis_gcc.h **** }
 355:Drivers/CMSIS/Include/cmsis_gcc.h **** 
 356:Drivers/CMSIS/Include/cmsis_gcc.h **** 
 357:Drivers/CMSIS/Include/cmsis_gcc.h **** /**
 358:Drivers/CMSIS/Include/cmsis_gcc.h ****   \brief   Breakpoint
 359:Drivers/CMSIS/Include/cmsis_gcc.h ****   \details Causes the processor to enter Debug state.
 360:Drivers/CMSIS/Include/cmsis_gcc.h ****            Debug tools can use this to investigate system state when the instruction at a particula
 361:Drivers/CMSIS/Include/cmsis_gcc.h ****   \param [in]    value  is ignored by the processor.
 362:Drivers/CMSIS/Include/cmsis_gcc.h ****                  If required, a debugger can use it to store additional information about the break
 363:Drivers/CMSIS/Include/cmsis_gcc.h ****  */
 364:Drivers/CMSIS/Include/cmsis_gcc.h **** #define __BKPT(value)                       __ASM volatile ("bkpt "#value)
 365:Drivers/CMSIS/Include/cmsis_gcc.h **** 
 366:Drivers/CMSIS/Include/cmsis_gcc.h **** 
 367:Drivers/CMSIS/Include/cmsis_gcc.h **** /**
 368:Drivers/CMSIS/Include/cmsis_gcc.h ****   \brief   Reverse bit order of value
 369:Drivers/CMSIS/Include/cmsis_gcc.h ****   \details Reverses the bit order of the given value.
 370:Drivers/CMSIS/Include/cmsis_gcc.h ****   \param [in]    value  Value to reverse
 371:Drivers/CMSIS/Include/cmsis_gcc.h ****   \return               Reversed value
 372:Drivers/CMSIS/Include/cmsis_gcc.h ****  */
 373:Drivers/CMSIS/Include/cmsis_gcc.h **** __STATIC_FORCEINLINE uint32_t __RBIT(uint32_t value)
 374:Drivers/CMSIS/Include/cmsis_gcc.h **** {
 375:Drivers/CMSIS/Include/cmsis_gcc.h ****   uint32_t result;
 376:Drivers/CMSIS/Include/cmsis_gcc.h **** 
 377:Drivers/CMSIS/Include/cmsis_gcc.h **** #if ((defined (__ARM_ARCH_7M__      ) && (__ARM_ARCH_7M__      == 1)) || \
 378:Drivers/CMSIS/Include/cmsis_gcc.h ****      (defined (__ARM_ARCH_7EM__     ) && (__ARM_ARCH_7EM__     == 1)) || \
 379:Drivers/CMSIS/Include/cmsis_gcc.h ****      (defined (__ARM_ARCH_8M_MAIN__ ) && (__ARM_ARCH_8M_MAIN__ == 1))    )
 380:Drivers/CMSIS/Include/cmsis_gcc.h ****    __ASM ("rbit %0, %1" : "=r" (result) : "r" (value) );
 381:Drivers/CMSIS/Include/cmsis_gcc.h **** #else
 382:Drivers/CMSIS/Include/cmsis_gcc.h ****   uint32_t s = (4U /*sizeof(v)*/ * 8U) - 1U; /* extra shift needed at end */
 383:Drivers/CMSIS/Include/cmsis_gcc.h **** 
ARM GAS  C:\Users\leejo\AppData\Local\Temp\ccB8JMTe.s 			page 25


 384:Drivers/CMSIS/Include/cmsis_gcc.h ****   result = value;                      /* r will be reversed bits of v; first get LSB of v */
 385:Drivers/CMSIS/Include/cmsis_gcc.h ****   for (value >>= 1U; value != 0U; value >>= 1U)
 386:Drivers/CMSIS/Include/cmsis_gcc.h ****   {
 387:Drivers/CMSIS/Include/cmsis_gcc.h ****     result <<= 1U;
 388:Drivers/CMSIS/Include/cmsis_gcc.h ****     result |= value & 1U;
 389:Drivers/CMSIS/Include/cmsis_gcc.h ****     s--;
 390:Drivers/CMSIS/Include/cmsis_gcc.h ****   }
 391:Drivers/CMSIS/Include/cmsis_gcc.h ****   result <<= s;                        /* shift when v's highest bits are zero */
 392:Drivers/CMSIS/Include/cmsis_gcc.h **** #endif
 393:Drivers/CMSIS/Include/cmsis_gcc.h ****   return result;
 394:Drivers/CMSIS/Include/cmsis_gcc.h **** }
 395:Drivers/CMSIS/Include/cmsis_gcc.h **** 
 396:Drivers/CMSIS/Include/cmsis_gcc.h **** 
 397:Drivers/CMSIS/Include/cmsis_gcc.h **** /**
 398:Drivers/CMSIS/Include/cmsis_gcc.h ****   \brief   Count leading zeros
 399:Drivers/CMSIS/Include/cmsis_gcc.h ****   \details Counts the number of leading zeros of a data value.
 400:Drivers/CMSIS/Include/cmsis_gcc.h ****   \param [in]  value  Value to count the leading zeros
 401:Drivers/CMSIS/Include/cmsis_gcc.h ****   \return             number of leading zeros in value
 402:Drivers/CMSIS/Include/cmsis_gcc.h ****  */
 403:Drivers/CMSIS/Include/cmsis_gcc.h **** __STATIC_FORCEINLINE uint8_t __CLZ(uint32_t value)
 404:Drivers/CMSIS/Include/cmsis_gcc.h **** {
 405:Drivers/CMSIS/Include/cmsis_gcc.h ****   /* Even though __builtin_clz produces a CLZ instruction on ARM, formally
 406:Drivers/CMSIS/Include/cmsis_gcc.h ****      __builtin_clz(0) is undefined behaviour, so handle this case specially.
 407:Drivers/CMSIS/Include/cmsis_gcc.h ****      This guarantees ARM-compatible results if happening to compile on a non-ARM
 408:Drivers/CMSIS/Include/cmsis_gcc.h ****      target, and ensures the compiler doesn't decide to activate any
 409:Drivers/CMSIS/Include/cmsis_gcc.h ****      optimisations using the logic "value was passed to __builtin_clz, so it
 410:Drivers/CMSIS/Include/cmsis_gcc.h ****      is non-zero".
 411:Drivers/CMSIS/Include/cmsis_gcc.h ****      ARM GCC 7.3 and possibly earlier will optimise this test away, leaving a
 412:Drivers/CMSIS/Include/cmsis_gcc.h ****      single CLZ instruction.
 413:Drivers/CMSIS/Include/cmsis_gcc.h ****    */
 414:Drivers/CMSIS/Include/cmsis_gcc.h ****   if (value == 0U)
 415:Drivers/CMSIS/Include/cmsis_gcc.h ****   {
 416:Drivers/CMSIS/Include/cmsis_gcc.h ****     return 32U;
 417:Drivers/CMSIS/Include/cmsis_gcc.h ****   }
 418:Drivers/CMSIS/Include/cmsis_gcc.h ****   return __builtin_clz(value);
 419:Drivers/CMSIS/Include/cmsis_gcc.h **** }
 420:Drivers/CMSIS/Include/cmsis_gcc.h **** 
 421:Drivers/CMSIS/Include/cmsis_gcc.h **** 
 422:Drivers/CMSIS/Include/cmsis_gcc.h **** #if ((defined (__ARM_ARCH_7M__      ) && (__ARM_ARCH_7M__      == 1)) || \
 423:Drivers/CMSIS/Include/cmsis_gcc.h ****      (defined (__ARM_ARCH_7EM__     ) && (__ARM_ARCH_7EM__     == 1)) || \
 424:Drivers/CMSIS/Include/cmsis_gcc.h ****      (defined (__ARM_ARCH_8M_MAIN__ ) && (__ARM_ARCH_8M_MAIN__ == 1)) || \
 425:Drivers/CMSIS/Include/cmsis_gcc.h ****      (defined (__ARM_ARCH_8M_BASE__ ) && (__ARM_ARCH_8M_BASE__ == 1))    )
 426:Drivers/CMSIS/Include/cmsis_gcc.h **** /**
 427:Drivers/CMSIS/Include/cmsis_gcc.h ****   \brief   LDR Exclusive (8 bit)
 428:Drivers/CMSIS/Include/cmsis_gcc.h ****   \details Executes a exclusive LDR instruction for 8 bit value.
 429:Drivers/CMSIS/Include/cmsis_gcc.h ****   \param [in]    ptr  Pointer to data
 430:Drivers/CMSIS/Include/cmsis_gcc.h ****   \return             value of type uint8_t at (*ptr)
 431:Drivers/CMSIS/Include/cmsis_gcc.h ****  */
 432:Drivers/CMSIS/Include/cmsis_gcc.h **** __STATIC_FORCEINLINE uint8_t __LDREXB(volatile uint8_t *addr)
 433:Drivers/CMSIS/Include/cmsis_gcc.h **** {
 434:Drivers/CMSIS/Include/cmsis_gcc.h ****     uint32_t result;
 435:Drivers/CMSIS/Include/cmsis_gcc.h **** 
 436:Drivers/CMSIS/Include/cmsis_gcc.h **** #if (__GNUC__ > 4) || (__GNUC__ == 4 && __GNUC_MINOR__ >= 8)
 437:Drivers/CMSIS/Include/cmsis_gcc.h ****    __ASM volatile ("ldrexb %0, %1" : "=r" (result) : "Q" (*addr) );
 438:Drivers/CMSIS/Include/cmsis_gcc.h **** #else
 439:Drivers/CMSIS/Include/cmsis_gcc.h ****     /* Prior to GCC 4.8, "Q" will be expanded to [rx, #0] which is not
 440:Drivers/CMSIS/Include/cmsis_gcc.h ****        accepted by assembler. So has to use following less efficient pattern.
ARM GAS  C:\Users\leejo\AppData\Local\Temp\ccB8JMTe.s 			page 26


 441:Drivers/CMSIS/Include/cmsis_gcc.h ****     */
 442:Drivers/CMSIS/Include/cmsis_gcc.h ****    __ASM volatile ("ldrexb %0, [%1]" : "=r" (result) : "r" (addr) : "memory" );
 443:Drivers/CMSIS/Include/cmsis_gcc.h **** #endif
 444:Drivers/CMSIS/Include/cmsis_gcc.h ****    return ((uint8_t) result);    /* Add explicit type cast here */
 445:Drivers/CMSIS/Include/cmsis_gcc.h **** }
 446:Drivers/CMSIS/Include/cmsis_gcc.h **** 
 447:Drivers/CMSIS/Include/cmsis_gcc.h **** 
 448:Drivers/CMSIS/Include/cmsis_gcc.h **** /**
 449:Drivers/CMSIS/Include/cmsis_gcc.h ****   \brief   LDR Exclusive (16 bit)
 450:Drivers/CMSIS/Include/cmsis_gcc.h ****   \details Executes a exclusive LDR instruction for 16 bit values.
 451:Drivers/CMSIS/Include/cmsis_gcc.h ****   \param [in]    ptr  Pointer to data
 452:Drivers/CMSIS/Include/cmsis_gcc.h ****   \return        value of type uint16_t at (*ptr)
 453:Drivers/CMSIS/Include/cmsis_gcc.h ****  */
 454:Drivers/CMSIS/Include/cmsis_gcc.h **** __STATIC_FORCEINLINE uint16_t __LDREXH(volatile uint16_t *addr)
 455:Drivers/CMSIS/Include/cmsis_gcc.h **** {
 456:Drivers/CMSIS/Include/cmsis_gcc.h ****     uint32_t result;
 457:Drivers/CMSIS/Include/cmsis_gcc.h **** 
 458:Drivers/CMSIS/Include/cmsis_gcc.h **** #if (__GNUC__ > 4) || (__GNUC__ == 4 && __GNUC_MINOR__ >= 8)
 459:Drivers/CMSIS/Include/cmsis_gcc.h ****    __ASM volatile ("ldrexh %0, %1" : "=r" (result) : "Q" (*addr) );
 460:Drivers/CMSIS/Include/cmsis_gcc.h **** #else
 461:Drivers/CMSIS/Include/cmsis_gcc.h ****     /* Prior to GCC 4.8, "Q" will be expanded to [rx, #0] which is not
 462:Drivers/CMSIS/Include/cmsis_gcc.h ****        accepted by assembler. So has to use following less efficient pattern.
 463:Drivers/CMSIS/Include/cmsis_gcc.h ****     */
 464:Drivers/CMSIS/Include/cmsis_gcc.h ****    __ASM volatile ("ldrexh %0, [%1]" : "=r" (result) : "r" (addr) : "memory" );
 465:Drivers/CMSIS/Include/cmsis_gcc.h **** #endif
 466:Drivers/CMSIS/Include/cmsis_gcc.h ****    return ((uint16_t) result);    /* Add explicit type cast here */
 467:Drivers/CMSIS/Include/cmsis_gcc.h **** }
 468:Drivers/CMSIS/Include/cmsis_gcc.h **** 
 469:Drivers/CMSIS/Include/cmsis_gcc.h **** 
 470:Drivers/CMSIS/Include/cmsis_gcc.h **** /**
 471:Drivers/CMSIS/Include/cmsis_gcc.h ****   \brief   LDR Exclusive (32 bit)
 472:Drivers/CMSIS/Include/cmsis_gcc.h ****   \details Executes a exclusive LDR instruction for 32 bit values.
 473:Drivers/CMSIS/Include/cmsis_gcc.h ****   \param [in]    ptr  Pointer to data
 474:Drivers/CMSIS/Include/cmsis_gcc.h ****   \return        value of type uint32_t at (*ptr)
 475:Drivers/CMSIS/Include/cmsis_gcc.h ****  */
 476:Drivers/CMSIS/Include/cmsis_gcc.h **** __STATIC_FORCEINLINE uint32_t __LDREXW(volatile uint32_t *addr)
 477:Drivers/CMSIS/Include/cmsis_gcc.h **** {
 478:Drivers/CMSIS/Include/cmsis_gcc.h ****     uint32_t result;
 479:Drivers/CMSIS/Include/cmsis_gcc.h **** 
 480:Drivers/CMSIS/Include/cmsis_gcc.h ****    __ASM volatile ("ldrex %0, %1" : "=r" (result) : "Q" (*addr) );
 481:Drivers/CMSIS/Include/cmsis_gcc.h ****    return(result);
 482:Drivers/CMSIS/Include/cmsis_gcc.h **** }
 483:Drivers/CMSIS/Include/cmsis_gcc.h **** 
 484:Drivers/CMSIS/Include/cmsis_gcc.h **** 
 485:Drivers/CMSIS/Include/cmsis_gcc.h **** /**
 486:Drivers/CMSIS/Include/cmsis_gcc.h ****   \brief   STR Exclusive (8 bit)
 487:Drivers/CMSIS/Include/cmsis_gcc.h ****   \details Executes a exclusive STR instruction for 8 bit values.
 488:Drivers/CMSIS/Include/cmsis_gcc.h ****   \param [in]  value  Value to store
 489:Drivers/CMSIS/Include/cmsis_gcc.h ****   \param [in]    ptr  Pointer to location
 490:Drivers/CMSIS/Include/cmsis_gcc.h ****   \return          0  Function succeeded
 491:Drivers/CMSIS/Include/cmsis_gcc.h ****   \return          1  Function failed
 492:Drivers/CMSIS/Include/cmsis_gcc.h ****  */
 493:Drivers/CMSIS/Include/cmsis_gcc.h **** __STATIC_FORCEINLINE uint32_t __STREXB(uint8_t value, volatile uint8_t *addr)
 494:Drivers/CMSIS/Include/cmsis_gcc.h **** {
 495:Drivers/CMSIS/Include/cmsis_gcc.h ****    uint32_t result;
 496:Drivers/CMSIS/Include/cmsis_gcc.h **** 
 497:Drivers/CMSIS/Include/cmsis_gcc.h ****    __ASM volatile ("strexb %0, %2, %1" : "=&r" (result), "=Q" (*addr) : "r" ((uint32_t)value) );
ARM GAS  C:\Users\leejo\AppData\Local\Temp\ccB8JMTe.s 			page 27


 498:Drivers/CMSIS/Include/cmsis_gcc.h ****    return(result);
 499:Drivers/CMSIS/Include/cmsis_gcc.h **** }
 500:Drivers/CMSIS/Include/cmsis_gcc.h **** 
 501:Drivers/CMSIS/Include/cmsis_gcc.h **** 
 502:Drivers/CMSIS/Include/cmsis_gcc.h **** /**
 503:Drivers/CMSIS/Include/cmsis_gcc.h ****   \brief   STR Exclusive (16 bit)
 504:Drivers/CMSIS/Include/cmsis_gcc.h ****   \details Executes a exclusive STR instruction for 16 bit values.
 505:Drivers/CMSIS/Include/cmsis_gcc.h ****   \param [in]  value  Value to store
 506:Drivers/CMSIS/Include/cmsis_gcc.h ****   \param [in]    ptr  Pointer to location
 507:Drivers/CMSIS/Include/cmsis_gcc.h ****   \return          0  Function succeeded
 508:Drivers/CMSIS/Include/cmsis_gcc.h ****   \return          1  Function failed
 509:Drivers/CMSIS/Include/cmsis_gcc.h ****  */
 510:Drivers/CMSIS/Include/cmsis_gcc.h **** __STATIC_FORCEINLINE uint32_t __STREXH(uint16_t value, volatile uint16_t *addr)
 511:Drivers/CMSIS/Include/cmsis_gcc.h **** {
 512:Drivers/CMSIS/Include/cmsis_gcc.h ****    uint32_t result;
 513:Drivers/CMSIS/Include/cmsis_gcc.h **** 
 514:Drivers/CMSIS/Include/cmsis_gcc.h ****    __ASM volatile ("strexh %0, %2, %1" : "=&r" (result), "=Q" (*addr) : "r" ((uint32_t)value) );
 515:Drivers/CMSIS/Include/cmsis_gcc.h ****    return(result);
 516:Drivers/CMSIS/Include/cmsis_gcc.h **** }
 517:Drivers/CMSIS/Include/cmsis_gcc.h **** 
 518:Drivers/CMSIS/Include/cmsis_gcc.h **** 
 519:Drivers/CMSIS/Include/cmsis_gcc.h **** /**
 520:Drivers/CMSIS/Include/cmsis_gcc.h ****   \brief   STR Exclusive (32 bit)
 521:Drivers/CMSIS/Include/cmsis_gcc.h ****   \details Executes a exclusive STR instruction for 32 bit values.
 522:Drivers/CMSIS/Include/cmsis_gcc.h ****   \param [in]  value  Value to store
 523:Drivers/CMSIS/Include/cmsis_gcc.h ****   \param [in]    ptr  Pointer to location
 524:Drivers/CMSIS/Include/cmsis_gcc.h ****   \return          0  Function succeeded
 525:Drivers/CMSIS/Include/cmsis_gcc.h ****   \return          1  Function failed
 526:Drivers/CMSIS/Include/cmsis_gcc.h ****  */
 527:Drivers/CMSIS/Include/cmsis_gcc.h **** __STATIC_FORCEINLINE uint32_t __STREXW(uint32_t value, volatile uint32_t *addr)
 528:Drivers/CMSIS/Include/cmsis_gcc.h **** {
 529:Drivers/CMSIS/Include/cmsis_gcc.h ****    uint32_t result;
 530:Drivers/CMSIS/Include/cmsis_gcc.h **** 
 531:Drivers/CMSIS/Include/cmsis_gcc.h ****    __ASM volatile ("strex %0, %2, %1" : "=&r" (result), "=Q" (*addr) : "r" (value) );
 532:Drivers/CMSIS/Include/cmsis_gcc.h ****    return(result);
 533:Drivers/CMSIS/Include/cmsis_gcc.h **** }
 534:Drivers/CMSIS/Include/cmsis_gcc.h **** 
 535:Drivers/CMSIS/Include/cmsis_gcc.h **** 
 536:Drivers/CMSIS/Include/cmsis_gcc.h **** /**
 537:Drivers/CMSIS/Include/cmsis_gcc.h ****   \brief   Remove the exclusive lock
 538:Drivers/CMSIS/Include/cmsis_gcc.h ****   \details Removes the exclusive lock which is created by LDREX.
 539:Drivers/CMSIS/Include/cmsis_gcc.h ****  */
 540:Drivers/CMSIS/Include/cmsis_gcc.h **** __STATIC_FORCEINLINE void __CLREX(void)
 541:Drivers/CMSIS/Include/cmsis_gcc.h **** {
 542:Drivers/CMSIS/Include/cmsis_gcc.h ****   __ASM volatile ("clrex" ::: "memory");
 543:Drivers/CMSIS/Include/cmsis_gcc.h **** }
 544:Drivers/CMSIS/Include/cmsis_gcc.h **** 
 545:Drivers/CMSIS/Include/cmsis_gcc.h **** #endif /* ((defined (__ARM_ARCH_7M__      ) && (__ARM_ARCH_7M__      == 1)) || \
 546:Drivers/CMSIS/Include/cmsis_gcc.h ****            (defined (__ARM_ARCH_7EM__     ) && (__ARM_ARCH_7EM__     == 1)) || \
 547:Drivers/CMSIS/Include/cmsis_gcc.h ****            (defined (__ARM_ARCH_8M_MAIN__ ) && (__ARM_ARCH_8M_MAIN__ == 1)) || \
 548:Drivers/CMSIS/Include/cmsis_gcc.h ****            (defined (__ARM_ARCH_8M_BASE__ ) && (__ARM_ARCH_8M_BASE__ == 1))    ) */
 549:Drivers/CMSIS/Include/cmsis_gcc.h **** 
 550:Drivers/CMSIS/Include/cmsis_gcc.h **** 
 551:Drivers/CMSIS/Include/cmsis_gcc.h **** #if ((defined (__ARM_ARCH_7M__      ) && (__ARM_ARCH_7M__      == 1)) || \
 552:Drivers/CMSIS/Include/cmsis_gcc.h ****      (defined (__ARM_ARCH_7EM__     ) && (__ARM_ARCH_7EM__     == 1)) || \
 553:Drivers/CMSIS/Include/cmsis_gcc.h ****      (defined (__ARM_ARCH_8M_MAIN__ ) && (__ARM_ARCH_8M_MAIN__ == 1))    )
 554:Drivers/CMSIS/Include/cmsis_gcc.h **** /**
ARM GAS  C:\Users\leejo\AppData\Local\Temp\ccB8JMTe.s 			page 28


 555:Drivers/CMSIS/Include/cmsis_gcc.h ****   \brief   Signed Saturate
 556:Drivers/CMSIS/Include/cmsis_gcc.h ****   \details Saturates a signed value.
 557:Drivers/CMSIS/Include/cmsis_gcc.h ****   \param [in]  ARG1  Value to be saturated
 558:Drivers/CMSIS/Include/cmsis_gcc.h ****   \param [in]  ARG2  Bit position to saturate to (1..32)
 559:Drivers/CMSIS/Include/cmsis_gcc.h ****   \return             Saturated value
 560:Drivers/CMSIS/Include/cmsis_gcc.h ****  */
 561:Drivers/CMSIS/Include/cmsis_gcc.h **** #define __SSAT(ARG1, ARG2) \
 562:Drivers/CMSIS/Include/cmsis_gcc.h **** __extension__ \
 563:Drivers/CMSIS/Include/cmsis_gcc.h **** ({                          \
 564:Drivers/CMSIS/Include/cmsis_gcc.h ****   int32_t __RES, __ARG1 = (ARG1); \
 565:Drivers/CMSIS/Include/cmsis_gcc.h ****   __ASM volatile ("ssat %0, %1, %2" : "=r" (__RES) :  "I" (ARG2), "r" (__ARG1) : "cc" ); \
 566:Drivers/CMSIS/Include/cmsis_gcc.h ****   __RES; \
 567:Drivers/CMSIS/Include/cmsis_gcc.h ****  })
 568:Drivers/CMSIS/Include/cmsis_gcc.h **** 
 569:Drivers/CMSIS/Include/cmsis_gcc.h **** 
 570:Drivers/CMSIS/Include/cmsis_gcc.h **** /**
 571:Drivers/CMSIS/Include/cmsis_gcc.h ****   \brief   Unsigned Saturate
 572:Drivers/CMSIS/Include/cmsis_gcc.h ****   \details Saturates an unsigned value.
 573:Drivers/CMSIS/Include/cmsis_gcc.h ****   \param [in]  ARG1  Value to be saturated
 574:Drivers/CMSIS/Include/cmsis_gcc.h ****   \param [in]  ARG2  Bit position to saturate to (0..31)
 575:Drivers/CMSIS/Include/cmsis_gcc.h ****   \return             Saturated value
 576:Drivers/CMSIS/Include/cmsis_gcc.h ****  */
 577:Drivers/CMSIS/Include/cmsis_gcc.h **** #define __USAT(ARG1, ARG2) \
 578:Drivers/CMSIS/Include/cmsis_gcc.h **** __extension__ \
 579:Drivers/CMSIS/Include/cmsis_gcc.h **** ({                          \
 580:Drivers/CMSIS/Include/cmsis_gcc.h ****   uint32_t __RES, __ARG1 = (ARG1); \
 581:Drivers/CMSIS/Include/cmsis_gcc.h ****   __ASM volatile ("usat %0, %1, %2" : "=r" (__RES) :  "I" (ARG2), "r" (__ARG1) : "cc" ); \
 582:Drivers/CMSIS/Include/cmsis_gcc.h ****   __RES; \
 583:Drivers/CMSIS/Include/cmsis_gcc.h ****  })
 584:Drivers/CMSIS/Include/cmsis_gcc.h **** 
 585:Drivers/CMSIS/Include/cmsis_gcc.h **** 
 586:Drivers/CMSIS/Include/cmsis_gcc.h **** /**
 587:Drivers/CMSIS/Include/cmsis_gcc.h ****   \brief   Rotate Right with Extend (32 bit)
 588:Drivers/CMSIS/Include/cmsis_gcc.h ****   \details Moves each bit of a bitstring right by one bit.
 589:Drivers/CMSIS/Include/cmsis_gcc.h ****            The carry input is shifted in at the left end of the bitstring.
 590:Drivers/CMSIS/Include/cmsis_gcc.h ****   \param [in]    value  Value to rotate
 591:Drivers/CMSIS/Include/cmsis_gcc.h ****   \return               Rotated value
 592:Drivers/CMSIS/Include/cmsis_gcc.h ****  */
 593:Drivers/CMSIS/Include/cmsis_gcc.h **** __STATIC_FORCEINLINE uint32_t __RRX(uint32_t value)
 594:Drivers/CMSIS/Include/cmsis_gcc.h **** {
 595:Drivers/CMSIS/Include/cmsis_gcc.h ****   uint32_t result;
 596:Drivers/CMSIS/Include/cmsis_gcc.h **** 
 597:Drivers/CMSIS/Include/cmsis_gcc.h ****   __ASM volatile ("rrx %0, %1" : __CMSIS_GCC_OUT_REG (result) : __CMSIS_GCC_USE_REG (value) );
 598:Drivers/CMSIS/Include/cmsis_gcc.h ****   return(result);
 599:Drivers/CMSIS/Include/cmsis_gcc.h **** }
 600:Drivers/CMSIS/Include/cmsis_gcc.h **** 
 601:Drivers/CMSIS/Include/cmsis_gcc.h **** 
 602:Drivers/CMSIS/Include/cmsis_gcc.h **** /**
 603:Drivers/CMSIS/Include/cmsis_gcc.h ****   \brief   LDRT Unprivileged (8 bit)
 604:Drivers/CMSIS/Include/cmsis_gcc.h ****   \details Executes a Unprivileged LDRT instruction for 8 bit value.
 605:Drivers/CMSIS/Include/cmsis_gcc.h ****   \param [in]    ptr  Pointer to data
 606:Drivers/CMSIS/Include/cmsis_gcc.h ****   \return             value of type uint8_t at (*ptr)
 607:Drivers/CMSIS/Include/cmsis_gcc.h ****  */
 608:Drivers/CMSIS/Include/cmsis_gcc.h **** __STATIC_FORCEINLINE uint8_t __LDRBT(volatile uint8_t *ptr)
 609:Drivers/CMSIS/Include/cmsis_gcc.h **** {
 610:Drivers/CMSIS/Include/cmsis_gcc.h ****     uint32_t result;
 611:Drivers/CMSIS/Include/cmsis_gcc.h **** 
ARM GAS  C:\Users\leejo\AppData\Local\Temp\ccB8JMTe.s 			page 29


 612:Drivers/CMSIS/Include/cmsis_gcc.h **** #if (__GNUC__ > 4) || (__GNUC__ == 4 && __GNUC_MINOR__ >= 8)
 613:Drivers/CMSIS/Include/cmsis_gcc.h ****    __ASM volatile ("ldrbt %0, %1" : "=r" (result) : "Q" (*ptr) );
 614:Drivers/CMSIS/Include/cmsis_gcc.h **** #else
 615:Drivers/CMSIS/Include/cmsis_gcc.h ****     /* Prior to GCC 4.8, "Q" will be expanded to [rx, #0] which is not
 616:Drivers/CMSIS/Include/cmsis_gcc.h ****        accepted by assembler. So has to use following less efficient pattern.
 617:Drivers/CMSIS/Include/cmsis_gcc.h ****     */
 618:Drivers/CMSIS/Include/cmsis_gcc.h ****    __ASM volatile ("ldrbt %0, [%1]" : "=r" (result) : "r" (ptr) : "memory" );
 619:Drivers/CMSIS/Include/cmsis_gcc.h **** #endif
 620:Drivers/CMSIS/Include/cmsis_gcc.h ****    return ((uint8_t) result);    /* Add explicit type cast here */
 621:Drivers/CMSIS/Include/cmsis_gcc.h **** }
 622:Drivers/CMSIS/Include/cmsis_gcc.h **** 
 623:Drivers/CMSIS/Include/cmsis_gcc.h **** 
 624:Drivers/CMSIS/Include/cmsis_gcc.h **** /**
 625:Drivers/CMSIS/Include/cmsis_gcc.h ****   \brief   LDRT Unprivileged (16 bit)
 626:Drivers/CMSIS/Include/cmsis_gcc.h ****   \details Executes a Unprivileged LDRT instruction for 16 bit values.
 627:Drivers/CMSIS/Include/cmsis_gcc.h ****   \param [in]    ptr  Pointer to data
 628:Drivers/CMSIS/Include/cmsis_gcc.h ****   \return        value of type uint16_t at (*ptr)
 629:Drivers/CMSIS/Include/cmsis_gcc.h ****  */
 630:Drivers/CMSIS/Include/cmsis_gcc.h **** __STATIC_FORCEINLINE uint16_t __LDRHT(volatile uint16_t *ptr)
 631:Drivers/CMSIS/Include/cmsis_gcc.h **** {
 632:Drivers/CMSIS/Include/cmsis_gcc.h ****     uint32_t result;
 633:Drivers/CMSIS/Include/cmsis_gcc.h **** 
 634:Drivers/CMSIS/Include/cmsis_gcc.h **** #if (__GNUC__ > 4) || (__GNUC__ == 4 && __GNUC_MINOR__ >= 8)
 635:Drivers/CMSIS/Include/cmsis_gcc.h ****    __ASM volatile ("ldrht %0, %1" : "=r" (result) : "Q" (*ptr) );
 636:Drivers/CMSIS/Include/cmsis_gcc.h **** #else
 637:Drivers/CMSIS/Include/cmsis_gcc.h ****     /* Prior to GCC 4.8, "Q" will be expanded to [rx, #0] which is not
 638:Drivers/CMSIS/Include/cmsis_gcc.h ****        accepted by assembler. So has to use following less efficient pattern.
 639:Drivers/CMSIS/Include/cmsis_gcc.h ****     */
 640:Drivers/CMSIS/Include/cmsis_gcc.h ****    __ASM volatile ("ldrht %0, [%1]" : "=r" (result) : "r" (ptr) : "memory" );
 641:Drivers/CMSIS/Include/cmsis_gcc.h **** #endif
 642:Drivers/CMSIS/Include/cmsis_gcc.h ****    return ((uint16_t) result);    /* Add explicit type cast here */
 643:Drivers/CMSIS/Include/cmsis_gcc.h **** }
 644:Drivers/CMSIS/Include/cmsis_gcc.h **** 
 645:Drivers/CMSIS/Include/cmsis_gcc.h **** 
 646:Drivers/CMSIS/Include/cmsis_gcc.h **** /**
 647:Drivers/CMSIS/Include/cmsis_gcc.h ****   \brief   LDRT Unprivileged (32 bit)
 648:Drivers/CMSIS/Include/cmsis_gcc.h ****   \details Executes a Unprivileged LDRT instruction for 32 bit values.
 649:Drivers/CMSIS/Include/cmsis_gcc.h ****   \param [in]    ptr  Pointer to data
 650:Drivers/CMSIS/Include/cmsis_gcc.h ****   \return        value of type uint32_t at (*ptr)
 651:Drivers/CMSIS/Include/cmsis_gcc.h ****  */
 652:Drivers/CMSIS/Include/cmsis_gcc.h **** __STATIC_FORCEINLINE uint32_t __LDRT(volatile uint32_t *ptr)
 653:Drivers/CMSIS/Include/cmsis_gcc.h **** {
 654:Drivers/CMSIS/Include/cmsis_gcc.h ****     uint32_t result;
 655:Drivers/CMSIS/Include/cmsis_gcc.h **** 
 656:Drivers/CMSIS/Include/cmsis_gcc.h ****    __ASM volatile ("ldrt %0, %1" : "=r" (result) : "Q" (*ptr) );
 657:Drivers/CMSIS/Include/cmsis_gcc.h ****    return(result);
 658:Drivers/CMSIS/Include/cmsis_gcc.h **** }
 659:Drivers/CMSIS/Include/cmsis_gcc.h **** 
 660:Drivers/CMSIS/Include/cmsis_gcc.h **** 
 661:Drivers/CMSIS/Include/cmsis_gcc.h **** /**
 662:Drivers/CMSIS/Include/cmsis_gcc.h ****   \brief   STRT Unprivileged (8 bit)
 663:Drivers/CMSIS/Include/cmsis_gcc.h ****   \details Executes a Unprivileged STRT instruction for 8 bit values.
 664:Drivers/CMSIS/Include/cmsis_gcc.h ****   \param [in]  value  Value to store
 665:Drivers/CMSIS/Include/cmsis_gcc.h ****   \param [in]    ptr  Pointer to location
 666:Drivers/CMSIS/Include/cmsis_gcc.h ****  */
 667:Drivers/CMSIS/Include/cmsis_gcc.h **** __STATIC_FORCEINLINE void __STRBT(uint8_t value, volatile uint8_t *ptr)
 668:Drivers/CMSIS/Include/cmsis_gcc.h **** {
ARM GAS  C:\Users\leejo\AppData\Local\Temp\ccB8JMTe.s 			page 30


 669:Drivers/CMSIS/Include/cmsis_gcc.h ****    __ASM volatile ("strbt %1, %0" : "=Q" (*ptr) : "r" ((uint32_t)value) );
 670:Drivers/CMSIS/Include/cmsis_gcc.h **** }
 671:Drivers/CMSIS/Include/cmsis_gcc.h **** 
 672:Drivers/CMSIS/Include/cmsis_gcc.h **** 
 673:Drivers/CMSIS/Include/cmsis_gcc.h **** /**
 674:Drivers/CMSIS/Include/cmsis_gcc.h ****   \brief   STRT Unprivileged (16 bit)
 675:Drivers/CMSIS/Include/cmsis_gcc.h ****   \details Executes a Unprivileged STRT instruction for 16 bit values.
 676:Drivers/CMSIS/Include/cmsis_gcc.h ****   \param [in]  value  Value to store
 677:Drivers/CMSIS/Include/cmsis_gcc.h ****   \param [in]    ptr  Pointer to location
 678:Drivers/CMSIS/Include/cmsis_gcc.h ****  */
 679:Drivers/CMSIS/Include/cmsis_gcc.h **** __STATIC_FORCEINLINE void __STRHT(uint16_t value, volatile uint16_t *ptr)
 680:Drivers/CMSIS/Include/cmsis_gcc.h **** {
 681:Drivers/CMSIS/Include/cmsis_gcc.h ****    __ASM volatile ("strht %1, %0" : "=Q" (*ptr) : "r" ((uint32_t)value) );
 682:Drivers/CMSIS/Include/cmsis_gcc.h **** }
 683:Drivers/CMSIS/Include/cmsis_gcc.h **** 
 684:Drivers/CMSIS/Include/cmsis_gcc.h **** 
 685:Drivers/CMSIS/Include/cmsis_gcc.h **** /**
 686:Drivers/CMSIS/Include/cmsis_gcc.h ****   \brief   STRT Unprivileged (32 bit)
 687:Drivers/CMSIS/Include/cmsis_gcc.h ****   \details Executes a Unprivileged STRT instruction for 32 bit values.
 688:Drivers/CMSIS/Include/cmsis_gcc.h ****   \param [in]  value  Value to store
 689:Drivers/CMSIS/Include/cmsis_gcc.h ****   \param [in]    ptr  Pointer to location
 690:Drivers/CMSIS/Include/cmsis_gcc.h ****  */
 691:Drivers/CMSIS/Include/cmsis_gcc.h **** __STATIC_FORCEINLINE void __STRT(uint32_t value, volatile uint32_t *ptr)
 692:Drivers/CMSIS/Include/cmsis_gcc.h **** {
 693:Drivers/CMSIS/Include/cmsis_gcc.h ****    __ASM volatile ("strt %1, %0" : "=Q" (*ptr) : "r" (value) );
 694:Drivers/CMSIS/Include/cmsis_gcc.h **** }
 695:Drivers/CMSIS/Include/cmsis_gcc.h **** 
 696:Drivers/CMSIS/Include/cmsis_gcc.h **** #else  /* ((defined (__ARM_ARCH_7M__      ) && (__ARM_ARCH_7M__      == 1)) || \
 697:Drivers/CMSIS/Include/cmsis_gcc.h ****            (defined (__ARM_ARCH_7EM__     ) && (__ARM_ARCH_7EM__     == 1)) || \
 698:Drivers/CMSIS/Include/cmsis_gcc.h ****            (defined (__ARM_ARCH_8M_MAIN__ ) && (__ARM_ARCH_8M_MAIN__ == 1))    ) */
 699:Drivers/CMSIS/Include/cmsis_gcc.h **** 
 700:Drivers/CMSIS/Include/cmsis_gcc.h **** /**
 701:Drivers/CMSIS/Include/cmsis_gcc.h ****   \brief   Signed Saturate
 702:Drivers/CMSIS/Include/cmsis_gcc.h ****   \details Saturates a signed value.
 703:Drivers/CMSIS/Include/cmsis_gcc.h ****   \param [in]  value  Value to be saturated
 704:Drivers/CMSIS/Include/cmsis_gcc.h ****   \param [in]    sat  Bit position to saturate to (1..32)
 705:Drivers/CMSIS/Include/cmsis_gcc.h ****   \return             Saturated value
 706:Drivers/CMSIS/Include/cmsis_gcc.h ****  */
 707:Drivers/CMSIS/Include/cmsis_gcc.h **** __STATIC_FORCEINLINE int32_t __SSAT(int32_t val, uint32_t sat)
 708:Drivers/CMSIS/Include/cmsis_gcc.h **** {
 709:Drivers/CMSIS/Include/cmsis_gcc.h ****   if ((sat >= 1U) && (sat <= 32U))
 710:Drivers/CMSIS/Include/cmsis_gcc.h ****   {
 711:Drivers/CMSIS/Include/cmsis_gcc.h ****     const int32_t max = (int32_t)((1U << (sat - 1U)) - 1U);
 712:Drivers/CMSIS/Include/cmsis_gcc.h ****     const int32_t min = -1 - max ;
 713:Drivers/CMSIS/Include/cmsis_gcc.h ****     if (val > max)
 714:Drivers/CMSIS/Include/cmsis_gcc.h ****     {
 715:Drivers/CMSIS/Include/cmsis_gcc.h ****       return max;
 716:Drivers/CMSIS/Include/cmsis_gcc.h ****     }
 717:Drivers/CMSIS/Include/cmsis_gcc.h ****     else if (val < min)
 718:Drivers/CMSIS/Include/cmsis_gcc.h ****     {
 719:Drivers/CMSIS/Include/cmsis_gcc.h ****       return min;
 720:Drivers/CMSIS/Include/cmsis_gcc.h ****     }
 721:Drivers/CMSIS/Include/cmsis_gcc.h ****   }
 722:Drivers/CMSIS/Include/cmsis_gcc.h ****   return val;
 723:Drivers/CMSIS/Include/cmsis_gcc.h **** }
 724:Drivers/CMSIS/Include/cmsis_gcc.h **** 
 725:Drivers/CMSIS/Include/cmsis_gcc.h **** /**
ARM GAS  C:\Users\leejo\AppData\Local\Temp\ccB8JMTe.s 			page 31


 726:Drivers/CMSIS/Include/cmsis_gcc.h ****   \brief   Unsigned Saturate
 727:Drivers/CMSIS/Include/cmsis_gcc.h ****   \details Saturates an unsigned value.
 728:Drivers/CMSIS/Include/cmsis_gcc.h ****   \param [in]  value  Value to be saturated
 729:Drivers/CMSIS/Include/cmsis_gcc.h ****   \param [in]    sat  Bit position to saturate to (0..31)
 730:Drivers/CMSIS/Include/cmsis_gcc.h ****   \return             Saturated value
 731:Drivers/CMSIS/Include/cmsis_gcc.h ****  */
 732:Drivers/CMSIS/Include/cmsis_gcc.h **** __STATIC_FORCEINLINE uint32_t __USAT(int32_t val, uint32_t sat)
 733:Drivers/CMSIS/Include/cmsis_gcc.h **** {
 734:Drivers/CMSIS/Include/cmsis_gcc.h ****   if (sat <= 31U)
 735:Drivers/CMSIS/Include/cmsis_gcc.h ****   {
 736:Drivers/CMSIS/Include/cmsis_gcc.h ****     const uint32_t max = ((1U << sat) - 1U);
 737:Drivers/CMSIS/Include/cmsis_gcc.h ****     if (val > (int32_t)max)
 738:Drivers/CMSIS/Include/cmsis_gcc.h ****     {
 739:Drivers/CMSIS/Include/cmsis_gcc.h ****       return max;
 740:Drivers/CMSIS/Include/cmsis_gcc.h ****     }
 741:Drivers/CMSIS/Include/cmsis_gcc.h ****     else if (val < 0)
 742:Drivers/CMSIS/Include/cmsis_gcc.h ****     {
 743:Drivers/CMSIS/Include/cmsis_gcc.h ****       return 0U;
 744:Drivers/CMSIS/Include/cmsis_gcc.h ****     }
 745:Drivers/CMSIS/Include/cmsis_gcc.h ****   }
 746:Drivers/CMSIS/Include/cmsis_gcc.h ****   return (uint32_t)val;
 747:Drivers/CMSIS/Include/cmsis_gcc.h **** }
 748:Drivers/CMSIS/Include/cmsis_gcc.h **** 
 749:Drivers/CMSIS/Include/cmsis_gcc.h **** #endif /* ((defined (__ARM_ARCH_7M__      ) && (__ARM_ARCH_7M__      == 1)) || \
 750:Drivers/CMSIS/Include/cmsis_gcc.h ****            (defined (__ARM_ARCH_7EM__     ) && (__ARM_ARCH_7EM__     == 1)) || \
 751:Drivers/CMSIS/Include/cmsis_gcc.h ****            (defined (__ARM_ARCH_8M_MAIN__ ) && (__ARM_ARCH_8M_MAIN__ == 1))    ) */
 752:Drivers/CMSIS/Include/cmsis_gcc.h **** 
 753:Drivers/CMSIS/Include/cmsis_gcc.h **** 
 754:Drivers/CMSIS/Include/cmsis_gcc.h **** #if ((defined (__ARM_ARCH_8M_MAIN__ ) && (__ARM_ARCH_8M_MAIN__ == 1)) || \
 755:Drivers/CMSIS/Include/cmsis_gcc.h ****      (defined (__ARM_ARCH_8M_BASE__ ) && (__ARM_ARCH_8M_BASE__ == 1))    )
 756:Drivers/CMSIS/Include/cmsis_gcc.h **** /**
 757:Drivers/CMSIS/Include/cmsis_gcc.h ****   \brief   Load-Acquire (8 bit)
 758:Drivers/CMSIS/Include/cmsis_gcc.h ****   \details Executes a LDAB instruction for 8 bit value.
 759:Drivers/CMSIS/Include/cmsis_gcc.h ****   \param [in]    ptr  Pointer to data
 760:Drivers/CMSIS/Include/cmsis_gcc.h ****   \return             value of type uint8_t at (*ptr)
 761:Drivers/CMSIS/Include/cmsis_gcc.h ****  */
 762:Drivers/CMSIS/Include/cmsis_gcc.h **** __STATIC_FORCEINLINE uint8_t __LDAB(volatile uint8_t *ptr)
 763:Drivers/CMSIS/Include/cmsis_gcc.h **** {
 764:Drivers/CMSIS/Include/cmsis_gcc.h ****     uint32_t result;
 765:Drivers/CMSIS/Include/cmsis_gcc.h **** 
 766:Drivers/CMSIS/Include/cmsis_gcc.h ****    __ASM volatile ("ldab %0, %1" : "=r" (result) : "Q" (*ptr) : "memory" );
 767:Drivers/CMSIS/Include/cmsis_gcc.h ****    return ((uint8_t) result);
 768:Drivers/CMSIS/Include/cmsis_gcc.h **** }
 769:Drivers/CMSIS/Include/cmsis_gcc.h **** 
 770:Drivers/CMSIS/Include/cmsis_gcc.h **** 
 771:Drivers/CMSIS/Include/cmsis_gcc.h **** /**
 772:Drivers/CMSIS/Include/cmsis_gcc.h ****   \brief   Load-Acquire (16 bit)
 773:Drivers/CMSIS/Include/cmsis_gcc.h ****   \details Executes a LDAH instruction for 16 bit values.
 774:Drivers/CMSIS/Include/cmsis_gcc.h ****   \param [in]    ptr  Pointer to data
 775:Drivers/CMSIS/Include/cmsis_gcc.h ****   \return        value of type uint16_t at (*ptr)
 776:Drivers/CMSIS/Include/cmsis_gcc.h ****  */
 777:Drivers/CMSIS/Include/cmsis_gcc.h **** __STATIC_FORCEINLINE uint16_t __LDAH(volatile uint16_t *ptr)
 778:Drivers/CMSIS/Include/cmsis_gcc.h **** {
 779:Drivers/CMSIS/Include/cmsis_gcc.h ****     uint32_t result;
 780:Drivers/CMSIS/Include/cmsis_gcc.h **** 
 781:Drivers/CMSIS/Include/cmsis_gcc.h ****    __ASM volatile ("ldah %0, %1" : "=r" (result) : "Q" (*ptr) : "memory" );
 782:Drivers/CMSIS/Include/cmsis_gcc.h ****    return ((uint16_t) result);
ARM GAS  C:\Users\leejo\AppData\Local\Temp\ccB8JMTe.s 			page 32


 783:Drivers/CMSIS/Include/cmsis_gcc.h **** }
 784:Drivers/CMSIS/Include/cmsis_gcc.h **** 
 785:Drivers/CMSIS/Include/cmsis_gcc.h **** 
 786:Drivers/CMSIS/Include/cmsis_gcc.h **** /**
 787:Drivers/CMSIS/Include/cmsis_gcc.h ****   \brief   Load-Acquire (32 bit)
 788:Drivers/CMSIS/Include/cmsis_gcc.h ****   \details Executes a LDA instruction for 32 bit values.
 789:Drivers/CMSIS/Include/cmsis_gcc.h ****   \param [in]    ptr  Pointer to data
 790:Drivers/CMSIS/Include/cmsis_gcc.h ****   \return        value of type uint32_t at (*ptr)
 791:Drivers/CMSIS/Include/cmsis_gcc.h ****  */
 792:Drivers/CMSIS/Include/cmsis_gcc.h **** __STATIC_FORCEINLINE uint32_t __LDA(volatile uint32_t *ptr)
 793:Drivers/CMSIS/Include/cmsis_gcc.h **** {
 794:Drivers/CMSIS/Include/cmsis_gcc.h ****     uint32_t result;
 795:Drivers/CMSIS/Include/cmsis_gcc.h **** 
 796:Drivers/CMSIS/Include/cmsis_gcc.h ****    __ASM volatile ("lda %0, %1" : "=r" (result) : "Q" (*ptr) : "memory" );
 797:Drivers/CMSIS/Include/cmsis_gcc.h ****    return(result);
 798:Drivers/CMSIS/Include/cmsis_gcc.h **** }
 799:Drivers/CMSIS/Include/cmsis_gcc.h **** 
 800:Drivers/CMSIS/Include/cmsis_gcc.h **** 
 801:Drivers/CMSIS/Include/cmsis_gcc.h **** /**
 802:Drivers/CMSIS/Include/cmsis_gcc.h ****   \brief   Store-Release (8 bit)
 803:Drivers/CMSIS/Include/cmsis_gcc.h ****   \details Executes a STLB instruction for 8 bit values.
 804:Drivers/CMSIS/Include/cmsis_gcc.h ****   \param [in]  value  Value to store
 805:Drivers/CMSIS/Include/cmsis_gcc.h ****   \param [in]    ptr  Pointer to location
 806:Drivers/CMSIS/Include/cmsis_gcc.h ****  */
 807:Drivers/CMSIS/Include/cmsis_gcc.h **** __STATIC_FORCEINLINE void __STLB(uint8_t value, volatile uint8_t *ptr)
 808:Drivers/CMSIS/Include/cmsis_gcc.h **** {
 809:Drivers/CMSIS/Include/cmsis_gcc.h ****    __ASM volatile ("stlb %1, %0" : "=Q" (*ptr) : "r" ((uint32_t)value) : "memory" );
 810:Drivers/CMSIS/Include/cmsis_gcc.h **** }
 811:Drivers/CMSIS/Include/cmsis_gcc.h **** 
 812:Drivers/CMSIS/Include/cmsis_gcc.h **** 
 813:Drivers/CMSIS/Include/cmsis_gcc.h **** /**
 814:Drivers/CMSIS/Include/cmsis_gcc.h ****   \brief   Store-Release (16 bit)
 815:Drivers/CMSIS/Include/cmsis_gcc.h ****   \details Executes a STLH instruction for 16 bit values.
 816:Drivers/CMSIS/Include/cmsis_gcc.h ****   \param [in]  value  Value to store
 817:Drivers/CMSIS/Include/cmsis_gcc.h ****   \param [in]    ptr  Pointer to location
 818:Drivers/CMSIS/Include/cmsis_gcc.h ****  */
 819:Drivers/CMSIS/Include/cmsis_gcc.h **** __STATIC_FORCEINLINE void __STLH(uint16_t value, volatile uint16_t *ptr)
 820:Drivers/CMSIS/Include/cmsis_gcc.h **** {
 821:Drivers/CMSIS/Include/cmsis_gcc.h ****    __ASM volatile ("stlh %1, %0" : "=Q" (*ptr) : "r" ((uint32_t)value) : "memory" );
 822:Drivers/CMSIS/Include/cmsis_gcc.h **** }
 823:Drivers/CMSIS/Include/cmsis_gcc.h **** 
 824:Drivers/CMSIS/Include/cmsis_gcc.h **** 
 825:Drivers/CMSIS/Include/cmsis_gcc.h **** /**
 826:Drivers/CMSIS/Include/cmsis_gcc.h ****   \brief   Store-Release (32 bit)
 827:Drivers/CMSIS/Include/cmsis_gcc.h ****   \details Executes a STL instruction for 32 bit values.
 828:Drivers/CMSIS/Include/cmsis_gcc.h ****   \param [in]  value  Value to store
 829:Drivers/CMSIS/Include/cmsis_gcc.h ****   \param [in]    ptr  Pointer to location
 830:Drivers/CMSIS/Include/cmsis_gcc.h ****  */
 831:Drivers/CMSIS/Include/cmsis_gcc.h **** __STATIC_FORCEINLINE void __STL(uint32_t value, volatile uint32_t *ptr)
 832:Drivers/CMSIS/Include/cmsis_gcc.h **** {
 833:Drivers/CMSIS/Include/cmsis_gcc.h ****    __ASM volatile ("stl %1, %0" : "=Q" (*ptr) : "r" ((uint32_t)value) : "memory" );
 834:Drivers/CMSIS/Include/cmsis_gcc.h **** }
 835:Drivers/CMSIS/Include/cmsis_gcc.h **** 
 836:Drivers/CMSIS/Include/cmsis_gcc.h **** 
 837:Drivers/CMSIS/Include/cmsis_gcc.h **** /**
 838:Drivers/CMSIS/Include/cmsis_gcc.h ****   \brief   Load-Acquire Exclusive (8 bit)
 839:Drivers/CMSIS/Include/cmsis_gcc.h ****   \details Executes a LDAB exclusive instruction for 8 bit value.
ARM GAS  C:\Users\leejo\AppData\Local\Temp\ccB8JMTe.s 			page 33


 840:Drivers/CMSIS/Include/cmsis_gcc.h ****   \param [in]    ptr  Pointer to data
 841:Drivers/CMSIS/Include/cmsis_gcc.h ****   \return             value of type uint8_t at (*ptr)
 842:Drivers/CMSIS/Include/cmsis_gcc.h ****  */
 843:Drivers/CMSIS/Include/cmsis_gcc.h **** __STATIC_FORCEINLINE uint8_t __LDAEXB(volatile uint8_t *ptr)
 844:Drivers/CMSIS/Include/cmsis_gcc.h **** {
 845:Drivers/CMSIS/Include/cmsis_gcc.h ****     uint32_t result;
 846:Drivers/CMSIS/Include/cmsis_gcc.h **** 
 847:Drivers/CMSIS/Include/cmsis_gcc.h ****    __ASM volatile ("ldaexb %0, %1" : "=r" (result) : "Q" (*ptr) : "memory" );
 848:Drivers/CMSIS/Include/cmsis_gcc.h ****    return ((uint8_t) result);
 849:Drivers/CMSIS/Include/cmsis_gcc.h **** }
 850:Drivers/CMSIS/Include/cmsis_gcc.h **** 
 851:Drivers/CMSIS/Include/cmsis_gcc.h **** 
 852:Drivers/CMSIS/Include/cmsis_gcc.h **** /**
 853:Drivers/CMSIS/Include/cmsis_gcc.h ****   \brief   Load-Acquire Exclusive (16 bit)
 854:Drivers/CMSIS/Include/cmsis_gcc.h ****   \details Executes a LDAH exclusive instruction for 16 bit values.
 855:Drivers/CMSIS/Include/cmsis_gcc.h ****   \param [in]    ptr  Pointer to data
 856:Drivers/CMSIS/Include/cmsis_gcc.h ****   \return        value of type uint16_t at (*ptr)
 857:Drivers/CMSIS/Include/cmsis_gcc.h ****  */
 858:Drivers/CMSIS/Include/cmsis_gcc.h **** __STATIC_FORCEINLINE uint16_t __LDAEXH(volatile uint16_t *ptr)
 859:Drivers/CMSIS/Include/cmsis_gcc.h **** {
 860:Drivers/CMSIS/Include/cmsis_gcc.h ****     uint32_t result;
 861:Drivers/CMSIS/Include/cmsis_gcc.h **** 
 862:Drivers/CMSIS/Include/cmsis_gcc.h ****    __ASM volatile ("ldaexh %0, %1" : "=r" (result) : "Q" (*ptr) : "memory" );
 863:Drivers/CMSIS/Include/cmsis_gcc.h ****    return ((uint16_t) result);
 864:Drivers/CMSIS/Include/cmsis_gcc.h **** }
 865:Drivers/CMSIS/Include/cmsis_gcc.h **** 
 866:Drivers/CMSIS/Include/cmsis_gcc.h **** 
 867:Drivers/CMSIS/Include/cmsis_gcc.h **** /**
 868:Drivers/CMSIS/Include/cmsis_gcc.h ****   \brief   Load-Acquire Exclusive (32 bit)
 869:Drivers/CMSIS/Include/cmsis_gcc.h ****   \details Executes a LDA exclusive instruction for 32 bit values.
 870:Drivers/CMSIS/Include/cmsis_gcc.h ****   \param [in]    ptr  Pointer to data
 871:Drivers/CMSIS/Include/cmsis_gcc.h ****   \return        value of type uint32_t at (*ptr)
 872:Drivers/CMSIS/Include/cmsis_gcc.h ****  */
 873:Drivers/CMSIS/Include/cmsis_gcc.h **** __STATIC_FORCEINLINE uint32_t __LDAEX(volatile uint32_t *ptr)
 874:Drivers/CMSIS/Include/cmsis_gcc.h **** {
 875:Drivers/CMSIS/Include/cmsis_gcc.h ****     uint32_t result;
 876:Drivers/CMSIS/Include/cmsis_gcc.h **** 
 877:Drivers/CMSIS/Include/cmsis_gcc.h ****    __ASM volatile ("ldaex %0, %1" : "=r" (result) : "Q" (*ptr) : "memory" );
 878:Drivers/CMSIS/Include/cmsis_gcc.h ****    return(result);
 879:Drivers/CMSIS/Include/cmsis_gcc.h **** }
 880:Drivers/CMSIS/Include/cmsis_gcc.h **** 
 881:Drivers/CMSIS/Include/cmsis_gcc.h **** 
 882:Drivers/CMSIS/Include/cmsis_gcc.h **** /**
 883:Drivers/CMSIS/Include/cmsis_gcc.h ****   \brief   Store-Release Exclusive (8 bit)
 884:Drivers/CMSIS/Include/cmsis_gcc.h ****   \details Executes a STLB exclusive instruction for 8 bit values.
 885:Drivers/CMSIS/Include/cmsis_gcc.h ****   \param [in]  value  Value to store
 886:Drivers/CMSIS/Include/cmsis_gcc.h ****   \param [in]    ptr  Pointer to location
 887:Drivers/CMSIS/Include/cmsis_gcc.h ****   \return          0  Function succeeded
 888:Drivers/CMSIS/Include/cmsis_gcc.h ****   \return          1  Function failed
 889:Drivers/CMSIS/Include/cmsis_gcc.h ****  */
 890:Drivers/CMSIS/Include/cmsis_gcc.h **** __STATIC_FORCEINLINE uint32_t __STLEXB(uint8_t value, volatile uint8_t *ptr)
 891:Drivers/CMSIS/Include/cmsis_gcc.h **** {
 892:Drivers/CMSIS/Include/cmsis_gcc.h ****    uint32_t result;
 893:Drivers/CMSIS/Include/cmsis_gcc.h **** 
 894:Drivers/CMSIS/Include/cmsis_gcc.h ****    __ASM volatile ("stlexb %0, %2, %1" : "=&r" (result), "=Q" (*ptr) : "r" ((uint32_t)value) : "mem
 895:Drivers/CMSIS/Include/cmsis_gcc.h ****    return(result);
 896:Drivers/CMSIS/Include/cmsis_gcc.h **** }
ARM GAS  C:\Users\leejo\AppData\Local\Temp\ccB8JMTe.s 			page 34


 897:Drivers/CMSIS/Include/cmsis_gcc.h **** 
 898:Drivers/CMSIS/Include/cmsis_gcc.h **** 
 899:Drivers/CMSIS/Include/cmsis_gcc.h **** /**
 900:Drivers/CMSIS/Include/cmsis_gcc.h ****   \brief   Store-Release Exclusive (16 bit)
 901:Drivers/CMSIS/Include/cmsis_gcc.h ****   \details Executes a STLH exclusive instruction for 16 bit values.
 902:Drivers/CMSIS/Include/cmsis_gcc.h ****   \param [in]  value  Value to store
 903:Drivers/CMSIS/Include/cmsis_gcc.h ****   \param [in]    ptr  Pointer to location
 904:Drivers/CMSIS/Include/cmsis_gcc.h ****   \return          0  Function succeeded
 905:Drivers/CMSIS/Include/cmsis_gcc.h ****   \return          1  Function failed
 906:Drivers/CMSIS/Include/cmsis_gcc.h ****  */
 907:Drivers/CMSIS/Include/cmsis_gcc.h **** __STATIC_FORCEINLINE uint32_t __STLEXH(uint16_t value, volatile uint16_t *ptr)
 908:Drivers/CMSIS/Include/cmsis_gcc.h **** {
 909:Drivers/CMSIS/Include/cmsis_gcc.h ****    uint32_t result;
 910:Drivers/CMSIS/Include/cmsis_gcc.h **** 
 911:Drivers/CMSIS/Include/cmsis_gcc.h ****    __ASM volatile ("stlexh %0, %2, %1" : "=&r" (result), "=Q" (*ptr) : "r" ((uint32_t)value) : "mem
 912:Drivers/CMSIS/Include/cmsis_gcc.h ****    return(result);
 913:Drivers/CMSIS/Include/cmsis_gcc.h **** }
 914:Drivers/CMSIS/Include/cmsis_gcc.h **** 
 915:Drivers/CMSIS/Include/cmsis_gcc.h **** 
 916:Drivers/CMSIS/Include/cmsis_gcc.h **** /**
 917:Drivers/CMSIS/Include/cmsis_gcc.h ****   \brief   Store-Release Exclusive (32 bit)
 918:Drivers/CMSIS/Include/cmsis_gcc.h ****   \details Executes a STL exclusive instruction for 32 bit values.
 919:Drivers/CMSIS/Include/cmsis_gcc.h ****   \param [in]  value  Value to store
 920:Drivers/CMSIS/Include/cmsis_gcc.h ****   \param [in]    ptr  Pointer to location
 921:Drivers/CMSIS/Include/cmsis_gcc.h ****   \return          0  Function succeeded
 922:Drivers/CMSIS/Include/cmsis_gcc.h ****   \return          1  Function failed
 923:Drivers/CMSIS/Include/cmsis_gcc.h ****  */
 924:Drivers/CMSIS/Include/cmsis_gcc.h **** __STATIC_FORCEINLINE uint32_t __STLEX(uint32_t value, volatile uint32_t *ptr)
 925:Drivers/CMSIS/Include/cmsis_gcc.h **** {
 926:Drivers/CMSIS/Include/cmsis_gcc.h ****    uint32_t result;
 927:Drivers/CMSIS/Include/cmsis_gcc.h **** 
 928:Drivers/CMSIS/Include/cmsis_gcc.h ****    __ASM volatile ("stlex %0, %2, %1" : "=&r" (result), "=Q" (*ptr) : "r" ((uint32_t)value) : "memo
 929:Drivers/CMSIS/Include/cmsis_gcc.h ****    return(result);
 930:Drivers/CMSIS/Include/cmsis_gcc.h **** }
 931:Drivers/CMSIS/Include/cmsis_gcc.h **** 
 932:Drivers/CMSIS/Include/cmsis_gcc.h **** #endif /* ((defined (__ARM_ARCH_8M_MAIN__ ) && (__ARM_ARCH_8M_MAIN__ == 1)) || \
 933:Drivers/CMSIS/Include/cmsis_gcc.h ****            (defined (__ARM_ARCH_8M_BASE__ ) && (__ARM_ARCH_8M_BASE__ == 1))    ) */
 934:Drivers/CMSIS/Include/cmsis_gcc.h **** 
 935:Drivers/CMSIS/Include/cmsis_gcc.h **** /*@}*/ /* end of group CMSIS_Core_InstructionInterface */
 936:Drivers/CMSIS/Include/cmsis_gcc.h **** 
 937:Drivers/CMSIS/Include/cmsis_gcc.h **** 
 938:Drivers/CMSIS/Include/cmsis_gcc.h **** /* ###########################  Core Function Access  ########################### */
 939:Drivers/CMSIS/Include/cmsis_gcc.h **** /** \ingroup  CMSIS_Core_FunctionInterface
 940:Drivers/CMSIS/Include/cmsis_gcc.h ****     \defgroup CMSIS_Core_RegAccFunctions CMSIS Core Register Access Functions
 941:Drivers/CMSIS/Include/cmsis_gcc.h ****   @{
 942:Drivers/CMSIS/Include/cmsis_gcc.h ****  */
 943:Drivers/CMSIS/Include/cmsis_gcc.h **** 
 944:Drivers/CMSIS/Include/cmsis_gcc.h **** /**
 945:Drivers/CMSIS/Include/cmsis_gcc.h ****   \brief   Enable IRQ Interrupts
 946:Drivers/CMSIS/Include/cmsis_gcc.h ****   \details Enables IRQ interrupts by clearing special-purpose register PRIMASK.
 947:Drivers/CMSIS/Include/cmsis_gcc.h ****            Can only be executed in Privileged modes.
 948:Drivers/CMSIS/Include/cmsis_gcc.h ****  */
 949:Drivers/CMSIS/Include/cmsis_gcc.h **** __STATIC_FORCEINLINE void __enable_irq(void)
 950:Drivers/CMSIS/Include/cmsis_gcc.h **** {
 951:Drivers/CMSIS/Include/cmsis_gcc.h ****   __ASM volatile ("cpsie i" : : : "memory");
 952:Drivers/CMSIS/Include/cmsis_gcc.h **** }
 953:Drivers/CMSIS/Include/cmsis_gcc.h **** 
ARM GAS  C:\Users\leejo\AppData\Local\Temp\ccB8JMTe.s 			page 35


 954:Drivers/CMSIS/Include/cmsis_gcc.h **** 
 955:Drivers/CMSIS/Include/cmsis_gcc.h **** /**
 956:Drivers/CMSIS/Include/cmsis_gcc.h ****   \brief   Disable IRQ Interrupts
 957:Drivers/CMSIS/Include/cmsis_gcc.h ****   \details Disables IRQ interrupts by setting special-purpose register PRIMASK.
 958:Drivers/CMSIS/Include/cmsis_gcc.h ****            Can only be executed in Privileged modes.
 959:Drivers/CMSIS/Include/cmsis_gcc.h ****  */
 960:Drivers/CMSIS/Include/cmsis_gcc.h **** __STATIC_FORCEINLINE void __disable_irq(void)
 449              		.loc 2 960 27 view .LVU136
 450              	.LBB11:
 961:Drivers/CMSIS/Include/cmsis_gcc.h **** {
 962:Drivers/CMSIS/Include/cmsis_gcc.h ****   __ASM volatile ("cpsid i" : : : "memory");
 451              		.loc 2 962 3 view .LVU137
 452              		.syntax unified
 453              	@ 962 "Drivers/CMSIS/Include/cmsis_gcc.h" 1
 454 0000 72B6     		cpsid i
 455              	@ 0 "" 2
 456              		.thumb
 457              		.syntax unified
 458              	.L17:
 459              	.LBE11:
 460              	.LBE10:
 543:Core/Src/main.c ****   while (1)
 461              		.loc 1 543 3 view .LVU138
 544:Core/Src/main.c ****   {
 545:Core/Src/main.c ****   }
 462              		.loc 1 545 3 view .LVU139
 543:Core/Src/main.c ****   while (1)
 463              		.loc 1 543 9 view .LVU140
 464 0002 FEE7     		b	.L17
 465              		.cfi_endproc
 466              	.LFE149:
 468              		.section	.text.MX_I2C1_Init,"ax",%progbits
 469              		.align	1
 470              		.syntax unified
 471              		.thumb
 472              		.thumb_func
 474              	MX_I2C1_Init:
 475              	.LFB141:
 219:Core/Src/main.c **** 
 476              		.loc 1 219 1 view -0
 477              		.cfi_startproc
 478              		@ args = 0, pretend = 0, frame = 0
 479              		@ frame_needed = 0, uses_anonymous_args = 0
 480 0000 08B5     		push	{r3, lr}
 481              		.cfi_def_cfa_offset 8
 482              		.cfi_offset 3, -8
 483              		.cfi_offset 14, -4
 228:Core/Src/main.c ****   hi2c1.Init.ClockSpeed = 100000;
 484              		.loc 1 228 3 view .LVU142
 228:Core/Src/main.c ****   hi2c1.Init.ClockSpeed = 100000;
 485              		.loc 1 228 18 is_stmt 0 view .LVU143
 486 0002 0A48     		ldr	r0, .L22
 487 0004 0A4B     		ldr	r3, .L22+4
 488 0006 0360     		str	r3, [r0]
 229:Core/Src/main.c ****   hi2c1.Init.DutyCycle = I2C_DUTYCYCLE_2;
 489              		.loc 1 229 3 is_stmt 1 view .LVU144
 229:Core/Src/main.c ****   hi2c1.Init.DutyCycle = I2C_DUTYCYCLE_2;
ARM GAS  C:\Users\leejo\AppData\Local\Temp\ccB8JMTe.s 			page 36


 490              		.loc 1 229 25 is_stmt 0 view .LVU145
 491 0008 0A4B     		ldr	r3, .L22+8
 492 000a 4360     		str	r3, [r0, #4]
 230:Core/Src/main.c ****   hi2c1.Init.OwnAddress1 = 0;
 493              		.loc 1 230 3 is_stmt 1 view .LVU146
 230:Core/Src/main.c ****   hi2c1.Init.OwnAddress1 = 0;
 494              		.loc 1 230 24 is_stmt 0 view .LVU147
 495 000c 0023     		movs	r3, #0
 496 000e 8360     		str	r3, [r0, #8]
 231:Core/Src/main.c ****   hi2c1.Init.AddressingMode = I2C_ADDRESSINGMODE_7BIT;
 497              		.loc 1 231 3 is_stmt 1 view .LVU148
 231:Core/Src/main.c ****   hi2c1.Init.AddressingMode = I2C_ADDRESSINGMODE_7BIT;
 498              		.loc 1 231 26 is_stmt 0 view .LVU149
 499 0010 C360     		str	r3, [r0, #12]
 232:Core/Src/main.c ****   hi2c1.Init.DualAddressMode = I2C_DUALADDRESS_DISABLE;
 500              		.loc 1 232 3 is_stmt 1 view .LVU150
 232:Core/Src/main.c ****   hi2c1.Init.DualAddressMode = I2C_DUALADDRESS_DISABLE;
 501              		.loc 1 232 29 is_stmt 0 view .LVU151
 502 0012 4FF48042 		mov	r2, #16384
 503 0016 0261     		str	r2, [r0, #16]
 233:Core/Src/main.c ****   hi2c1.Init.OwnAddress2 = 0;
 504              		.loc 1 233 3 is_stmt 1 view .LVU152
 233:Core/Src/main.c ****   hi2c1.Init.OwnAddress2 = 0;
 505              		.loc 1 233 30 is_stmt 0 view .LVU153
 506 0018 4361     		str	r3, [r0, #20]
 234:Core/Src/main.c ****   hi2c1.Init.GeneralCallMode = I2C_GENERALCALL_DISABLE;
 507              		.loc 1 234 3 is_stmt 1 view .LVU154
 234:Core/Src/main.c ****   hi2c1.Init.GeneralCallMode = I2C_GENERALCALL_DISABLE;
 508              		.loc 1 234 26 is_stmt 0 view .LVU155
 509 001a 8361     		str	r3, [r0, #24]
 235:Core/Src/main.c ****   hi2c1.Init.NoStretchMode = I2C_NOSTRETCH_DISABLE;
 510              		.loc 1 235 3 is_stmt 1 view .LVU156
 235:Core/Src/main.c ****   hi2c1.Init.NoStretchMode = I2C_NOSTRETCH_DISABLE;
 511              		.loc 1 235 30 is_stmt 0 view .LVU157
 512 001c C361     		str	r3, [r0, #28]
 236:Core/Src/main.c ****   if (HAL_I2C_Init(&hi2c1) != HAL_OK)
 513              		.loc 1 236 3 is_stmt 1 view .LVU158
 236:Core/Src/main.c ****   if (HAL_I2C_Init(&hi2c1) != HAL_OK)
 514              		.loc 1 236 28 is_stmt 0 view .LVU159
 515 001e 0362     		str	r3, [r0, #32]
 237:Core/Src/main.c ****   {
 516              		.loc 1 237 3 is_stmt 1 view .LVU160
 237:Core/Src/main.c ****   {
 517              		.loc 1 237 7 is_stmt 0 view .LVU161
 518 0020 FFF7FEFF 		bl	HAL_I2C_Init
 519              	.LVL20:
 237:Core/Src/main.c ****   {
 520              		.loc 1 237 6 discriminator 1 view .LVU162
 521 0024 00B9     		cbnz	r0, .L21
 245:Core/Src/main.c **** 
 522              		.loc 1 245 1 view .LVU163
 523 0026 08BD     		pop	{r3, pc}
 524              	.L21:
 239:Core/Src/main.c ****   }
 525              		.loc 1 239 5 is_stmt 1 view .LVU164
 526 0028 FFF7FEFF 		bl	Error_Handler
 527              	.LVL21:
ARM GAS  C:\Users\leejo\AppData\Local\Temp\ccB8JMTe.s 			page 37


 528              	.L23:
 529              		.align	2
 530              	.L22:
 531 002c 00000000 		.word	hi2c1
 532 0030 00540040 		.word	1073763328
 533 0034 A0860100 		.word	100000
 534              		.cfi_endproc
 535              	.LFE141:
 537              		.section	.text.MX_I2S3_Init,"ax",%progbits
 538              		.align	1
 539              		.syntax unified
 540              		.thumb
 541              		.thumb_func
 543              	MX_I2S3_Init:
 544              	.LFB142:
 253:Core/Src/main.c **** 
 545              		.loc 1 253 1 view -0
 546              		.cfi_startproc
 547              		@ args = 0, pretend = 0, frame = 0
 548              		@ frame_needed = 0, uses_anonymous_args = 0
 549 0000 08B5     		push	{r3, lr}
 550              		.cfi_def_cfa_offset 8
 551              		.cfi_offset 3, -8
 552              		.cfi_offset 14, -4
 262:Core/Src/main.c ****   hi2s3.Init.Mode = I2S_MODE_MASTER_TX;
 553              		.loc 1 262 3 view .LVU166
 262:Core/Src/main.c ****   hi2s3.Init.Mode = I2S_MODE_MASTER_TX;
 554              		.loc 1 262 18 is_stmt 0 view .LVU167
 555 0002 0C48     		ldr	r0, .L28
 556 0004 0C4B     		ldr	r3, .L28+4
 557 0006 0360     		str	r3, [r0]
 263:Core/Src/main.c ****   hi2s3.Init.Standard = I2S_STANDARD_PHILIPS;
 558              		.loc 1 263 3 is_stmt 1 view .LVU168
 263:Core/Src/main.c ****   hi2s3.Init.Standard = I2S_STANDARD_PHILIPS;
 559              		.loc 1 263 19 is_stmt 0 view .LVU169
 560 0008 4FF40072 		mov	r2, #512
 561 000c 4260     		str	r2, [r0, #4]
 264:Core/Src/main.c ****   hi2s3.Init.DataFormat = I2S_DATAFORMAT_24B;
 562              		.loc 1 264 3 is_stmt 1 view .LVU170
 264:Core/Src/main.c ****   hi2s3.Init.DataFormat = I2S_DATAFORMAT_24B;
 563              		.loc 1 264 23 is_stmt 0 view .LVU171
 564 000e 0023     		movs	r3, #0
 565 0010 8360     		str	r3, [r0, #8]
 265:Core/Src/main.c ****   hi2s3.Init.MCLKOutput = I2S_MCLKOUTPUT_ENABLE;
 566              		.loc 1 265 3 is_stmt 1 view .LVU172
 265:Core/Src/main.c ****   hi2s3.Init.MCLKOutput = I2S_MCLKOUTPUT_ENABLE;
 567              		.loc 1 265 25 is_stmt 0 view .LVU173
 568 0012 0321     		movs	r1, #3
 569 0014 C160     		str	r1, [r0, #12]
 266:Core/Src/main.c ****   hi2s3.Init.AudioFreq = I2S_AUDIOFREQ_32K;
 570              		.loc 1 266 3 is_stmt 1 view .LVU174
 266:Core/Src/main.c ****   hi2s3.Init.AudioFreq = I2S_AUDIOFREQ_32K;
 571              		.loc 1 266 25 is_stmt 0 view .LVU175
 572 0016 0261     		str	r2, [r0, #16]
 267:Core/Src/main.c ****   hi2s3.Init.CPOL = I2S_CPOL_LOW;
 573              		.loc 1 267 3 is_stmt 1 view .LVU176
 267:Core/Src/main.c ****   hi2s3.Init.CPOL = I2S_CPOL_LOW;
ARM GAS  C:\Users\leejo\AppData\Local\Temp\ccB8JMTe.s 			page 38


 574              		.loc 1 267 24 is_stmt 0 view .LVU177
 575 0018 4FF4FA42 		mov	r2, #32000
 576 001c 4261     		str	r2, [r0, #20]
 268:Core/Src/main.c ****   hi2s3.Init.ClockSource = I2S_CLOCK_PLL;
 577              		.loc 1 268 3 is_stmt 1 view .LVU178
 268:Core/Src/main.c ****   hi2s3.Init.ClockSource = I2S_CLOCK_PLL;
 578              		.loc 1 268 19 is_stmt 0 view .LVU179
 579 001e 8361     		str	r3, [r0, #24]
 269:Core/Src/main.c ****   hi2s3.Init.FullDuplexMode = I2S_FULLDUPLEXMODE_ENABLE;
 580              		.loc 1 269 3 is_stmt 1 view .LVU180
 269:Core/Src/main.c ****   hi2s3.Init.FullDuplexMode = I2S_FULLDUPLEXMODE_ENABLE;
 581              		.loc 1 269 26 is_stmt 0 view .LVU181
 582 0020 C361     		str	r3, [r0, #28]
 270:Core/Src/main.c ****   if (HAL_I2S_Init(&hi2s3) != HAL_OK)
 583              		.loc 1 270 3 is_stmt 1 view .LVU182
 270:Core/Src/main.c ****   if (HAL_I2S_Init(&hi2s3) != HAL_OK)
 584              		.loc 1 270 29 is_stmt 0 view .LVU183
 585 0022 0123     		movs	r3, #1
 586 0024 0362     		str	r3, [r0, #32]
 271:Core/Src/main.c ****   {
 587              		.loc 1 271 3 is_stmt 1 view .LVU184
 271:Core/Src/main.c ****   {
 588              		.loc 1 271 7 is_stmt 0 view .LVU185
 589 0026 FFF7FEFF 		bl	HAL_I2S_Init
 590              	.LVL22:
 271:Core/Src/main.c ****   {
 591              		.loc 1 271 6 discriminator 1 view .LVU186
 592 002a 00B9     		cbnz	r0, .L27
 279:Core/Src/main.c **** 
 593              		.loc 1 279 1 view .LVU187
 594 002c 08BD     		pop	{r3, pc}
 595              	.L27:
 273:Core/Src/main.c ****   }
 596              		.loc 1 273 5 is_stmt 1 view .LVU188
 597 002e FFF7FEFF 		bl	Error_Handler
 598              	.LVL23:
 599              	.L29:
 600 0032 00BF     		.align	2
 601              	.L28:
 602 0034 00000000 		.word	hi2s3
 603 0038 003C0040 		.word	1073757184
 604              		.cfi_endproc
 605              	.LFE142:
 607              		.section	.text.MX_SPI1_Init,"ax",%progbits
 608              		.align	1
 609              		.syntax unified
 610              		.thumb
 611              		.thumb_func
 613              	MX_SPI1_Init:
 614              	.LFB143:
 287:Core/Src/main.c **** 
 615              		.loc 1 287 1 view -0
 616              		.cfi_startproc
 617              		@ args = 0, pretend = 0, frame = 0
 618              		@ frame_needed = 0, uses_anonymous_args = 0
 619 0000 08B5     		push	{r3, lr}
 620              		.cfi_def_cfa_offset 8
ARM GAS  C:\Users\leejo\AppData\Local\Temp\ccB8JMTe.s 			page 39


 621              		.cfi_offset 3, -8
 622              		.cfi_offset 14, -4
 297:Core/Src/main.c ****   hspi1.Init.Mode = SPI_MODE_MASTER;
 623              		.loc 1 297 3 view .LVU190
 297:Core/Src/main.c ****   hspi1.Init.Mode = SPI_MODE_MASTER;
 624              		.loc 1 297 18 is_stmt 0 view .LVU191
 625 0002 0D48     		ldr	r0, .L34
 626 0004 0D4B     		ldr	r3, .L34+4
 627 0006 0360     		str	r3, [r0]
 298:Core/Src/main.c ****   hspi1.Init.Direction = SPI_DIRECTION_2LINES;
 628              		.loc 1 298 3 is_stmt 1 view .LVU192
 298:Core/Src/main.c ****   hspi1.Init.Direction = SPI_DIRECTION_2LINES;
 629              		.loc 1 298 19 is_stmt 0 view .LVU193
 630 0008 4FF48273 		mov	r3, #260
 631 000c 4360     		str	r3, [r0, #4]
 299:Core/Src/main.c ****   hspi1.Init.DataSize = SPI_DATASIZE_8BIT;
 632              		.loc 1 299 3 is_stmt 1 view .LVU194
 299:Core/Src/main.c ****   hspi1.Init.DataSize = SPI_DATASIZE_8BIT;
 633              		.loc 1 299 24 is_stmt 0 view .LVU195
 634 000e 0023     		movs	r3, #0
 635 0010 8360     		str	r3, [r0, #8]
 300:Core/Src/main.c ****   hspi1.Init.CLKPolarity = SPI_POLARITY_LOW;
 636              		.loc 1 300 3 is_stmt 1 view .LVU196
 300:Core/Src/main.c ****   hspi1.Init.CLKPolarity = SPI_POLARITY_LOW;
 637              		.loc 1 300 23 is_stmt 0 view .LVU197
 638 0012 C360     		str	r3, [r0, #12]
 301:Core/Src/main.c ****   hspi1.Init.CLKPhase = SPI_PHASE_1EDGE;
 639              		.loc 1 301 3 is_stmt 1 view .LVU198
 301:Core/Src/main.c ****   hspi1.Init.CLKPhase = SPI_PHASE_1EDGE;
 640              		.loc 1 301 26 is_stmt 0 view .LVU199
 641 0014 0361     		str	r3, [r0, #16]
 302:Core/Src/main.c ****   hspi1.Init.NSS = SPI_NSS_SOFT;
 642              		.loc 1 302 3 is_stmt 1 view .LVU200
 302:Core/Src/main.c ****   hspi1.Init.NSS = SPI_NSS_SOFT;
 643              		.loc 1 302 23 is_stmt 0 view .LVU201
 644 0016 4361     		str	r3, [r0, #20]
 303:Core/Src/main.c ****   hspi1.Init.BaudRatePrescaler = SPI_BAUDRATEPRESCALER_2;
 645              		.loc 1 303 3 is_stmt 1 view .LVU202
 303:Core/Src/main.c ****   hspi1.Init.BaudRatePrescaler = SPI_BAUDRATEPRESCALER_2;
 646              		.loc 1 303 18 is_stmt 0 view .LVU203
 647 0018 4FF40072 		mov	r2, #512
 648 001c 8261     		str	r2, [r0, #24]
 304:Core/Src/main.c ****   hspi1.Init.FirstBit = SPI_FIRSTBIT_MSB;
 649              		.loc 1 304 3 is_stmt 1 view .LVU204
 304:Core/Src/main.c ****   hspi1.Init.FirstBit = SPI_FIRSTBIT_MSB;
 650              		.loc 1 304 32 is_stmt 0 view .LVU205
 651 001e C361     		str	r3, [r0, #28]
 305:Core/Src/main.c ****   hspi1.Init.TIMode = SPI_TIMODE_DISABLE;
 652              		.loc 1 305 3 is_stmt 1 view .LVU206
 305:Core/Src/main.c ****   hspi1.Init.TIMode = SPI_TIMODE_DISABLE;
 653              		.loc 1 305 23 is_stmt 0 view .LVU207
 654 0020 0362     		str	r3, [r0, #32]
 306:Core/Src/main.c ****   hspi1.Init.CRCCalculation = SPI_CRCCALCULATION_DISABLE;
 655              		.loc 1 306 3 is_stmt 1 view .LVU208
 306:Core/Src/main.c ****   hspi1.Init.CRCCalculation = SPI_CRCCALCULATION_DISABLE;
 656              		.loc 1 306 21 is_stmt 0 view .LVU209
 657 0022 4362     		str	r3, [r0, #36]
ARM GAS  C:\Users\leejo\AppData\Local\Temp\ccB8JMTe.s 			page 40


 307:Core/Src/main.c ****   hspi1.Init.CRCPolynomial = 10;
 658              		.loc 1 307 3 is_stmt 1 view .LVU210
 307:Core/Src/main.c ****   hspi1.Init.CRCPolynomial = 10;
 659              		.loc 1 307 29 is_stmt 0 view .LVU211
 660 0024 8362     		str	r3, [r0, #40]
 308:Core/Src/main.c ****   if (HAL_SPI_Init(&hspi1) != HAL_OK)
 661              		.loc 1 308 3 is_stmt 1 view .LVU212
 308:Core/Src/main.c ****   if (HAL_SPI_Init(&hspi1) != HAL_OK)
 662              		.loc 1 308 28 is_stmt 0 view .LVU213
 663 0026 0A23     		movs	r3, #10
 664 0028 C362     		str	r3, [r0, #44]
 309:Core/Src/main.c ****   {
 665              		.loc 1 309 3 is_stmt 1 view .LVU214
 309:Core/Src/main.c ****   {
 666              		.loc 1 309 7 is_stmt 0 view .LVU215
 667 002a FFF7FEFF 		bl	HAL_SPI_Init
 668              	.LVL24:
 309:Core/Src/main.c ****   {
 669              		.loc 1 309 6 discriminator 1 view .LVU216
 670 002e 00B9     		cbnz	r0, .L33
 317:Core/Src/main.c **** 
 671              		.loc 1 317 1 view .LVU217
 672 0030 08BD     		pop	{r3, pc}
 673              	.L33:
 311:Core/Src/main.c ****   }
 674              		.loc 1 311 5 is_stmt 1 view .LVU218
 675 0032 FFF7FEFF 		bl	Error_Handler
 676              	.LVL25:
 677              	.L35:
 678 0036 00BF     		.align	2
 679              	.L34:
 680 0038 00000000 		.word	hspi1
 681 003c 00300140 		.word	1073819648
 682              		.cfi_endproc
 683              	.LFE143:
 685              		.section	.text.MX_SPI2_Init,"ax",%progbits
 686              		.align	1
 687              		.syntax unified
 688              		.thumb
 689              		.thumb_func
 691              	MX_SPI2_Init:
 692              	.LFB144:
 325:Core/Src/main.c **** 
 693              		.loc 1 325 1 view -0
 694              		.cfi_startproc
 695              		@ args = 0, pretend = 0, frame = 0
 696              		@ frame_needed = 0, uses_anonymous_args = 0
 697 0000 08B5     		push	{r3, lr}
 698              		.cfi_def_cfa_offset 8
 699              		.cfi_offset 3, -8
 700              		.cfi_offset 14, -4
 335:Core/Src/main.c ****   hspi2.Init.Mode = SPI_MODE_SLAVE;
 701              		.loc 1 335 3 view .LVU220
 335:Core/Src/main.c ****   hspi2.Init.Mode = SPI_MODE_SLAVE;
 702              		.loc 1 335 18 is_stmt 0 view .LVU221
 703 0002 0B48     		ldr	r0, .L40
 704 0004 0B4B     		ldr	r3, .L40+4
ARM GAS  C:\Users\leejo\AppData\Local\Temp\ccB8JMTe.s 			page 41


 705 0006 0360     		str	r3, [r0]
 336:Core/Src/main.c ****   hspi2.Init.Direction = SPI_DIRECTION_2LINES;
 706              		.loc 1 336 3 is_stmt 1 view .LVU222
 336:Core/Src/main.c ****   hspi2.Init.Direction = SPI_DIRECTION_2LINES;
 707              		.loc 1 336 19 is_stmt 0 view .LVU223
 708 0008 0023     		movs	r3, #0
 709 000a 4360     		str	r3, [r0, #4]
 337:Core/Src/main.c ****   hspi2.Init.DataSize = SPI_DATASIZE_8BIT;
 710              		.loc 1 337 3 is_stmt 1 view .LVU224
 337:Core/Src/main.c ****   hspi2.Init.DataSize = SPI_DATASIZE_8BIT;
 711              		.loc 1 337 24 is_stmt 0 view .LVU225
 712 000c 8360     		str	r3, [r0, #8]
 338:Core/Src/main.c ****   hspi2.Init.CLKPolarity = SPI_POLARITY_LOW;
 713              		.loc 1 338 3 is_stmt 1 view .LVU226
 338:Core/Src/main.c ****   hspi2.Init.CLKPolarity = SPI_POLARITY_LOW;
 714              		.loc 1 338 23 is_stmt 0 view .LVU227
 715 000e C360     		str	r3, [r0, #12]
 339:Core/Src/main.c ****   hspi2.Init.CLKPhase = SPI_PHASE_1EDGE;
 716              		.loc 1 339 3 is_stmt 1 view .LVU228
 339:Core/Src/main.c ****   hspi2.Init.CLKPhase = SPI_PHASE_1EDGE;
 717              		.loc 1 339 26 is_stmt 0 view .LVU229
 718 0010 0361     		str	r3, [r0, #16]
 340:Core/Src/main.c ****   hspi2.Init.NSS = SPI_NSS_SOFT;
 719              		.loc 1 340 3 is_stmt 1 view .LVU230
 340:Core/Src/main.c ****   hspi2.Init.NSS = SPI_NSS_SOFT;
 720              		.loc 1 340 23 is_stmt 0 view .LVU231
 721 0012 4361     		str	r3, [r0, #20]
 341:Core/Src/main.c ****   hspi2.Init.FirstBit = SPI_FIRSTBIT_MSB;
 722              		.loc 1 341 3 is_stmt 1 view .LVU232
 341:Core/Src/main.c ****   hspi2.Init.FirstBit = SPI_FIRSTBIT_MSB;
 723              		.loc 1 341 18 is_stmt 0 view .LVU233
 724 0014 4FF40072 		mov	r2, #512
 725 0018 8261     		str	r2, [r0, #24]
 342:Core/Src/main.c ****   hspi2.Init.TIMode = SPI_TIMODE_DISABLE;
 726              		.loc 1 342 3 is_stmt 1 view .LVU234
 342:Core/Src/main.c ****   hspi2.Init.TIMode = SPI_TIMODE_DISABLE;
 727              		.loc 1 342 23 is_stmt 0 view .LVU235
 728 001a 0362     		str	r3, [r0, #32]
 343:Core/Src/main.c ****   hspi2.Init.CRCCalculation = SPI_CRCCALCULATION_DISABLE;
 729              		.loc 1 343 3 is_stmt 1 view .LVU236
 343:Core/Src/main.c ****   hspi2.Init.CRCCalculation = SPI_CRCCALCULATION_DISABLE;
 730              		.loc 1 343 21 is_stmt 0 view .LVU237
 731 001c 4362     		str	r3, [r0, #36]
 344:Core/Src/main.c ****   hspi2.Init.CRCPolynomial = 10;
 732              		.loc 1 344 3 is_stmt 1 view .LVU238
 344:Core/Src/main.c ****   hspi2.Init.CRCPolynomial = 10;
 733              		.loc 1 344 29 is_stmt 0 view .LVU239
 734 001e 8362     		str	r3, [r0, #40]
 345:Core/Src/main.c ****   if (HAL_SPI_Init(&hspi2) != HAL_OK)
 735              		.loc 1 345 3 is_stmt 1 view .LVU240
 345:Core/Src/main.c ****   if (HAL_SPI_Init(&hspi2) != HAL_OK)
 736              		.loc 1 345 28 is_stmt 0 view .LVU241
 737 0020 0A23     		movs	r3, #10
 738 0022 C362     		str	r3, [r0, #44]
 346:Core/Src/main.c ****   {
 739              		.loc 1 346 3 is_stmt 1 view .LVU242
 346:Core/Src/main.c ****   {
ARM GAS  C:\Users\leejo\AppData\Local\Temp\ccB8JMTe.s 			page 42


 740              		.loc 1 346 7 is_stmt 0 view .LVU243
 741 0024 FFF7FEFF 		bl	HAL_SPI_Init
 742              	.LVL26:
 346:Core/Src/main.c ****   {
 743              		.loc 1 346 6 discriminator 1 view .LVU244
 744 0028 00B9     		cbnz	r0, .L39
 354:Core/Src/main.c **** 
 745              		.loc 1 354 1 view .LVU245
 746 002a 08BD     		pop	{r3, pc}
 747              	.L39:
 348:Core/Src/main.c ****   }
 748              		.loc 1 348 5 is_stmt 1 view .LVU246
 749 002c FFF7FEFF 		bl	Error_Handler
 750              	.LVL27:
 751              	.L41:
 752              		.align	2
 753              	.L40:
 754 0030 00000000 		.word	hspi2
 755 0034 00380040 		.word	1073756160
 756              		.cfi_endproc
 757              	.LFE144:
 759              		.section	.text.MX_USB_OTG_FS_PCD_Init,"ax",%progbits
 760              		.align	1
 761              		.syntax unified
 762              		.thumb
 763              		.thumb_func
 765              	MX_USB_OTG_FS_PCD_Init:
 766              	.LFB145:
 362:Core/Src/main.c **** 
 767              		.loc 1 362 1 view -0
 768              		.cfi_startproc
 769              		@ args = 0, pretend = 0, frame = 0
 770              		@ frame_needed = 0, uses_anonymous_args = 0
 771 0000 08B5     		push	{r3, lr}
 772              		.cfi_def_cfa_offset 8
 773              		.cfi_offset 3, -8
 774              		.cfi_offset 14, -4
 371:Core/Src/main.c ****   hpcd_USB_OTG_FS.Init.dev_endpoints = 4;
 775              		.loc 1 371 3 view .LVU248
 371:Core/Src/main.c ****   hpcd_USB_OTG_FS.Init.dev_endpoints = 4;
 776              		.loc 1 371 28 is_stmt 0 view .LVU249
 777 0002 0B48     		ldr	r0, .L46
 778 0004 4FF0A043 		mov	r3, #1342177280
 779 0008 0360     		str	r3, [r0]
 372:Core/Src/main.c ****   hpcd_USB_OTG_FS.Init.speed = PCD_SPEED_FULL;
 780              		.loc 1 372 3 is_stmt 1 view .LVU250
 372:Core/Src/main.c ****   hpcd_USB_OTG_FS.Init.speed = PCD_SPEED_FULL;
 781              		.loc 1 372 38 is_stmt 0 view .LVU251
 782 000a 0423     		movs	r3, #4
 783 000c 0371     		strb	r3, [r0, #4]
 373:Core/Src/main.c ****   hpcd_USB_OTG_FS.Init.dma_enable = DISABLE;
 784              		.loc 1 373 3 is_stmt 1 view .LVU252
 373:Core/Src/main.c ****   hpcd_USB_OTG_FS.Init.dma_enable = DISABLE;
 785              		.loc 1 373 30 is_stmt 0 view .LVU253
 786 000e 0222     		movs	r2, #2
 787 0010 C271     		strb	r2, [r0, #7]
 374:Core/Src/main.c ****   hpcd_USB_OTG_FS.Init.phy_itface = PCD_PHY_EMBEDDED;
ARM GAS  C:\Users\leejo\AppData\Local\Temp\ccB8JMTe.s 			page 43


 788              		.loc 1 374 3 is_stmt 1 view .LVU254
 374:Core/Src/main.c ****   hpcd_USB_OTG_FS.Init.phy_itface = PCD_PHY_EMBEDDED;
 789              		.loc 1 374 35 is_stmt 0 view .LVU255
 790 0012 0023     		movs	r3, #0
 791 0014 8371     		strb	r3, [r0, #6]
 375:Core/Src/main.c ****   hpcd_USB_OTG_FS.Init.Sof_enable = DISABLE;
 792              		.loc 1 375 3 is_stmt 1 view .LVU256
 375:Core/Src/main.c ****   hpcd_USB_OTG_FS.Init.Sof_enable = DISABLE;
 793              		.loc 1 375 35 is_stmt 0 view .LVU257
 794 0016 4272     		strb	r2, [r0, #9]
 376:Core/Src/main.c ****   hpcd_USB_OTG_FS.Init.low_power_enable = DISABLE;
 795              		.loc 1 376 3 is_stmt 1 view .LVU258
 376:Core/Src/main.c ****   hpcd_USB_OTG_FS.Init.low_power_enable = DISABLE;
 796              		.loc 1 376 35 is_stmt 0 view .LVU259
 797 0018 8372     		strb	r3, [r0, #10]
 377:Core/Src/main.c ****   hpcd_USB_OTG_FS.Init.lpm_enable = DISABLE;
 798              		.loc 1 377 3 is_stmt 1 view .LVU260
 377:Core/Src/main.c ****   hpcd_USB_OTG_FS.Init.lpm_enable = DISABLE;
 799              		.loc 1 377 41 is_stmt 0 view .LVU261
 800 001a C372     		strb	r3, [r0, #11]
 378:Core/Src/main.c ****   hpcd_USB_OTG_FS.Init.vbus_sensing_enable = DISABLE;
 801              		.loc 1 378 3 is_stmt 1 view .LVU262
 378:Core/Src/main.c ****   hpcd_USB_OTG_FS.Init.vbus_sensing_enable = DISABLE;
 802              		.loc 1 378 35 is_stmt 0 view .LVU263
 803 001c 0373     		strb	r3, [r0, #12]
 379:Core/Src/main.c ****   hpcd_USB_OTG_FS.Init.use_dedicated_ep1 = DISABLE;
 804              		.loc 1 379 3 is_stmt 1 view .LVU264
 379:Core/Src/main.c ****   hpcd_USB_OTG_FS.Init.use_dedicated_ep1 = DISABLE;
 805              		.loc 1 379 44 is_stmt 0 view .LVU265
 806 001e 8373     		strb	r3, [r0, #14]
 380:Core/Src/main.c ****   if (HAL_PCD_Init(&hpcd_USB_OTG_FS) != HAL_OK)
 807              		.loc 1 380 3 is_stmt 1 view .LVU266
 380:Core/Src/main.c ****   if (HAL_PCD_Init(&hpcd_USB_OTG_FS) != HAL_OK)
 808              		.loc 1 380 42 is_stmt 0 view .LVU267
 809 0020 C373     		strb	r3, [r0, #15]
 381:Core/Src/main.c ****   {
 810              		.loc 1 381 3 is_stmt 1 view .LVU268
 381:Core/Src/main.c ****   {
 811              		.loc 1 381 7 is_stmt 0 view .LVU269
 812 0022 FFF7FEFF 		bl	HAL_PCD_Init
 813              	.LVL28:
 381:Core/Src/main.c ****   {
 814              		.loc 1 381 6 discriminator 1 view .LVU270
 815 0026 00B9     		cbnz	r0, .L45
 389:Core/Src/main.c **** 
 816              		.loc 1 389 1 view .LVU271
 817 0028 08BD     		pop	{r3, pc}
 818              	.L45:
 383:Core/Src/main.c ****   }
 819              		.loc 1 383 5 is_stmt 1 view .LVU272
 820 002a FFF7FEFF 		bl	Error_Handler
 821              	.LVL29:
 822              	.L47:
 823 002e 00BF     		.align	2
 824              	.L46:
 825 0030 00000000 		.word	hpcd_USB_OTG_FS
 826              		.cfi_endproc
ARM GAS  C:\Users\leejo\AppData\Local\Temp\ccB8JMTe.s 			page 44


 827              	.LFE145:
 829              		.section	.text.SystemClock_Config,"ax",%progbits
 830              		.align	1
 831              		.global	SystemClock_Config
 832              		.syntax unified
 833              		.thumb
 834              		.thumb_func
 836              	SystemClock_Config:
 837              	.LFB140:
 173:Core/Src/main.c ****   RCC_OscInitTypeDef RCC_OscInitStruct = {0};
 838              		.loc 1 173 1 view -0
 839              		.cfi_startproc
 840              		@ args = 0, pretend = 0, frame = 80
 841              		@ frame_needed = 0, uses_anonymous_args = 0
 842 0000 10B5     		push	{r4, lr}
 843              		.cfi_def_cfa_offset 8
 844              		.cfi_offset 4, -8
 845              		.cfi_offset 14, -4
 846 0002 94B0     		sub	sp, sp, #80
 847              		.cfi_def_cfa_offset 88
 174:Core/Src/main.c ****   RCC_ClkInitTypeDef RCC_ClkInitStruct = {0};
 848              		.loc 1 174 3 view .LVU274
 174:Core/Src/main.c ****   RCC_ClkInitTypeDef RCC_ClkInitStruct = {0};
 849              		.loc 1 174 22 is_stmt 0 view .LVU275
 850 0004 08AC     		add	r4, sp, #32
 851 0006 3022     		movs	r2, #48
 852 0008 0021     		movs	r1, #0
 853 000a 2046     		mov	r0, r4
 854 000c FFF7FEFF 		bl	memset
 855              	.LVL30:
 175:Core/Src/main.c **** 
 856              		.loc 1 175 3 is_stmt 1 view .LVU276
 175:Core/Src/main.c **** 
 857              		.loc 1 175 22 is_stmt 0 view .LVU277
 858 0010 0023     		movs	r3, #0
 859 0012 0393     		str	r3, [sp, #12]
 860 0014 0493     		str	r3, [sp, #16]
 861 0016 0593     		str	r3, [sp, #20]
 862 0018 0693     		str	r3, [sp, #24]
 863 001a 0793     		str	r3, [sp, #28]
 179:Core/Src/main.c ****   __HAL_PWR_VOLTAGESCALING_CONFIG(PWR_REGULATOR_VOLTAGE_SCALE1);
 864              		.loc 1 179 3 is_stmt 1 view .LVU278
 865              	.LBB12:
 179:Core/Src/main.c ****   __HAL_PWR_VOLTAGESCALING_CONFIG(PWR_REGULATOR_VOLTAGE_SCALE1);
 866              		.loc 1 179 3 view .LVU279
 867 001c 0193     		str	r3, [sp, #4]
 179:Core/Src/main.c ****   __HAL_PWR_VOLTAGESCALING_CONFIG(PWR_REGULATOR_VOLTAGE_SCALE1);
 868              		.loc 1 179 3 view .LVU280
 869 001e 204A     		ldr	r2, .L54
 870 0020 116C     		ldr	r1, [r2, #64]
 871 0022 41F08051 		orr	r1, r1, #268435456
 872 0026 1164     		str	r1, [r2, #64]
 179:Core/Src/main.c ****   __HAL_PWR_VOLTAGESCALING_CONFIG(PWR_REGULATOR_VOLTAGE_SCALE1);
 873              		.loc 1 179 3 view .LVU281
 874 0028 126C     		ldr	r2, [r2, #64]
 875 002a 02F08052 		and	r2, r2, #268435456
 876 002e 0192     		str	r2, [sp, #4]
ARM GAS  C:\Users\leejo\AppData\Local\Temp\ccB8JMTe.s 			page 45


 179:Core/Src/main.c ****   __HAL_PWR_VOLTAGESCALING_CONFIG(PWR_REGULATOR_VOLTAGE_SCALE1);
 877              		.loc 1 179 3 view .LVU282
 878 0030 019A     		ldr	r2, [sp, #4]
 879              	.LBE12:
 179:Core/Src/main.c ****   __HAL_PWR_VOLTAGESCALING_CONFIG(PWR_REGULATOR_VOLTAGE_SCALE1);
 880              		.loc 1 179 3 view .LVU283
 180:Core/Src/main.c **** 
 881              		.loc 1 180 3 view .LVU284
 882              	.LBB13:
 180:Core/Src/main.c **** 
 883              		.loc 1 180 3 view .LVU285
 884 0032 0293     		str	r3, [sp, #8]
 180:Core/Src/main.c **** 
 885              		.loc 1 180 3 view .LVU286
 886 0034 1B4B     		ldr	r3, .L54+4
 887 0036 1A68     		ldr	r2, [r3]
 888 0038 42F48042 		orr	r2, r2, #16384
 889 003c 1A60     		str	r2, [r3]
 180:Core/Src/main.c **** 
 890              		.loc 1 180 3 view .LVU287
 891 003e 1B68     		ldr	r3, [r3]
 892 0040 03F48043 		and	r3, r3, #16384
 893 0044 0293     		str	r3, [sp, #8]
 180:Core/Src/main.c **** 
 894              		.loc 1 180 3 view .LVU288
 895 0046 029B     		ldr	r3, [sp, #8]
 896              	.LBE13:
 180:Core/Src/main.c **** 
 897              		.loc 1 180 3 view .LVU289
 185:Core/Src/main.c ****   RCC_OscInitStruct.HSEState = RCC_HSE_ON;
 898              		.loc 1 185 3 view .LVU290
 185:Core/Src/main.c ****   RCC_OscInitStruct.HSEState = RCC_HSE_ON;
 899              		.loc 1 185 36 is_stmt 0 view .LVU291
 900 0048 0123     		movs	r3, #1
 901 004a 0893     		str	r3, [sp, #32]
 186:Core/Src/main.c ****   RCC_OscInitStruct.PLL.PLLState = RCC_PLL_ON;
 902              		.loc 1 186 3 is_stmt 1 view .LVU292
 186:Core/Src/main.c ****   RCC_OscInitStruct.PLL.PLLState = RCC_PLL_ON;
 903              		.loc 1 186 30 is_stmt 0 view .LVU293
 904 004c 4FF48033 		mov	r3, #65536
 905 0050 0993     		str	r3, [sp, #36]
 187:Core/Src/main.c ****   RCC_OscInitStruct.PLL.PLLSource = RCC_PLLSOURCE_HSE;
 906              		.loc 1 187 3 is_stmt 1 view .LVU294
 187:Core/Src/main.c ****   RCC_OscInitStruct.PLL.PLLSource = RCC_PLLSOURCE_HSE;
 907              		.loc 1 187 34 is_stmt 0 view .LVU295
 908 0052 0223     		movs	r3, #2
 909 0054 0E93     		str	r3, [sp, #56]
 188:Core/Src/main.c ****   RCC_OscInitStruct.PLL.PLLM = 8;
 910              		.loc 1 188 3 is_stmt 1 view .LVU296
 188:Core/Src/main.c ****   RCC_OscInitStruct.PLL.PLLM = 8;
 911              		.loc 1 188 35 is_stmt 0 view .LVU297
 912 0056 4FF48002 		mov	r2, #4194304
 913 005a 0F92     		str	r2, [sp, #60]
 189:Core/Src/main.c ****   RCC_OscInitStruct.PLL.PLLN = 336;
 914              		.loc 1 189 3 is_stmt 1 view .LVU298
 189:Core/Src/main.c ****   RCC_OscInitStruct.PLL.PLLN = 336;
 915              		.loc 1 189 30 is_stmt 0 view .LVU299
ARM GAS  C:\Users\leejo\AppData\Local\Temp\ccB8JMTe.s 			page 46


 916 005c 0822     		movs	r2, #8
 917 005e 1092     		str	r2, [sp, #64]
 190:Core/Src/main.c ****   RCC_OscInitStruct.PLL.PLLP = RCC_PLLP_DIV2;
 918              		.loc 1 190 3 is_stmt 1 view .LVU300
 190:Core/Src/main.c ****   RCC_OscInitStruct.PLL.PLLP = RCC_PLLP_DIV2;
 919              		.loc 1 190 30 is_stmt 0 view .LVU301
 920 0060 4FF4A872 		mov	r2, #336
 921 0064 1192     		str	r2, [sp, #68]
 191:Core/Src/main.c ****   RCC_OscInitStruct.PLL.PLLQ = 7;
 922              		.loc 1 191 3 is_stmt 1 view .LVU302
 191:Core/Src/main.c ****   RCC_OscInitStruct.PLL.PLLQ = 7;
 923              		.loc 1 191 30 is_stmt 0 view .LVU303
 924 0066 1293     		str	r3, [sp, #72]
 192:Core/Src/main.c ****   if (HAL_RCC_OscConfig(&RCC_OscInitStruct) != HAL_OK)
 925              		.loc 1 192 3 is_stmt 1 view .LVU304
 192:Core/Src/main.c ****   if (HAL_RCC_OscConfig(&RCC_OscInitStruct) != HAL_OK)
 926              		.loc 1 192 30 is_stmt 0 view .LVU305
 927 0068 0723     		movs	r3, #7
 928 006a 1393     		str	r3, [sp, #76]
 193:Core/Src/main.c ****   {
 929              		.loc 1 193 3 is_stmt 1 view .LVU306
 193:Core/Src/main.c ****   {
 930              		.loc 1 193 7 is_stmt 0 view .LVU307
 931 006c 2046     		mov	r0, r4
 932 006e FFF7FEFF 		bl	HAL_RCC_OscConfig
 933              	.LVL31:
 193:Core/Src/main.c ****   {
 934              		.loc 1 193 6 discriminator 1 view .LVU308
 935 0072 88B9     		cbnz	r0, .L52
 200:Core/Src/main.c ****                               |RCC_CLOCKTYPE_PCLK1|RCC_CLOCKTYPE_PCLK2;
 936              		.loc 1 200 3 is_stmt 1 view .LVU309
 200:Core/Src/main.c ****                               |RCC_CLOCKTYPE_PCLK1|RCC_CLOCKTYPE_PCLK2;
 937              		.loc 1 200 31 is_stmt 0 view .LVU310
 938 0074 0F23     		movs	r3, #15
 939 0076 0393     		str	r3, [sp, #12]
 202:Core/Src/main.c ****   RCC_ClkInitStruct.AHBCLKDivider = RCC_SYSCLK_DIV1;
 940              		.loc 1 202 3 is_stmt 1 view .LVU311
 202:Core/Src/main.c ****   RCC_ClkInitStruct.AHBCLKDivider = RCC_SYSCLK_DIV1;
 941              		.loc 1 202 34 is_stmt 0 view .LVU312
 942 0078 0223     		movs	r3, #2
 943 007a 0493     		str	r3, [sp, #16]
 203:Core/Src/main.c ****   RCC_ClkInitStruct.APB1CLKDivider = RCC_HCLK_DIV4;
 944              		.loc 1 203 3 is_stmt 1 view .LVU313
 203:Core/Src/main.c ****   RCC_ClkInitStruct.APB1CLKDivider = RCC_HCLK_DIV4;
 945              		.loc 1 203 35 is_stmt 0 view .LVU314
 946 007c 0590     		str	r0, [sp, #20]
 204:Core/Src/main.c ****   RCC_ClkInitStruct.APB2CLKDivider = RCC_HCLK_DIV2;
 947              		.loc 1 204 3 is_stmt 1 view .LVU315
 204:Core/Src/main.c ****   RCC_ClkInitStruct.APB2CLKDivider = RCC_HCLK_DIV2;
 948              		.loc 1 204 36 is_stmt 0 view .LVU316
 949 007e 4FF4A053 		mov	r3, #5120
 950 0082 0693     		str	r3, [sp, #24]
 205:Core/Src/main.c **** 
 951              		.loc 1 205 3 is_stmt 1 view .LVU317
 205:Core/Src/main.c **** 
 952              		.loc 1 205 36 is_stmt 0 view .LVU318
 953 0084 4FF48053 		mov	r3, #4096
ARM GAS  C:\Users\leejo\AppData\Local\Temp\ccB8JMTe.s 			page 47


 954 0088 0793     		str	r3, [sp, #28]
 207:Core/Src/main.c ****   {
 955              		.loc 1 207 3 is_stmt 1 view .LVU319
 207:Core/Src/main.c ****   {
 956              		.loc 1 207 7 is_stmt 0 view .LVU320
 957 008a 0521     		movs	r1, #5
 958 008c 03A8     		add	r0, sp, #12
 959 008e FFF7FEFF 		bl	HAL_RCC_ClockConfig
 960              	.LVL32:
 207:Core/Src/main.c ****   {
 961              		.loc 1 207 6 discriminator 1 view .LVU321
 962 0092 18B9     		cbnz	r0, .L53
 211:Core/Src/main.c **** 
 963              		.loc 1 211 1 view .LVU322
 964 0094 14B0     		add	sp, sp, #80
 965              		.cfi_remember_state
 966              		.cfi_def_cfa_offset 8
 967              		@ sp needed
 968 0096 10BD     		pop	{r4, pc}
 969              	.L52:
 970              		.cfi_restore_state
 195:Core/Src/main.c ****   }
 971              		.loc 1 195 5 is_stmt 1 view .LVU323
 972 0098 FFF7FEFF 		bl	Error_Handler
 973              	.LVL33:
 974              	.L53:
 209:Core/Src/main.c ****   }
 975              		.loc 1 209 5 view .LVU324
 976 009c FFF7FEFF 		bl	Error_Handler
 977              	.LVL34:
 978              	.L55:
 979              		.align	2
 980              	.L54:
 981 00a0 00380240 		.word	1073887232
 982 00a4 00700040 		.word	1073770496
 983              		.cfi_endproc
 984              	.LFE140:
 986              		.section	.text.main,"ax",%progbits
 987              		.align	1
 988              		.global	main
 989              		.syntax unified
 990              		.thumb
 991              		.thumb_func
 993              	main:
 994              	.LFB139:
  84:Core/Src/main.c **** 
 995              		.loc 1 84 1 view -0
 996              		.cfi_startproc
 997              		@ Volatile: function does not return.
 998              		@ args = 0, pretend = 0, frame = 112
 999              		@ frame_needed = 0, uses_anonymous_args = 0
 1000 0000 00B5     		push	{lr}
 1001              		.cfi_def_cfa_offset 4
 1002              		.cfi_offset 14, -4
 1003 0002 9DB0     		sub	sp, sp, #116
 1004              		.cfi_def_cfa_offset 120
  93:Core/Src/main.c **** 
ARM GAS  C:\Users\leejo\AppData\Local\Temp\ccB8JMTe.s 			page 48


 1005              		.loc 1 93 3 view .LVU326
 1006 0004 FFF7FEFF 		bl	HAL_Init
 1007              	.LVL35:
  96:Core/Src/main.c ****   GPIO_InitStruct.Pin = GPIO_PIN_12;
 1008              		.loc 1 96 3 view .LVU327
  96:Core/Src/main.c ****   GPIO_InitStruct.Pin = GPIO_PIN_12;
 1009              		.loc 1 96 20 is_stmt 0 view .LVU328
 1010 0008 17A9     		add	r1, sp, #92
 1011 000a 0025     		movs	r5, #0
 1012 000c 1795     		str	r5, [sp, #92]
 1013 000e 4D60     		str	r5, [r1, #4]
 1014 0010 8D60     		str	r5, [r1, #8]
 1015 0012 CD60     		str	r5, [r1, #12]
 1016 0014 0D61     		str	r5, [r1, #16]
  97:Core/Src/main.c ****   GPIO_InitStruct.Mode = GPIO_MODE_OUTPUT_PP; // Push-Pull
 1017              		.loc 1 97 3 is_stmt 1 view .LVU329
  97:Core/Src/main.c ****   GPIO_InitStruct.Mode = GPIO_MODE_OUTPUT_PP; // Push-Pull
 1018              		.loc 1 97 23 is_stmt 0 view .LVU330
 1019 0016 4FF48053 		mov	r3, #4096
 1020 001a 1793     		str	r3, [sp, #92]
  98:Core/Src/main.c ****   GPIO_InitStruct.Pull = GPIO_NOPULL;
 1021              		.loc 1 98 3 is_stmt 1 view .LVU331
  98:Core/Src/main.c ****   GPIO_InitStruct.Pull = GPIO_NOPULL;
 1022              		.loc 1 98 24 is_stmt 0 view .LVU332
 1023 001c 0123     		movs	r3, #1
 1024 001e 1893     		str	r3, [sp, #96]
  99:Core/Src/main.c ****   GPIO_InitStruct.Speed = GPIO_SPEED_FREQ_LOW;
 1025              		.loc 1 99 3 is_stmt 1 view .LVU333
 100:Core/Src/main.c ****   HAL_GPIO_Init(GPIOD, &GPIO_InitStruct);
 1026              		.loc 1 100 3 view .LVU334
 101:Core/Src/main.c ****   /* USER CODE END Init */
 1027              		.loc 1 101 3 view .LVU335
 1028 0020 2748     		ldr	r0, .L59
 1029 0022 FFF7FEFF 		bl	HAL_GPIO_Init
 1030              	.LVL36:
 105:Core/Src/main.c **** 
 1031              		.loc 1 105 3 view .LVU336
 1032 0026 FFF7FEFF 		bl	SystemClock_Config
 1033              	.LVL37:
 112:Core/Src/main.c ****   MX_I2C1_Init();
 1034              		.loc 1 112 3 view .LVU337
 1035 002a FFF7FEFF 		bl	MX_GPIO_Init
 1036              	.LVL38:
 113:Core/Src/main.c ****   MX_I2S3_Init();
 1037              		.loc 1 113 3 view .LVU338
 1038 002e FFF7FEFF 		bl	MX_I2C1_Init
 1039              	.LVL39:
 114:Core/Src/main.c ****   MX_SPI1_Init();
 1040              		.loc 1 114 3 view .LVU339
 1041 0032 FFF7FEFF 		bl	MX_I2S3_Init
 1042              	.LVL40:
 115:Core/Src/main.c ****   MX_SPI2_Init();
 1043              		.loc 1 115 3 view .LVU340
 1044 0036 FFF7FEFF 		bl	MX_SPI1_Init
 1045              	.LVL41:
 116:Core/Src/main.c ****   MX_USB_OTG_FS_PCD_Init();
 1046              		.loc 1 116 3 view .LVU341
ARM GAS  C:\Users\leejo\AppData\Local\Temp\ccB8JMTe.s 			page 49


 1047 003a FFF7FEFF 		bl	MX_SPI2_Init
 1048              	.LVL42:
 117:Core/Src/main.c ****   /* USER CODE BEGIN 2 */
 1049              		.loc 1 117 3 view .LVU342
 1050 003e FFF7FEFF 		bl	MX_USB_OTG_FS_PCD_Init
 1051              	.LVL43:
 123:Core/Src/main.c ****   g_params_mutex = osMutexCreate(osMutex(paramsMutex));
 1052              		.loc 1 123 3 view .LVU343
 1053 0042 1595     		str	r5, [sp, #84]
 1054 0044 1695     		str	r5, [sp, #88]
 124:Core/Src/main.c ****   /* USER CODE END RTOS_MUTEX */
 1055              		.loc 1 124 3 view .LVU344
 124:Core/Src/main.c ****   /* USER CODE END RTOS_MUTEX */
 1056              		.loc 1 124 20 is_stmt 0 view .LVU345
 1057 0046 15A8     		add	r0, sp, #84
 1058 0048 FFF7FEFF 		bl	osMutexCreate
 1059              	.LVL44:
 124:Core/Src/main.c ****   /* USER CODE END RTOS_MUTEX */
 1060              		.loc 1 124 18 discriminator 1 view .LVU346
 1061 004c 1D4B     		ldr	r3, .L59+4
 1062 004e 1860     		str	r0, [r3]
 141:Core/Src/main.c ****   defaultTaskHandle = osThreadCreate(osThread(defaultTask), NULL);
 1063              		.loc 1 141 3 is_stmt 1 view .LVU347
 1064 0050 1D4C     		ldr	r4, .L59+8
 1065 0052 0DF1380C 		add	ip, sp, #56
 1066 0056 A646     		mov	lr, r4
 1067 0058 BEE80F00 		ldmia	lr!, {r0, r1, r2, r3}
 1068 005c ACE80F00 		stmia	ip!, {r0, r1, r2, r3}
 1069 0060 9EE80700 		ldm	lr, {r0, r1, r2}
 1070 0064 8CE80700 		stm	ip, {r0, r1, r2}
 142:Core/Src/main.c **** 
 1071              		.loc 1 142 3 view .LVU348
 142:Core/Src/main.c **** 
 1072              		.loc 1 142 23 is_stmt 0 view .LVU349
 1073 0068 2946     		mov	r1, r5
 1074 006a 0EA8     		add	r0, sp, #56
 1075 006c FFF7FEFF 		bl	osThreadCreate
 1076              	.LVL45:
 142:Core/Src/main.c **** 
 1077              		.loc 1 142 21 discriminator 1 view .LVU350
 1078 0070 164B     		ldr	r3, .L59+12
 1079 0072 1860     		str	r0, [r3]
 145:Core/Src/main.c ****   dspTaskHandle = osThreadCreate(osThread(dspTask), NULL);
 1080              		.loc 1 145 3 is_stmt 1 view .LVU351
 1081 0074 0DF11C0C 		add	ip, sp, #28
 1082 0078 04F11C0E 		add	lr, r4, #28
 1083 007c BEE80F00 		ldmia	lr!, {r0, r1, r2, r3}
 1084 0080 ACE80F00 		stmia	ip!, {r0, r1, r2, r3}
 1085 0084 9EE80700 		ldm	lr, {r0, r1, r2}
 1086 0088 8CE80700 		stm	ip, {r0, r1, r2}
 146:Core/Src/main.c **** 
 1087              		.loc 1 146 3 view .LVU352
 146:Core/Src/main.c **** 
 1088              		.loc 1 146 19 is_stmt 0 view .LVU353
 1089 008c 2946     		mov	r1, r5
 1090 008e 07A8     		add	r0, sp, #28
 1091 0090 FFF7FEFF 		bl	osThreadCreate
ARM GAS  C:\Users\leejo\AppData\Local\Temp\ccB8JMTe.s 			page 50


 1092              	.LVL46:
 146:Core/Src/main.c **** 
 1093              		.loc 1 146 17 discriminator 1 view .LVU354
 1094 0094 0E4B     		ldr	r3, .L59+16
 1095 0096 1860     		str	r0, [r3]
 148:Core/Src/main.c ****   spiTaskHandle = osThreadCreate(osThread(spiTask), NULL);
 1096              		.loc 1 148 3 is_stmt 1 view .LVU355
 1097 0098 EE46     		mov	lr, sp
 1098 009a 04F1380C 		add	ip, r4, #56
 1099 009e BCE80F00 		ldmia	ip!, {r0, r1, r2, r3}
 1100 00a2 AEE80F00 		stmia	lr!, {r0, r1, r2, r3}
 1101 00a6 9CE80700 		ldm	ip, {r0, r1, r2}
 1102 00aa 8EE80700 		stm	lr, {r0, r1, r2}
 149:Core/Src/main.c ****   /* USER CODE END RTOS_THREADS */
 1103              		.loc 1 149 3 view .LVU356
 149:Core/Src/main.c ****   /* USER CODE END RTOS_THREADS */
 1104              		.loc 1 149 19 is_stmt 0 view .LVU357
 1105 00ae 2946     		mov	r1, r5
 1106 00b0 6846     		mov	r0, sp
 1107 00b2 FFF7FEFF 		bl	osThreadCreate
 1108              	.LVL47:
 149:Core/Src/main.c ****   /* USER CODE END RTOS_THREADS */
 1109              		.loc 1 149 17 discriminator 1 view .LVU358
 1110 00b6 074B     		ldr	r3, .L59+20
 1111 00b8 1860     		str	r0, [r3]
 153:Core/Src/main.c **** 
 1112              		.loc 1 153 3 is_stmt 1 view .LVU359
 1113 00ba FFF7FEFF 		bl	osKernelStart
 1114              	.LVL48:
 1115              	.L57:
 159:Core/Src/main.c ****   {
 1116              		.loc 1 159 3 view .LVU360
 164:Core/Src/main.c ****   /* USER CODE END 3 */
 1117              		.loc 1 164 3 view .LVU361
 159:Core/Src/main.c ****   {
 1118              		.loc 1 159 9 view .LVU362
 1119 00be FEE7     		b	.L57
 1120              	.L60:
 1121              		.align	2
 1122              	.L59:
 1123 00c0 000C0240 		.word	1073875968
 1124 00c4 00000000 		.word	g_params_mutex
 1125 00c8 00000000 		.word	.LANCHOR0
 1126 00cc 00000000 		.word	defaultTaskHandle
 1127 00d0 00000000 		.word	dspTaskHandle
 1128 00d4 00000000 		.word	spiTaskHandle
 1129              		.cfi_endproc
 1130              	.LFE139:
 1132              		.section	.rodata.str1.4,"aMS",%progbits,1
 1133              		.align	2
 1134              	.LC4:
 1135 0000 73706954 		.ascii	"spiTask\000"
 1135      61736B00 
 1136              		.align	2
 1137              	.LC2:
 1138 0008 64737054 		.ascii	"dspTask\000"
 1138      61736B00 
ARM GAS  C:\Users\leejo\AppData\Local\Temp\ccB8JMTe.s 			page 51


 1139              		.align	2
 1140              	.LC0:
 1141 0010 64656661 		.ascii	"defaultTask\000"
 1141      756C7454 
 1141      61736B00 
 1142              		.global	spiTaskHandle
 1143              		.section	.bss.spiTaskHandle,"aw",%nobits
 1144              		.align	2
 1147              	spiTaskHandle:
 1148 0000 00000000 		.space	4
 1149              		.global	dspTaskHandle
 1150              		.section	.bss.dspTaskHandle,"aw",%nobits
 1151              		.align	2
 1154              	dspTaskHandle:
 1155 0000 00000000 		.space	4
 1156              		.global	defaultTaskHandle
 1157              		.section	.bss.defaultTaskHandle,"aw",%nobits
 1158              		.align	2
 1161              	defaultTaskHandle:
 1162 0000 00000000 		.space	4
 1163              		.global	hpcd_USB_OTG_FS
 1164              		.section	.bss.hpcd_USB_OTG_FS,"aw",%nobits
 1165              		.align	2
 1168              	hpcd_USB_OTG_FS:
 1169 0000 00000000 		.space	1252
 1169      00000000 
 1169      00000000 
 1169      00000000 
 1169      00000000 
 1170              		.global	hspi2
 1171              		.section	.bss.hspi2,"aw",%nobits
 1172              		.align	2
 1175              	hspi2:
 1176 0000 00000000 		.space	88
 1176      00000000 
 1176      00000000 
 1176      00000000 
 1176      00000000 
 1177              		.global	hspi1
 1178              		.section	.bss.hspi1,"aw",%nobits
 1179              		.align	2
 1182              	hspi1:
 1183 0000 00000000 		.space	88
 1183      00000000 
 1183      00000000 
 1183      00000000 
 1183      00000000 
 1184              		.global	hi2s3
 1185              		.section	.bss.hi2s3,"aw",%nobits
 1186              		.align	2
 1189              	hi2s3:
 1190 0000 00000000 		.space	72
 1190      00000000 
 1190      00000000 
 1190      00000000 
 1190      00000000 
 1191              		.global	hi2c1
ARM GAS  C:\Users\leejo\AppData\Local\Temp\ccB8JMTe.s 			page 52


 1192              		.section	.bss.hi2c1,"aw",%nobits
 1193              		.align	2
 1196              	hi2c1:
 1197 0000 00000000 		.space	84
 1197      00000000 
 1197      00000000 
 1197      00000000 
 1197      00000000 
 1198              		.section	.rodata
 1199              		.align	2
 1200              		.set	.LANCHOR0,. + 0
 1201              	.LC6:
 1202 0000 10000000 		.word	.LC0
 1203 0004 00000000 		.word	StartDefaultTask
 1204 0008 0000     		.short	0
 1205 000a 0000     		.space	2
 1206 000c 00000000 		.word	0
 1207 0010 80000000 		.word	128
 1208 0014 00000000 		.word	0
 1209 0018 00000000 		.word	0
 1210              	.LC7:
 1211 001c 08000000 		.word	.LC2
 1212 0020 00000000 		.word	StartDSPTask
 1213 0024 0300     		.short	3
 1214 0026 0000     		.space	2
 1215 0028 00000000 		.word	0
 1216 002c 00020000 		.word	512
 1217 0030 00000000 		.word	0
 1218 0034 00000000 		.word	0
 1219              	.LC8:
 1220 0038 00000000 		.word	.LC4
 1221 003c 00000000 		.word	StartSPITask
 1222 0040 0100     		.short	1
 1223 0042 0000     		.space	2
 1224 0044 00000000 		.word	0
 1225 0048 00010000 		.word	256
 1226 004c 00000000 		.word	0
 1227 0050 00000000 		.word	0
 1228              		.text
 1229              	.Letext0:
 1230              		.file 3 "C:/Users/leejo/AppData/Roaming/Code/User/globalStorage/bmd.stm32-for-vscode/@xpack-dev-to
 1231              		.file 4 "C:/Users/leejo/AppData/Roaming/Code/User/globalStorage/bmd.stm32-for-vscode/@xpack-dev-to
 1232              		.file 5 "Drivers/CMSIS/Device/ST/STM32F4xx/Include/stm32f407xx.h"
 1233              		.file 6 "Drivers/CMSIS/Device/ST/STM32F4xx/Include/stm32f4xx.h"
 1234              		.file 7 "Drivers/STM32F4xx_HAL_Driver/Inc/stm32f4xx_hal_def.h"
 1235              		.file 8 "Drivers/STM32F4xx_HAL_Driver/Inc/stm32f4xx_hal_rcc_ex.h"
 1236              		.file 9 "Drivers/STM32F4xx_HAL_Driver/Inc/stm32f4xx_hal_rcc.h"
 1237              		.file 10 "Drivers/STM32F4xx_HAL_Driver/Inc/stm32f4xx_hal_gpio.h"
 1238              		.file 11 "Drivers/STM32F4xx_HAL_Driver/Inc/stm32f4xx_hal_dma.h"
 1239              		.file 12 "Drivers/STM32F4xx_HAL_Driver/Inc/stm32f4xx_hal_i2c.h"
 1240              		.file 13 "Drivers/STM32F4xx_HAL_Driver/Inc/stm32f4xx_hal_i2s.h"
 1241              		.file 14 "Drivers/STM32F4xx_HAL_Driver/Inc/stm32f4xx_hal_spi.h"
 1242              		.file 15 "Drivers/STM32F4xx_HAL_Driver/Inc/stm32f4xx_hal_tim.h"
 1243              		.file 16 "Drivers/STM32F4xx_HAL_Driver/Inc/stm32f4xx_ll_usb.h"
 1244              		.file 17 "Drivers/STM32F4xx_HAL_Driver/Inc/stm32f4xx_hal_pcd.h"
 1245              		.file 18 "Middlewares/Third_Party/FreeRTOS/Source/portable/GCC/ARM_CM4F/portmacro.h"
 1246              		.file 19 "Middlewares/Third_Party/FreeRTOS/Source/include/FreeRTOS.h"
ARM GAS  C:\Users\leejo\AppData\Local\Temp\ccB8JMTe.s 			page 53


 1247              		.file 20 "Middlewares/Third_Party/FreeRTOS/Source/include/task.h"
 1248              		.file 21 "Middlewares/Third_Party/FreeRTOS/Source/include/queue.h"
 1249              		.file 22 "Middlewares/Third_Party/FreeRTOS/Source/include/semphr.h"
 1250              		.file 23 "Middlewares/Third_Party/FreeRTOS/Source/CMSIS_RTOS/cmsis_os.h"
 1251              		.file 24 "Core/Inc/dsp_task.h"
 1252              		.file 25 "Core/Inc/spi_task.h"
 1253              		.file 26 "Drivers/STM32F4xx_HAL_Driver/Inc/stm32f4xx_hal.h"
 1254              		.file 27 "<built-in>"
ARM GAS  C:\Users\leejo\AppData\Local\Temp\ccB8JMTe.s 			page 54

