
build/debug/stm32config.elf:     file format elf32-littlearm

Sections:
Idx Name          Size      VMA       LMA       File off  Algn
  0 .isr_vector   00000188  08000000  08000000  00001000  2**0
                  CONTENTS, ALLOC, LOAD, READONLY, DATA
  1 .text         00005c74  08000190  08000190  00001190  2**4
                  CONTENTS, ALLOC, LOAD, READONLY, CODE
  2 .rodata       00000090  08005e04  08005e04  00006e04  2**2
                  CONTENTS, ALLOC, LOAD, READONLY, DATA
  3 .ARM.extab    00000000  08005e94  08005e94  0000701c  2**0
                  CONTENTS, READONLY
  4 .ARM          00000008  08005e94  08005e94  00006e94  2**2
                  CONTENTS, ALLOC, LOAD, READONLY, DATA
  5 .preinit_array 00000000  08005e9c  08005e9c  0000701c  2**0
                  CONTENTS, ALLOC, LOAD, DATA
  6 .init_array   00000004  08005e9c  08005e9c  00006e9c  2**2
                  CONTENTS, ALLOC, LOAD, READONLY, DATA
  7 .fini_array   00000004  08005ea0  08005ea0  00006ea0  2**2
                  CONTENTS, ALLOC, LOAD, READONLY, DATA
  8 .data         0000001c  20000000  08005ea4  00007000  2**2
                  CONTENTS, ALLOC, LOAD, DATA
  9 .ccmram       00000000  10000000  10000000  0000701c  2**0
                  CONTENTS
 10 .bss          00004edc  2000001c  2000001c  0000701c  2**2
                  ALLOC
 11 ._user_heap_stack 00000600  20004ef8  20004ef8  0000701c  2**0
                  ALLOC
 12 .ARM.attributes 00000030  00000000  00000000  0000701c  2**0
                  CONTENTS, READONLY
 13 .comment      00000039  00000000  00000000  0000704c  2**0
                  CONTENTS, READONLY
 14 .debug_info   000233b5  00000000  00000000  00007085  2**0
                  CONTENTS, READONLY, DEBUGGING, OCTETS
 15 .debug_abbrev 0000481e  00000000  00000000  0002a43a  2**0
                  CONTENTS, READONLY, DEBUGGING, OCTETS
 16 .debug_loclists 00011d97  00000000  00000000  0002ec58  2**0
                  CONTENTS, READONLY, DEBUGGING, OCTETS
 17 .debug_aranges 000019a0  00000000  00000000  000409f0  2**3
                  CONTENTS, READONLY, DEBUGGING, OCTETS
 18 .debug_rnglists 000014fd  00000000  00000000  00042390  2**0
                  CONTENTS, READONLY, DEBUGGING, OCTETS
 19 .debug_line   0001efe4  00000000  00000000  0004388d  2**0
                  CONTENTS, READONLY, DEBUGGING, OCTETS
 20 .debug_str    000086d7  00000000  00000000  00062871  2**0
                  CONTENTS, READONLY, DEBUGGING, OCTETS
 21 .debug_frame  0000462c  00000000  00000000  0006af48  2**2
                  CONTENTS, READONLY, DEBUGGING, OCTETS
 22 .debug_line_str 000001df  00000000  00000000  0006f574  2**0
                  CONTENTS, READONLY, DEBUGGING, OCTETS

Disassembly of section .text:

08000190 <__aeabi_uldivmod>:
 8000190:	b953      	cbnz	r3, 80001a8 <__aeabi_uldivmod+0x18>
 8000192:	b94a      	cbnz	r2, 80001a8 <__aeabi_uldivmod+0x18>
 8000194:	2900      	cmp	r1, #0
 8000196:	bf08      	it	eq
 8000198:	2800      	cmpeq	r0, #0
 800019a:	bf1c      	itt	ne
 800019c:	f04f 31ff 	movne.w	r1, #4294967295
 80001a0:	f04f 30ff 	movne.w	r0, #4294967295
 80001a4:	f000 b80c 	b.w	80001c0 <__aeabi_idiv0>
 80001a8:	f1ad 0c08 	sub.w	ip, sp, #8
 80001ac:	e96d ce04 	strd	ip, lr, [sp, #-16]!
 80001b0:	f005 fc8c 	bl	8005acc <__udivmoddi4>
 80001b4:	f8dd e004 	ldr.w	lr, [sp, #4]
 80001b8:	e9dd 2302 	ldrd	r2, r3, [sp, #8]
 80001bc:	b004      	add	sp, #16
 80001be:	4770      	bx	lr

080001c0 <__aeabi_idiv0>:
 80001c0:	4770      	bx	lr
 80001c2:	bf00      	nop

080001c4 <__do_global_dtors_aux>:
 80001c4:	b508      	push	{r3, lr}
 80001c6:	4b06      	ldr	r3, [pc, #24]	@ (80001e0 <__do_global_dtors_aux+0x1c>)
 80001c8:	781a      	ldrb	r2, [r3, #0]
 80001ca:	b93a      	cbnz	r2, 80001dc <__do_global_dtors_aux+0x18>
 80001cc:	4a05      	ldr	r2, [pc, #20]	@ (80001e4 <__do_global_dtors_aux+0x20>)
 80001ce:	b11a      	cbz	r2, 80001d8 <__do_global_dtors_aux+0x14>
 80001d0:	4805      	ldr	r0, [pc, #20]	@ (80001e8 <__do_global_dtors_aux+0x24>)
 80001d2:	f3af 8000 	nop.w
 80001d6:	4b02      	ldr	r3, [pc, #8]	@ (80001e0 <__do_global_dtors_aux+0x1c>)
 80001d8:	2201      	movs	r2, #1
 80001da:	701a      	strb	r2, [r3, #0]
 80001dc:	bd08      	pop	{r3, pc}
 80001de:	bf00      	nop
 80001e0:	2000001c 	.word	0x2000001c
 80001e4:	00000000 	.word	0x00000000
 80001e8:	08005dec 	.word	0x08005dec

080001ec <frame_dummy>:
 80001ec:	b508      	push	{r3, lr}
 80001ee:	4b03      	ldr	r3, [pc, #12]	@ (80001fc <frame_dummy+0x10>)
 80001f0:	b11b      	cbz	r3, 80001fa <frame_dummy+0xe>
 80001f2:	4903      	ldr	r1, [pc, #12]	@ (8000200 <frame_dummy+0x14>)
 80001f4:	4803      	ldr	r0, [pc, #12]	@ (8000204 <frame_dummy+0x18>)
 80001f6:	f3af 8000 	nop.w
 80001fa:	bd08      	pop	{r3, pc}
 80001fc:	00000000 	.word	0x00000000
 8000200:	20000020 	.word	0x20000020
 8000204:	08005dec 	.word	0x08005dec

08000208 <makeFreeRtosPriority>:
/* Convert from CMSIS type osPriority to FreeRTOS priority number */
static unsigned portBASE_TYPE makeFreeRtosPriority (osPriority priority)
{
  unsigned portBASE_TYPE fpriority = tskIDLE_PRIORITY;
  
  if (priority != osPriorityError) {
 8000208:	2884      	cmp	r0, #132	@ 0x84
 800020a:	d001      	beq.n	8000210 <makeFreeRtosPriority+0x8>
    fpriority += (priority - osPriorityIdle);
 800020c:	3003      	adds	r0, #3
 800020e:	4770      	bx	lr
  unsigned portBASE_TYPE fpriority = tskIDLE_PRIORITY;
 8000210:	2000      	movs	r0, #0
  }
  
  return fpriority;
}
 8000212:	4770      	bx	lr

08000214 <inHandlerMode>:
 */
__STATIC_FORCEINLINE uint32_t __get_IPSR(void)
{
  uint32_t result;

  __ASM volatile ("MRS %0, ipsr" : "=r" (result) );
 8000214:	f3ef 8005 	mrs	r0, IPSR

/* Determine whether we are in thread mode or handler mode. */
static int inHandlerMode (void)
{
  return __get_IPSR() != 0;
}
 8000218:	3800      	subs	r0, #0
 800021a:	bf18      	it	ne
 800021c:	2001      	movne	r0, #1
 800021e:	4770      	bx	lr

08000220 <osKernelStart>:
* @param  argument      pointer that is passed to the thread function as start argument.
* @retval status code that indicates the execution status of the function
* @note   MUST REMAIN UNCHANGED: \b osKernelStart shall be consistent in every CMSIS-RTOS.
*/
osStatus osKernelStart (void)
{
 8000220:	b508      	push	{r3, lr}
  vTaskStartScheduler();
 8000222:	f005 f851 	bl	80052c8 <vTaskStartScheduler>
  
  return osOK;
}
 8000226:	2000      	movs	r0, #0
 8000228:	bd08      	pop	{r3, pc}

0800022a <osThreadCreate>:
* @param  argument      pointer that is passed to the thread function as start argument.
* @retval thread ID for reference by other functions or NULL in case of error.
* @note   MUST REMAIN UNCHANGED: \b osThreadCreate shall be consistent in every CMSIS-RTOS.
*/
osThreadId osThreadCreate (const osThreadDef_t *thread_def, void *argument)
{
 800022a:	e92d 41f0 	stmdb	sp!, {r4, r5, r6, r7, r8, lr}
 800022e:	b088      	sub	sp, #32
 8000230:	460f      	mov	r7, r1
  TaskHandle_t handle;
  
#if( configSUPPORT_STATIC_ALLOCATION == 1 ) &&  ( configSUPPORT_DYNAMIC_ALLOCATION == 1 )
  if((thread_def->buffer != NULL) && (thread_def->controlblock != NULL)) {
 8000232:	6944      	ldr	r4, [r0, #20]
 8000234:	b1c4      	cbz	r4, 8000268 <osThreadCreate+0x3e>
 8000236:	4688      	mov	r8, r1
 8000238:	6985      	ldr	r5, [r0, #24]
 800023a:	b1ad      	cbz	r5, 8000268 <osThreadCreate+0x3e>
    handle = xTaskCreateStatic((TaskFunction_t)thread_def->pthread,(const portCHAR *)thread_def->name,
 800023c:	6846      	ldr	r6, [r0, #4]
 800023e:	6807      	ldr	r7, [r0, #0]
 8000240:	6902      	ldr	r2, [r0, #16]
 8000242:	9205      	str	r2, [sp, #20]
              thread_def->stacksize, argument, makeFreeRtosPriority(thread_def->tpriority),
 8000244:	f9b0 0008 	ldrsh.w	r0, [r0, #8]
 8000248:	f7ff ffde 	bl	8000208 <makeFreeRtosPriority>
    handle = xTaskCreateStatic((TaskFunction_t)thread_def->pthread,(const portCHAR *)thread_def->name,
 800024c:	9502      	str	r5, [sp, #8]
 800024e:	9401      	str	r4, [sp, #4]
 8000250:	9000      	str	r0, [sp, #0]
 8000252:	4643      	mov	r3, r8
 8000254:	9a05      	ldr	r2, [sp, #20]
 8000256:	4639      	mov	r1, r7
 8000258:	4630      	mov	r0, r6
 800025a:	f004 ffc3 	bl	80051e4 <xTaskCreateStatic>
 800025e:	9007      	str	r0, [sp, #28]
                   &handle) != pdPASS)  {
    return NULL;
  }     
#endif
  
  return handle;
 8000260:	9807      	ldr	r0, [sp, #28]
}
 8000262:	b008      	add	sp, #32
 8000264:	e8bd 81f0 	ldmia.w	sp!, {r4, r5, r6, r7, r8, pc}
    if (xTaskCreate((TaskFunction_t)thread_def->pthread,(const portCHAR *)thread_def->name,
 8000268:	6844      	ldr	r4, [r0, #4]
 800026a:	6805      	ldr	r5, [r0, #0]
              thread_def->stacksize, argument, makeFreeRtosPriority(thread_def->tpriority),
 800026c:	6906      	ldr	r6, [r0, #16]
 800026e:	f9b0 0008 	ldrsh.w	r0, [r0, #8]
 8000272:	f7ff ffc9 	bl	8000208 <makeFreeRtosPriority>
    if (xTaskCreate((TaskFunction_t)thread_def->pthread,(const portCHAR *)thread_def->name,
 8000276:	ab07      	add	r3, sp, #28
 8000278:	9301      	str	r3, [sp, #4]
 800027a:	9000      	str	r0, [sp, #0]
 800027c:	463b      	mov	r3, r7
 800027e:	b2b2      	uxth	r2, r6
 8000280:	4629      	mov	r1, r5
 8000282:	4620      	mov	r0, r4
 8000284:	f004 ffee 	bl	8005264 <xTaskCreate>
 8000288:	2801      	cmp	r0, #1
 800028a:	d0e9      	beq.n	8000260 <osThreadCreate+0x36>
      return NULL;
 800028c:	2000      	movs	r0, #0
 800028e:	e7e8      	b.n	8000262 <osThreadCreate+0x38>

08000290 <osDelay>:
* @brief   Wait for Timeout (Time Delay)
* @param   millisec      time delay value
* @retval  status code that indicates the execution status of the function.
*/
osStatus osDelay (uint32_t millisec)
{
 8000290:	b508      	push	{r3, lr}
#if INCLUDE_vTaskDelay
  TickType_t ticks = millisec / portTICK_PERIOD_MS;
  
  vTaskDelay(ticks ? ticks : 1);          /* Minimum delay = 1 tick */
 8000292:	b900      	cbnz	r0, 8000296 <osDelay+0x6>
 8000294:	2001      	movs	r0, #1
 8000296:	f005 f967 	bl	8005568 <vTaskDelay>
#else
  (void) millisec;
  
  return osErrorResource;
#endif
}
 800029a:	2000      	movs	r0, #0
 800029c:	bd08      	pop	{r3, pc}

0800029e <osMutexCreate>:
* @param  mutex_def     mutex definition referenced with \ref osMutex.
* @retval  mutex ID for reference by other functions or NULL in case of error.
* @note   MUST REMAIN UNCHANGED: \b osMutexCreate shall be consistent in every CMSIS-RTOS.
*/
osMutexId osMutexCreate (const osMutexDef_t *mutex_def)
{
 800029e:	b508      	push	{r3, lr}
#if ( configUSE_MUTEXES == 1)

#if( configSUPPORT_STATIC_ALLOCATION == 1 ) && ( configSUPPORT_DYNAMIC_ALLOCATION == 1 )

  if (mutex_def->controlblock != NULL) {
 80002a0:	6841      	ldr	r1, [r0, #4]
 80002a2:	b119      	cbz	r1, 80002ac <osMutexCreate+0xe>
    return xSemaphoreCreateMutexStatic( mutex_def->controlblock );
 80002a4:	2001      	movs	r0, #1
 80002a6:	f001 f927 	bl	80014f8 <xQueueCreateMutexStatic>
    return xSemaphoreCreateMutex(); 
#endif
#else
  return NULL;
#endif
}
 80002aa:	bd08      	pop	{r3, pc}
    return xSemaphoreCreateMutex(); 
 80002ac:	2001      	movs	r0, #1
 80002ae:	f001 f918 	bl	80014e2 <xQueueCreateMutex>
 80002b2:	e7fa      	b.n	80002aa <osMutexCreate+0xc>

080002b4 <osMutexWait>:
* @param millisec      timeout value or 0 in case of no time-out.
* @retval  status code that indicates the execution status of the function.
* @note   MUST REMAIN UNCHANGED: \b osMutexWait shall be consistent in every CMSIS-RTOS.
*/
osStatus osMutexWait (osMutexId mutex_id, uint32_t millisec)
{
 80002b4:	b530      	push	{r4, r5, lr}
 80002b6:	b083      	sub	sp, #12
  TickType_t ticks;
  portBASE_TYPE taskWoken = pdFALSE;  
 80002b8:	2300      	movs	r3, #0
 80002ba:	9301      	str	r3, [sp, #4]
  
  
  if (mutex_id == NULL) {
 80002bc:	b310      	cbz	r0, 8000304 <osMutexWait+0x50>
 80002be:	460d      	mov	r5, r1
 80002c0:	4604      	mov	r4, r0
    if (ticks == 0) {
      ticks = 1;
    }
  }
  
  if (inHandlerMode()) {
 80002c2:	f7ff ffa7 	bl	8000214 <inHandlerMode>
 80002c6:	b1a0      	cbz	r0, 80002f2 <osMutexWait+0x3e>
    if (xSemaphoreTakeFromISR(mutex_id, &taskWoken) != pdTRUE) {
 80002c8:	aa01      	add	r2, sp, #4
 80002ca:	2100      	movs	r1, #0
 80002cc:	4620      	mov	r0, r4
 80002ce:	f001 fa52 	bl	8001776 <xQueueReceiveFromISR>
 80002d2:	2801      	cmp	r0, #1
 80002d4:	d118      	bne.n	8000308 <osMutexWait+0x54>
      return osErrorOS;
    }
	portEND_SWITCHING_ISR(taskWoken);
 80002d6:	9b01      	ldr	r3, [sp, #4]
 80002d8:	b1c3      	cbz	r3, 800030c <osMutexWait+0x58>
 80002da:	f04f 23e0 	mov.w	r3, #3758153728	@ 0xe000e000
 80002de:	f04f 5280 	mov.w	r2, #268435456	@ 0x10000000
 80002e2:	f8c3 2d04 	str.w	r2, [r3, #3332]	@ 0xd04
 80002e6:	f3bf 8f4f 	dsb	sy
 80002ea:	f3bf 8f6f 	isb	sy
  } 
  else if (xSemaphoreTake(mutex_id, ticks) != pdTRUE) {
    return osErrorOS;
  }
  
  return osOK;
 80002ee:	2000      	movs	r0, #0
 80002f0:	e006      	b.n	8000300 <osMutexWait+0x4c>
  else if (xSemaphoreTake(mutex_id, ticks) != pdTRUE) {
 80002f2:	4629      	mov	r1, r5
 80002f4:	4620      	mov	r0, r4
 80002f6:	f001 f968 	bl	80015ca <xQueueSemaphoreTake>
 80002fa:	2801      	cmp	r0, #1
 80002fc:	d108      	bne.n	8000310 <osMutexWait+0x5c>
  return osOK;
 80002fe:	2000      	movs	r0, #0
}
 8000300:	b003      	add	sp, #12
 8000302:	bd30      	pop	{r4, r5, pc}
    return osErrorParameter;
 8000304:	2080      	movs	r0, #128	@ 0x80
 8000306:	e7fb      	b.n	8000300 <osMutexWait+0x4c>
      return osErrorOS;
 8000308:	20ff      	movs	r0, #255	@ 0xff
 800030a:	e7f9      	b.n	8000300 <osMutexWait+0x4c>
  return osOK;
 800030c:	4618      	mov	r0, r3
 800030e:	e7f7      	b.n	8000300 <osMutexWait+0x4c>
    return osErrorOS;
 8000310:	20ff      	movs	r0, #255	@ 0xff
 8000312:	e7f5      	b.n	8000300 <osMutexWait+0x4c>

08000314 <osMutexRelease>:
* @param mutex_id      mutex ID obtained by \ref osMutexCreate.
* @retval  status code that indicates the execution status of the function.
* @note   MUST REMAIN UNCHANGED: \b osMutexRelease shall be consistent in every CMSIS-RTOS.
*/
osStatus osMutexRelease (osMutexId mutex_id)
{
 8000314:	b510      	push	{r4, lr}
 8000316:	b082      	sub	sp, #8
 8000318:	4604      	mov	r4, r0
  osStatus result = osOK;
  portBASE_TYPE taskWoken = pdFALSE;
 800031a:	2300      	movs	r3, #0
 800031c:	9301      	str	r3, [sp, #4]
  
  if (inHandlerMode()) {
 800031e:	f7ff ff79 	bl	8000214 <inHandlerMode>
 8000322:	b198      	cbz	r0, 800034c <osMutexRelease+0x38>
    if (xSemaphoreGiveFromISR(mutex_id, &taskWoken) != pdTRUE) {
 8000324:	a901      	add	r1, sp, #4
 8000326:	4620      	mov	r0, r4
 8000328:	f001 f8f5 	bl	8001516 <xQueueGiveFromISR>
 800032c:	2801      	cmp	r0, #1
 800032e:	d11a      	bne.n	8000366 <osMutexRelease+0x52>
      return osErrorOS;
    }
    portEND_SWITCHING_ISR(taskWoken);
 8000330:	9b01      	ldr	r3, [sp, #4]
 8000332:	b1d3      	cbz	r3, 800036a <osMutexRelease+0x56>
 8000334:	f04f 23e0 	mov.w	r3, #3758153728	@ 0xe000e000
 8000338:	f04f 5280 	mov.w	r2, #268435456	@ 0x10000000
 800033c:	f8c3 2d04 	str.w	r2, [r3, #3332]	@ 0xd04
 8000340:	f3bf 8f4f 	dsb	sy
 8000344:	f3bf 8f6f 	isb	sy
  osStatus result = osOK;
 8000348:	2000      	movs	r0, #0
 800034a:	e008      	b.n	800035e <osMutexRelease+0x4a>
  }
  else if (xSemaphoreGive(mutex_id) != pdTRUE) 
 800034c:	4603      	mov	r3, r0
 800034e:	4602      	mov	r2, r0
 8000350:	4601      	mov	r1, r0
 8000352:	4620      	mov	r0, r4
 8000354:	f000 fff5 	bl	8001342 <xQueueGenericSend>
 8000358:	2801      	cmp	r0, #1
 800035a:	d002      	beq.n	8000362 <osMutexRelease+0x4e>
  {
    result = osErrorOS;
 800035c:	20ff      	movs	r0, #255	@ 0xff
  }
  return result;
}
 800035e:	b002      	add	sp, #8
 8000360:	bd10      	pop	{r4, pc}
  osStatus result = osOK;
 8000362:	2000      	movs	r0, #0
 8000364:	e7fb      	b.n	800035e <osMutexRelease+0x4a>
      return osErrorOS;
 8000366:	20ff      	movs	r0, #255	@ 0xff
 8000368:	e7f9      	b.n	800035e <osMutexRelease+0x4a>
  osStatus result = osOK;
 800036a:	4618      	mov	r0, r3
 800036c:	e7f7      	b.n	800035e <osMutexRelease+0x4a>

0800036e <apply_volume>:
static float lpf_R = 0.0f;

/* Scale every sample by vol */
static void apply_volume(uint16_t *buf, float vol)
{
    for (int i = 0; i < AUDIO_BLOCK_SAMPLES * 2; i++) {
 800036e:	2300      	movs	r3, #0
 8000370:	e00e      	b.n	8000390 <apply_volume+0x22>
        float s    = (float)(int16_t)buf[i] * vol;
 8000372:	f930 2013 	ldrsh.w	r2, [r0, r3, lsl #1]
 8000376:	ee07 2a90 	vmov	s15, r2
 800037a:	eef8 7ae7 	vcvt.f32.s32	s15, s15
 800037e:	ee67 7a80 	vmul.f32	s15, s15, s0
        buf[i]     = (uint16_t)(int16_t)s;
 8000382:	eefd 7ae7 	vcvt.s32.f32	s15, s15
 8000386:	ee17 2a90 	vmov	r2, s15
 800038a:	f820 2013 	strh.w	r2, [r0, r3, lsl #1]
    for (int i = 0; i < AUDIO_BLOCK_SAMPLES * 2; i++) {
 800038e:	3301      	adds	r3, #1
 8000390:	2b1f      	cmp	r3, #31
 8000392:	ddee      	ble.n	8000372 <apply_volume+0x4>
    }
}
 8000394:	4770      	bx	lr
	...

08000398 <apply_lpf>:

/* First-order IIR: y[n] = alpha*x[n] + (1-alpha)*y[n-1]
   alpha=1.0 is all-pass; alpha near 0 cuts more high frequencies. */
static void apply_lpf(uint16_t *buf, float alpha)
{
    float beta = 1.0f - alpha;
 8000398:	eeb7 6a00 	vmov.f32	s12, #112	@ 0x3f800000  1.0
 800039c:	ee36 6a40 	vsub.f32	s12, s12, s0
    for (int i = 0; i < AUDIO_BLOCK_SAMPLES * 2; i += 2) {
 80003a0:	2300      	movs	r3, #0
 80003a2:	e02f      	b.n	8000404 <apply_lpf+0x6c>
        float xL = (float)(int16_t)buf[i];
 80003a4:	f930 2013 	ldrsh.w	r2, [r0, r3, lsl #1]
 80003a8:	ee07 2a10 	vmov	s14, r2
 80003ac:	eeb8 7ac7 	vcvt.f32.s32	s14, s14
        float xR = (float)(int16_t)buf[i + 1];
 80003b0:	1c5a      	adds	r2, r3, #1
 80003b2:	f930 1012 	ldrsh.w	r1, [r0, r2, lsl #1]
 80003b6:	ee07 1a90 	vmov	s15, r1
 80003ba:	eef8 7ae7 	vcvt.f32.s32	s15, s15
        lpf_L    = alpha * xL + beta * lpf_L;
 80003be:	ee20 7a07 	vmul.f32	s14, s0, s14
 80003c2:	4912      	ldr	r1, [pc, #72]	@ (800040c <apply_lpf+0x74>)
 80003c4:	edd1 6a00 	vldr	s13, [r1]
 80003c8:	ee66 6a26 	vmul.f32	s13, s12, s13
 80003cc:	ee37 7a26 	vadd.f32	s14, s14, s13
 80003d0:	ed81 7a00 	vstr	s14, [r1]
        lpf_R    = alpha * xR + beta * lpf_R;
 80003d4:	ee60 7a27 	vmul.f32	s15, s0, s15
 80003d8:	490d      	ldr	r1, [pc, #52]	@ (8000410 <apply_lpf+0x78>)
 80003da:	edd1 6a00 	vldr	s13, [r1]
 80003de:	ee66 6a26 	vmul.f32	s13, s12, s13
 80003e2:	ee77 7aa6 	vadd.f32	s15, s15, s13
 80003e6:	edc1 7a00 	vstr	s15, [r1]
        buf[i]     = (uint16_t)(int16_t)lpf_L;
 80003ea:	eebd 7ac7 	vcvt.s32.f32	s14, s14
 80003ee:	ee17 1a10 	vmov	r1, s14
 80003f2:	f820 1013 	strh.w	r1, [r0, r3, lsl #1]
        buf[i + 1] = (uint16_t)(int16_t)lpf_R;
 80003f6:	eefd 7ae7 	vcvt.s32.f32	s15, s15
 80003fa:	ee17 1a90 	vmov	r1, s15
 80003fe:	f820 1012 	strh.w	r1, [r0, r2, lsl #1]
    for (int i = 0; i < AUDIO_BLOCK_SAMPLES * 2; i += 2) {
 8000402:	3302      	adds	r3, #2
 8000404:	2b1f      	cmp	r3, #31
 8000406:	ddcd      	ble.n	80003a4 <apply_lpf+0xc>
    }
}
 8000408:	4770      	bx	lr
 800040a:	bf00      	nop
 800040c:	2000003c 	.word	0x2000003c
 8000410:	20000038 	.word	0x20000038

08000414 <apply_delay>:

/* 70% dry + 30% wet feedback delay using a ring buffer */
static void apply_delay(uint16_t *buf, uint16_t len)
{
 8000414:	e92d 41f0 	stmdb	sp!, {r4, r5, r6, r7, r8, lr}
    if (len == 0) len = 1;
 8000418:	460c      	mov	r4, r1
 800041a:	b901      	cbnz	r1, 800041e <apply_delay+0xa>
 800041c:	2401      	movs	r4, #1

    for (int i = 0; i < AUDIO_BLOCK_SAMPLES * 2; i += 2) {
 800041e:	f04f 0e00 	mov.w	lr, #0
 8000422:	e054      	b.n	80004ce <apply_delay+0xba>
        uint16_t rd    = (delay_wr + DELAY_BUF_SAMPLES - len) % DELAY_BUF_SAMPLES;
 8000424:	4e2c      	ldr	r6, [pc, #176]	@ (80004d8 <apply_delay+0xc4>)
 8000426:	8833      	ldrh	r3, [r6, #0]
 8000428:	f503 7200 	add.w	r2, r3, #512	@ 0x200
 800042c:	1b12      	subs	r2, r2, r4
 800042e:	4251      	negs	r1, r2
 8000430:	f3c2 0208 	ubfx	r2, r2, #0, #9
 8000434:	f3c1 0108 	ubfx	r1, r1, #0, #9
 8000438:	bf58      	it	pl
 800043a:	424a      	negpl	r2, r1
        int16_t  dryL  = (int16_t)buf[i];
 800043c:	f930 c01e 	ldrsh.w	ip, [r0, lr, lsl #1]
        int16_t  dryR  = (int16_t)buf[i + 1];
 8000440:	f10e 0501 	add.w	r5, lr, #1
 8000444:	f930 1015 	ldrsh.w	r1, [r0, r5, lsl #1]
        int16_t  wetL  = delay_line_L[rd];
 8000448:	b292      	uxth	r2, r2
 800044a:	f8df 809c 	ldr.w	r8, [pc, #156]	@ 80004e8 <apply_delay+0xd4>
 800044e:	f938 7012 	ldrsh.w	r7, [r8, r2, lsl #1]
 8000452:	ee06 7a90 	vmov	s13, r7
        int16_t  wetR  = delay_line_R[rd];
 8000456:	4f21      	ldr	r7, [pc, #132]	@ (80004dc <apply_delay+0xc8>)
 8000458:	f937 2012 	ldrsh.w	r2, [r7, r2, lsl #1]
 800045c:	ee07 2a10 	vmov	s14, r2

        delay_line_L[delay_wr] = dryL;
 8000460:	f828 c013 	strh.w	ip, [r8, r3, lsl #1]
        delay_line_R[delay_wr] = dryR;
 8000464:	f827 1013 	strh.w	r1, [r7, r3, lsl #1]
        delay_wr = (delay_wr + 1) % DELAY_BUF_SAMPLES;
 8000468:	3301      	adds	r3, #1
 800046a:	425a      	negs	r2, r3
 800046c:	f3c3 0308 	ubfx	r3, r3, #0, #9
 8000470:	f3c2 0208 	ubfx	r2, r2, #0, #9
 8000474:	bf58      	it	pl
 8000476:	4253      	negpl	r3, r2
 8000478:	8033      	strh	r3, [r6, #0]

        buf[i]     = (uint16_t)(int16_t)(dryL * 0.7f + wetL * 0.3f);
 800047a:	ee07 ca90 	vmov	s15, ip
 800047e:	eef8 7ae7 	vcvt.f32.s32	s15, s15
 8000482:	eddf 5a17 	vldr	s11, [pc, #92]	@ 80004e0 <apply_delay+0xcc>
 8000486:	ee67 7aa5 	vmul.f32	s15, s15, s11
 800048a:	eef8 6ae6 	vcvt.f32.s32	s13, s13
 800048e:	ed9f 6a15 	vldr	s12, [pc, #84]	@ 80004e4 <apply_delay+0xd0>
 8000492:	ee66 6a86 	vmul.f32	s13, s13, s12
 8000496:	ee77 7aa6 	vadd.f32	s15, s15, s13
 800049a:	eefd 7ae7 	vcvt.s32.f32	s15, s15
 800049e:	ee17 3a90 	vmov	r3, s15
 80004a2:	f820 301e 	strh.w	r3, [r0, lr, lsl #1]
        buf[i + 1] = (uint16_t)(int16_t)(dryR * 0.7f + wetR * 0.3f);
 80004a6:	ee07 1a90 	vmov	s15, r1
 80004aa:	eef8 7ae7 	vcvt.f32.s32	s15, s15
 80004ae:	ee67 7aa5 	vmul.f32	s15, s15, s11
 80004b2:	eeb8 7ac7 	vcvt.f32.s32	s14, s14
 80004b6:	ee27 7a06 	vmul.f32	s14, s14, s12
 80004ba:	ee77 7a87 	vadd.f32	s15, s15, s14
 80004be:	eefd 7ae7 	vcvt.s32.f32	s15, s15
 80004c2:	ee17 3a90 	vmov	r3, s15
 80004c6:	f820 3015 	strh.w	r3, [r0, r5, lsl #1]
    for (int i = 0; i < AUDIO_BLOCK_SAMPLES * 2; i += 2) {
 80004ca:	f10e 0e02 	add.w	lr, lr, #2
 80004ce:	f1be 0f1f 	cmp.w	lr, #31
 80004d2:	dda7      	ble.n	8000424 <apply_delay+0x10>
    }
}
 80004d4:	e8bd 81f0 	ldmia.w	sp!, {r4, r5, r6, r7, r8, pc}
 80004d8:	20000040 	.word	0x20000040
 80004dc:	20000044 	.word	0x20000044
 80004e0:	3f333333 	.word	0x3f333333
 80004e4:	3e99999a 	.word	0x3e99999a
 80004e8:	20000444 	.word	0x20000444

080004ec <StartDSPTask>:

/* DSP task: highest priority.
   Receives audio from PCM1808 ADC (I2S RX) and sends processed audio
   to PCM5102A DAC (I2S TX) using full-duplex I2S3. One block of latency. */
void StartDSPTask(void const *argument)
{
 80004ec:	b500      	push	{lr}
 80004ee:	b087      	sub	sp, #28
    AudioEffectParams_t params;

    memset(tx_buf, 0, sizeof(tx_buf));
 80004f0:	2240      	movs	r2, #64	@ 0x40
 80004f2:	2100      	movs	r1, #0
 80004f4:	4824      	ldr	r0, [pc, #144]	@ (8000588 <StartDSPTask+0x9c>)
 80004f6:	f005 faae 	bl	8005a56 <memset>
 80004fa:	e005      	b.n	8000508 <StartDSPTask+0x1c>
        osMutexRelease(g_params_mutex);

        if (params.effects_mask & EFFECT_VOLUME)
            apply_volume(tx_buf, params.volume);

        if (params.effects_mask & EFFECT_LPF)
 80004fc:	f014 0f02 	tst.w	r4, #2
 8000500:	d135      	bne.n	800056e <StartDSPTask+0x82>
            apply_lpf(tx_buf, params.lpf_alpha);

        if (params.effects_mask & EFFECT_DELAY)
 8000502:	f014 0f04 	tst.w	r4, #4
 8000506:	d138      	bne.n	800057a <StartDSPTask+0x8e>
        HAL_I2SEx_TransmitReceive(&hi2s3, tx_buf, rx_buf,
 8000508:	4d20      	ldr	r5, [pc, #128]	@ (800058c <StartDSPTask+0xa0>)
 800050a:	4c1f      	ldr	r4, [pc, #124]	@ (8000588 <StartDSPTask+0x9c>)
 800050c:	f04f 36ff 	mov.w	r6, #4294967295
 8000510:	9600      	str	r6, [sp, #0]
 8000512:	2320      	movs	r3, #32
 8000514:	462a      	mov	r2, r5
 8000516:	4621      	mov	r1, r4
 8000518:	481d      	ldr	r0, [pc, #116]	@ (8000590 <StartDSPTask+0xa4>)
 800051a:	f001 fe65 	bl	80021e8 <HAL_I2SEx_TransmitReceive>
        memcpy(tx_buf, rx_buf, sizeof(rx_buf));
 800051e:	46a4      	mov	ip, r4
 8000520:	462c      	mov	r4, r5
 8000522:	cc0f      	ldmia	r4!, {r0, r1, r2, r3}
 8000524:	e8ac 000f 	stmia.w	ip!, {r0, r1, r2, r3}
 8000528:	cc0f      	ldmia	r4!, {r0, r1, r2, r3}
 800052a:	e8ac 000f 	stmia.w	ip!, {r0, r1, r2, r3}
 800052e:	cc0f      	ldmia	r4!, {r0, r1, r2, r3}
 8000530:	e8ac 000f 	stmia.w	ip!, {r0, r1, r2, r3}
 8000534:	e894 000f 	ldmia.w	r4, {r0, r1, r2, r3}
 8000538:	e88c 000f 	stmia.w	ip, {r0, r1, r2, r3}
        osMutexWait(g_params_mutex, osWaitForever);
 800053c:	4c15      	ldr	r4, [pc, #84]	@ (8000594 <StartDSPTask+0xa8>)
 800053e:	4631      	mov	r1, r6
 8000540:	6820      	ldr	r0, [r4, #0]
 8000542:	f7ff feb7 	bl	80002b4 <osMutexWait>
        params = g_audio_params;
 8000546:	4b14      	ldr	r3, [pc, #80]	@ (8000598 <StartDSPTask+0xac>)
 8000548:	e893 0007 	ldmia.w	r3, {r0, r1, r2}
 800054c:	ab06      	add	r3, sp, #24
 800054e:	e903 0007 	stmdb	r3, {r0, r1, r2}
        osMutexRelease(g_params_mutex);
 8000552:	6820      	ldr	r0, [r4, #0]
 8000554:	f7ff fede 	bl	8000314 <osMutexRelease>
        if (params.effects_mask & EFFECT_VOLUME)
 8000558:	f89d 4016 	ldrb.w	r4, [sp, #22]
 800055c:	f014 0f01 	tst.w	r4, #1
 8000560:	d0cc      	beq.n	80004fc <StartDSPTask+0x10>
            apply_volume(tx_buf, params.volume);
 8000562:	ed9d 0a03 	vldr	s0, [sp, #12]
 8000566:	4808      	ldr	r0, [pc, #32]	@ (8000588 <StartDSPTask+0x9c>)
 8000568:	f7ff ff01 	bl	800036e <apply_volume>
 800056c:	e7c6      	b.n	80004fc <StartDSPTask+0x10>
            apply_lpf(tx_buf, params.lpf_alpha);
 800056e:	ed9d 0a04 	vldr	s0, [sp, #16]
 8000572:	4805      	ldr	r0, [pc, #20]	@ (8000588 <StartDSPTask+0x9c>)
 8000574:	f7ff ff10 	bl	8000398 <apply_lpf>
 8000578:	e7c3      	b.n	8000502 <StartDSPTask+0x16>
            apply_delay(tx_buf, params.delay_samples);
 800057a:	f8bd 1014 	ldrh.w	r1, [sp, #20]
 800057e:	4802      	ldr	r0, [pc, #8]	@ (8000588 <StartDSPTask+0x9c>)
 8000580:	f7ff ff48 	bl	8000414 <apply_delay>
 8000584:	e7c0      	b.n	8000508 <StartDSPTask+0x1c>
 8000586:	bf00      	nop
 8000588:	20000844 	.word	0x20000844
 800058c:	20000884 	.word	0x20000884
 8000590:	20004cdc 	.word	0x20004cdc
 8000594:	200008c4 	.word	0x200008c4
 8000598:	20000000 	.word	0x20000000

0800059c <vApplicationGetIdleTaskMemory>:
static StaticTask_t xIdleTaskTCBBuffer;
static StackType_t xIdleStack[configMINIMAL_STACK_SIZE];

void vApplicationGetIdleTaskMemory( StaticTask_t **ppxIdleTaskTCBBuffer, StackType_t **ppxIdleTaskStackBuffer, uint32_t *pulIdleTaskStackSize )
{
  *ppxIdleTaskTCBBuffer = &xIdleTaskTCBBuffer;
 800059c:	4b03      	ldr	r3, [pc, #12]	@ (80005ac <vApplicationGetIdleTaskMemory+0x10>)
 800059e:	6003      	str	r3, [r0, #0]
  *ppxIdleTaskStackBuffer = &xIdleStack[0];
 80005a0:	4b03      	ldr	r3, [pc, #12]	@ (80005b0 <vApplicationGetIdleTaskMemory+0x14>)
 80005a2:	600b      	str	r3, [r1, #0]
  *pulIdleTaskStackSize = configMINIMAL_STACK_SIZE;
 80005a4:	2380      	movs	r3, #128	@ 0x80
 80005a6:	6013      	str	r3, [r2, #0]
  /* place for user code */
}
 80005a8:	4770      	bx	lr
 80005aa:	bf00      	nop
 80005ac:	20000ac8 	.word	0x20000ac8
 80005b0:	200008c8 	.word	0x200008c8

080005b4 <prvHeapInit>:
uint8_t *pucAlignedHeap;
size_t uxAddress;
size_t xTotalHeapSize = configTOTAL_HEAP_SIZE;

	/* Ensure the heap starts on a correctly aligned boundary. */
	uxAddress = ( size_t ) ucHeap;
 80005b4:	4a12      	ldr	r2, [pc, #72]	@ (8000600 <prvHeapInit+0x4c>)

	if( ( uxAddress & portBYTE_ALIGNMENT_MASK ) != 0 )
 80005b6:	f012 0f07 	tst.w	r2, #7
 80005ba:	d01e      	beq.n	80005fa <prvHeapInit+0x46>
	{
		uxAddress += ( portBYTE_ALIGNMENT - 1 );
 80005bc:	1dd1      	adds	r1, r2, #7
		uxAddress &= ~( ( size_t ) portBYTE_ALIGNMENT_MASK );
 80005be:	f021 0107 	bic.w	r1, r1, #7
		xTotalHeapSize -= uxAddress - ( size_t ) ucHeap;
 80005c2:	f5c1 5370 	rsb	r3, r1, #15360	@ 0x3c00
 80005c6:	4413      	add	r3, r2
		uxAddress &= ~( ( size_t ) portBYTE_ALIGNMENT_MASK );
 80005c8:	460a      	mov	r2, r1

	pucAlignedHeap = ( uint8_t * ) uxAddress;

	/* xStart is used to hold a pointer to the first item in the list of free
	blocks.  The void cast is used to prevent compiler warnings. */
	xStart.pxNextFreeBlock = ( void * ) pucAlignedHeap;
 80005ca:	480e      	ldr	r0, [pc, #56]	@ (8000604 <prvHeapInit+0x50>)
 80005cc:	6002      	str	r2, [r0, #0]
	xStart.xBlockSize = ( size_t ) 0;
 80005ce:	2100      	movs	r1, #0
 80005d0:	6041      	str	r1, [r0, #4]

	/* pxEnd is used to mark the end of the list of free blocks and is inserted
	at the end of the heap space. */
	uxAddress = ( ( size_t ) pucAlignedHeap ) + xTotalHeapSize;
 80005d2:	4413      	add	r3, r2
	uxAddress -= xHeapStructSize;
 80005d4:	3b08      	subs	r3, #8
	uxAddress &= ~( ( size_t ) portBYTE_ALIGNMENT_MASK );
 80005d6:	f023 0307 	bic.w	r3, r3, #7
	pxEnd = ( void * ) uxAddress;
 80005da:	480b      	ldr	r0, [pc, #44]	@ (8000608 <prvHeapInit+0x54>)
 80005dc:	6003      	str	r3, [r0, #0]
	pxEnd->xBlockSize = 0;
 80005de:	6059      	str	r1, [r3, #4]
	pxEnd->pxNextFreeBlock = NULL;
 80005e0:	6019      	str	r1, [r3, #0]

	/* To start with there is a single free block that is sized to take up the
	entire heap space, minus the space taken by pxEnd. */
	pxFirstFreeBlock = ( void * ) pucAlignedHeap;
	pxFirstFreeBlock->xBlockSize = uxAddress - ( size_t ) pxFirstFreeBlock;
 80005e2:	1a99      	subs	r1, r3, r2
 80005e4:	6051      	str	r1, [r2, #4]
	pxFirstFreeBlock->pxNextFreeBlock = pxEnd;
 80005e6:	6013      	str	r3, [r2, #0]

	/* Only one block exists - and it covers the entire usable heap space. */
	xMinimumEverFreeBytesRemaining = pxFirstFreeBlock->xBlockSize;
 80005e8:	4b08      	ldr	r3, [pc, #32]	@ (800060c <prvHeapInit+0x58>)
 80005ea:	6019      	str	r1, [r3, #0]
	xFreeBytesRemaining = pxFirstFreeBlock->xBlockSize;
 80005ec:	4b08      	ldr	r3, [pc, #32]	@ (8000610 <prvHeapInit+0x5c>)
 80005ee:	6019      	str	r1, [r3, #0]

	/* Work out the position of the top bit in a size_t variable. */
	xBlockAllocatedBit = ( ( size_t ) 1 ) << ( ( sizeof( size_t ) * heapBITS_PER_BYTE ) - 1 );
 80005f0:	4b08      	ldr	r3, [pc, #32]	@ (8000614 <prvHeapInit+0x60>)
 80005f2:	f04f 4200 	mov.w	r2, #2147483648	@ 0x80000000
 80005f6:	601a      	str	r2, [r3, #0]
}
 80005f8:	4770      	bx	lr
size_t xTotalHeapSize = configTOTAL_HEAP_SIZE;
 80005fa:	f44f 5370 	mov.w	r3, #15360	@ 0x3c00
 80005fe:	e7e4      	b.n	80005ca <prvHeapInit+0x16>
 8000600:	20000b3c 	.word	0x20000b3c
 8000604:	20000b34 	.word	0x20000b34
 8000608:	20000b30 	.word	0x20000b30
 800060c:	20000b28 	.word	0x20000b28
 8000610:	20000b2c 	.word	0x20000b2c
 8000614:	20000b1c 	.word	0x20000b1c

08000618 <prvInsertBlockIntoFreeList>:
BlockLink_t *pxIterator;
uint8_t *puc;

	/* Iterate through the list until a block is found that has a higher address
	than the block being inserted. */
	for( pxIterator = &xStart; pxIterator->pxNextFreeBlock < pxBlockToInsert; pxIterator = pxIterator->pxNextFreeBlock )
 8000618:	4b14      	ldr	r3, [pc, #80]	@ (800066c <prvInsertBlockIntoFreeList+0x54>)
 800061a:	461a      	mov	r2, r3
 800061c:	681b      	ldr	r3, [r3, #0]
 800061e:	4283      	cmp	r3, r0
 8000620:	d3fb      	bcc.n	800061a <prvInsertBlockIntoFreeList+0x2>
	}

	/* Do the block being inserted, and the block it is being inserted after
	make a contiguous block of memory? */
	puc = ( uint8_t * ) pxIterator;
	if( ( puc + pxIterator->xBlockSize ) == ( uint8_t * ) pxBlockToInsert )
 8000622:	6851      	ldr	r1, [r2, #4]
 8000624:	eb02 0c01 	add.w	ip, r2, r1
 8000628:	4584      	cmp	ip, r0
 800062a:	d009      	beq.n	8000640 <prvInsertBlockIntoFreeList+0x28>
	}

	/* Do the block being inserted, and the block it is being inserted before
	make a contiguous block of memory? */
	puc = ( uint8_t * ) pxBlockToInsert;
	if( ( puc + pxBlockToInsert->xBlockSize ) == ( uint8_t * ) pxIterator->pxNextFreeBlock )
 800062c:	6841      	ldr	r1, [r0, #4]
 800062e:	eb00 0c01 	add.w	ip, r0, r1
 8000632:	4563      	cmp	r3, ip
 8000634:	d009      	beq.n	800064a <prvInsertBlockIntoFreeList+0x32>
			pxBlockToInsert->pxNextFreeBlock = pxEnd;
		}
	}
	else
	{
		pxBlockToInsert->pxNextFreeBlock = pxIterator->pxNextFreeBlock;
 8000636:	6003      	str	r3, [r0, #0]

	/* If the block being inserted plugged a gab, so was merged with the block
	before and the block after, then it's pxNextFreeBlock pointer will have
	already been set, and should not be set here as that would make it point
	to itself. */
	if( pxIterator != pxBlockToInsert )
 8000638:	4290      	cmp	r0, r2
 800063a:	d000      	beq.n	800063e <prvInsertBlockIntoFreeList+0x26>
	{
		pxIterator->pxNextFreeBlock = pxBlockToInsert;
 800063c:	6010      	str	r0, [r2, #0]
	}
	else
	{
		mtCOVERAGE_TEST_MARKER();
	}
}
 800063e:	4770      	bx	lr
		pxIterator->xBlockSize += pxBlockToInsert->xBlockSize;
 8000640:	6840      	ldr	r0, [r0, #4]
 8000642:	4401      	add	r1, r0
 8000644:	6051      	str	r1, [r2, #4]
		pxBlockToInsert = pxIterator;
 8000646:	4610      	mov	r0, r2
 8000648:	e7f0      	b.n	800062c <prvInsertBlockIntoFreeList+0x14>
		if( pxIterator->pxNextFreeBlock != pxEnd )
 800064a:	f8df c024 	ldr.w	ip, [pc, #36]	@ 8000670 <prvInsertBlockIntoFreeList+0x58>
 800064e:	f8dc c000 	ldr.w	ip, [ip]
 8000652:	4563      	cmp	r3, ip
 8000654:	d006      	beq.n	8000664 <prvInsertBlockIntoFreeList+0x4c>
			pxBlockToInsert->xBlockSize += pxIterator->pxNextFreeBlock->xBlockSize;
 8000656:	685b      	ldr	r3, [r3, #4]
 8000658:	4419      	add	r1, r3
 800065a:	6041      	str	r1, [r0, #4]
			pxBlockToInsert->pxNextFreeBlock = pxIterator->pxNextFreeBlock->pxNextFreeBlock;
 800065c:	6813      	ldr	r3, [r2, #0]
 800065e:	681b      	ldr	r3, [r3, #0]
 8000660:	6003      	str	r3, [r0, #0]
 8000662:	e7e9      	b.n	8000638 <prvInsertBlockIntoFreeList+0x20>
			pxBlockToInsert->pxNextFreeBlock = pxEnd;
 8000664:	f8c0 c000 	str.w	ip, [r0]
 8000668:	e7e6      	b.n	8000638 <prvInsertBlockIntoFreeList+0x20>
 800066a:	bf00      	nop
 800066c:	20000b34 	.word	0x20000b34
 8000670:	20000b30 	.word	0x20000b30

08000674 <pvPortMalloc>:
{
 8000674:	b538      	push	{r3, r4, r5, lr}
 8000676:	4604      	mov	r4, r0
	vTaskSuspendAll();
 8000678:	f004 fe60 	bl	800533c <vTaskSuspendAll>
		if( pxEnd == NULL )
 800067c:	4b38      	ldr	r3, [pc, #224]	@ (8000760 <pvPortMalloc+0xec>)
 800067e:	681b      	ldr	r3, [r3, #0]
 8000680:	b1b3      	cbz	r3, 80006b0 <pvPortMalloc+0x3c>
		if( ( xWantedSize & xBlockAllocatedBit ) == 0 )
 8000682:	4b38      	ldr	r3, [pc, #224]	@ (8000764 <pvPortMalloc+0xf0>)
 8000684:	681b      	ldr	r3, [r3, #0]
 8000686:	421c      	tst	r4, r3
 8000688:	d150      	bne.n	800072c <pvPortMalloc+0xb8>
			if( xWantedSize > 0 )
 800068a:	2c00      	cmp	r4, #0
 800068c:	d050      	beq.n	8000730 <pvPortMalloc+0xbc>
				xWantedSize += xHeapStructSize;
 800068e:	f104 0208 	add.w	r2, r4, #8
				if( ( xWantedSize & portBYTE_ALIGNMENT_MASK ) != 0x00 )
 8000692:	f014 0f07 	tst.w	r4, #7
 8000696:	d002      	beq.n	800069e <pvPortMalloc+0x2a>
					xWantedSize += ( portBYTE_ALIGNMENT - ( xWantedSize & portBYTE_ALIGNMENT_MASK ) );
 8000698:	f022 0207 	bic.w	r2, r2, #7
 800069c:	3208      	adds	r2, #8
			if( ( xWantedSize > 0 ) && ( xWantedSize <= xFreeBytesRemaining ) )
 800069e:	2a00      	cmp	r2, #0
 80006a0:	d055      	beq.n	800074e <pvPortMalloc+0xda>
 80006a2:	4b31      	ldr	r3, [pc, #196]	@ (8000768 <pvPortMalloc+0xf4>)
 80006a4:	681b      	ldr	r3, [r3, #0]
 80006a6:	4293      	cmp	r3, r2
 80006a8:	d353      	bcc.n	8000752 <pvPortMalloc+0xde>
				pxBlock = xStart.pxNextFreeBlock;
 80006aa:	4930      	ldr	r1, [pc, #192]	@ (800076c <pvPortMalloc+0xf8>)
 80006ac:	680c      	ldr	r4, [r1, #0]
				while( ( pxBlock->xBlockSize < xWantedSize ) && ( pxBlock->pxNextFreeBlock != NULL ) )
 80006ae:	e004      	b.n	80006ba <pvPortMalloc+0x46>
			prvHeapInit();
 80006b0:	f7ff ff80 	bl	80005b4 <prvHeapInit>
 80006b4:	e7e5      	b.n	8000682 <pvPortMalloc+0xe>
					pxPreviousBlock = pxBlock;
 80006b6:	4621      	mov	r1, r4
					pxBlock = pxBlock->pxNextFreeBlock;
 80006b8:	461c      	mov	r4, r3
				while( ( pxBlock->xBlockSize < xWantedSize ) && ( pxBlock->pxNextFreeBlock != NULL ) )
 80006ba:	6863      	ldr	r3, [r4, #4]
 80006bc:	4293      	cmp	r3, r2
 80006be:	d202      	bcs.n	80006c6 <pvPortMalloc+0x52>
 80006c0:	6823      	ldr	r3, [r4, #0]
 80006c2:	2b00      	cmp	r3, #0
 80006c4:	d1f7      	bne.n	80006b6 <pvPortMalloc+0x42>
				if( pxBlock != pxEnd )
 80006c6:	4b26      	ldr	r3, [pc, #152]	@ (8000760 <pvPortMalloc+0xec>)
 80006c8:	681b      	ldr	r3, [r3, #0]
 80006ca:	42a3      	cmp	r3, r4
 80006cc:	d043      	beq.n	8000756 <pvPortMalloc+0xe2>
					pvReturn = ( void * ) ( ( ( uint8_t * ) pxPreviousBlock->pxNextFreeBlock ) + xHeapStructSize );
 80006ce:	680d      	ldr	r5, [r1, #0]
 80006d0:	3508      	adds	r5, #8
					pxPreviousBlock->pxNextFreeBlock = pxBlock->pxNextFreeBlock;
 80006d2:	6823      	ldr	r3, [r4, #0]
 80006d4:	600b      	str	r3, [r1, #0]
					if( ( pxBlock->xBlockSize - xWantedSize ) > heapMINIMUM_BLOCK_SIZE )
 80006d6:	6863      	ldr	r3, [r4, #4]
 80006d8:	1a9b      	subs	r3, r3, r2
 80006da:	2b10      	cmp	r3, #16
 80006dc:	d910      	bls.n	8000700 <pvPortMalloc+0x8c>
						pxNewBlockLink = ( void * ) ( ( ( uint8_t * ) pxBlock ) + xWantedSize );
 80006de:	18a0      	adds	r0, r4, r2
						configASSERT( ( ( ( size_t ) pxNewBlockLink ) & portBYTE_ALIGNMENT_MASK ) == 0 );
 80006e0:	f010 0f07 	tst.w	r0, #7
 80006e4:	d008      	beq.n	80006f8 <pvPortMalloc+0x84>

portFORCE_INLINE static void vPortRaiseBASEPRI( void )
{
uint32_t ulNewBASEPRI;

	__asm volatile
 80006e6:	f04f 0350 	mov.w	r3, #80	@ 0x50
 80006ea:	f383 8811 	msr	BASEPRI, r3
 80006ee:	f3bf 8f6f 	isb	sy
 80006f2:	f3bf 8f4f 	dsb	sy
 80006f6:	e7fe      	b.n	80006f6 <pvPortMalloc+0x82>
						pxNewBlockLink->xBlockSize = pxBlock->xBlockSize - xWantedSize;
 80006f8:	6043      	str	r3, [r0, #4]
						pxBlock->xBlockSize = xWantedSize;
 80006fa:	6062      	str	r2, [r4, #4]
						prvInsertBlockIntoFreeList( pxNewBlockLink );
 80006fc:	f7ff ff8c 	bl	8000618 <prvInsertBlockIntoFreeList>
					xFreeBytesRemaining -= pxBlock->xBlockSize;
 8000700:	6862      	ldr	r2, [r4, #4]
 8000702:	4919      	ldr	r1, [pc, #100]	@ (8000768 <pvPortMalloc+0xf4>)
 8000704:	680b      	ldr	r3, [r1, #0]
 8000706:	1a9b      	subs	r3, r3, r2
 8000708:	600b      	str	r3, [r1, #0]
					if( xFreeBytesRemaining < xMinimumEverFreeBytesRemaining )
 800070a:	4919      	ldr	r1, [pc, #100]	@ (8000770 <pvPortMalloc+0xfc>)
 800070c:	6809      	ldr	r1, [r1, #0]
 800070e:	428b      	cmp	r3, r1
 8000710:	d201      	bcs.n	8000716 <pvPortMalloc+0xa2>
						xMinimumEverFreeBytesRemaining = xFreeBytesRemaining;
 8000712:	4917      	ldr	r1, [pc, #92]	@ (8000770 <pvPortMalloc+0xfc>)
 8000714:	600b      	str	r3, [r1, #0]
					pxBlock->xBlockSize |= xBlockAllocatedBit;
 8000716:	4b13      	ldr	r3, [pc, #76]	@ (8000764 <pvPortMalloc+0xf0>)
 8000718:	681b      	ldr	r3, [r3, #0]
 800071a:	4313      	orrs	r3, r2
 800071c:	6063      	str	r3, [r4, #4]
					pxBlock->pxNextFreeBlock = NULL;
 800071e:	2300      	movs	r3, #0
 8000720:	6023      	str	r3, [r4, #0]
					xNumberOfSuccessfulAllocations++;
 8000722:	4a14      	ldr	r2, [pc, #80]	@ (8000774 <pvPortMalloc+0x100>)
 8000724:	6813      	ldr	r3, [r2, #0]
 8000726:	3301      	adds	r3, #1
 8000728:	6013      	str	r3, [r2, #0]
 800072a:	e002      	b.n	8000732 <pvPortMalloc+0xbe>
void *pvReturn = NULL;
 800072c:	2500      	movs	r5, #0
 800072e:	e000      	b.n	8000732 <pvPortMalloc+0xbe>
 8000730:	4625      	mov	r5, r4
	( void ) xTaskResumeAll();
 8000732:	f004 fe9d 	bl	8005470 <xTaskResumeAll>
	configASSERT( ( ( ( size_t ) pvReturn ) & ( size_t ) portBYTE_ALIGNMENT_MASK ) == 0 );
 8000736:	f015 0f07 	tst.w	r5, #7
 800073a:	d00e      	beq.n	800075a <pvPortMalloc+0xe6>
 800073c:	f04f 0350 	mov.w	r3, #80	@ 0x50
 8000740:	f383 8811 	msr	BASEPRI, r3
 8000744:	f3bf 8f6f 	isb	sy
 8000748:	f3bf 8f4f 	dsb	sy
 800074c:	e7fe      	b.n	800074c <pvPortMalloc+0xd8>
void *pvReturn = NULL;
 800074e:	4615      	mov	r5, r2
 8000750:	e7ef      	b.n	8000732 <pvPortMalloc+0xbe>
 8000752:	2500      	movs	r5, #0
 8000754:	e7ed      	b.n	8000732 <pvPortMalloc+0xbe>
 8000756:	2500      	movs	r5, #0
 8000758:	e7eb      	b.n	8000732 <pvPortMalloc+0xbe>
}
 800075a:	4628      	mov	r0, r5
 800075c:	bd38      	pop	{r3, r4, r5, pc}
 800075e:	bf00      	nop
 8000760:	20000b30 	.word	0x20000b30
 8000764:	20000b1c 	.word	0x20000b1c
 8000768:	20000b2c 	.word	0x20000b2c
 800076c:	20000b34 	.word	0x20000b34
 8000770:	20000b28 	.word	0x20000b28
 8000774:	20000b24 	.word	0x20000b24

08000778 <vPortFree>:
	if( pv != NULL )
 8000778:	2800      	cmp	r0, #0
 800077a:	d035      	beq.n	80007e8 <vPortFree+0x70>
{
 800077c:	b538      	push	{r3, r4, r5, lr}
 800077e:	4604      	mov	r4, r0
		puc -= xHeapStructSize;
 8000780:	f1a0 0308 	sub.w	r3, r0, #8
 8000784:	461d      	mov	r5, r3
		configASSERT( ( pxLink->xBlockSize & xBlockAllocatedBit ) != 0 );
 8000786:	f850 3c04 	ldr.w	r3, [r0, #-4]
 800078a:	4a18      	ldr	r2, [pc, #96]	@ (80007ec <vPortFree+0x74>)
 800078c:	6812      	ldr	r2, [r2, #0]
 800078e:	4213      	tst	r3, r2
 8000790:	d108      	bne.n	80007a4 <vPortFree+0x2c>
 8000792:	f04f 0350 	mov.w	r3, #80	@ 0x50
 8000796:	f383 8811 	msr	BASEPRI, r3
 800079a:	f3bf 8f6f 	isb	sy
 800079e:	f3bf 8f4f 	dsb	sy
 80007a2:	e7fe      	b.n	80007a2 <vPortFree+0x2a>
		configASSERT( pxLink->pxNextFreeBlock == NULL );
 80007a4:	f850 1c08 	ldr.w	r1, [r0, #-8]
 80007a8:	b141      	cbz	r1, 80007bc <vPortFree+0x44>
 80007aa:	f04f 0350 	mov.w	r3, #80	@ 0x50
 80007ae:	f383 8811 	msr	BASEPRI, r3
 80007b2:	f3bf 8f6f 	isb	sy
 80007b6:	f3bf 8f4f 	dsb	sy
 80007ba:	e7fe      	b.n	80007ba <vPortFree+0x42>
				pxLink->xBlockSize &= ~xBlockAllocatedBit;
 80007bc:	ea23 0302 	bic.w	r3, r3, r2
 80007c0:	f840 3c04 	str.w	r3, [r0, #-4]
				vTaskSuspendAll();
 80007c4:	f004 fdba 	bl	800533c <vTaskSuspendAll>
					xFreeBytesRemaining += pxLink->xBlockSize;
 80007c8:	f854 1c04 	ldr.w	r1, [r4, #-4]
 80007cc:	4a08      	ldr	r2, [pc, #32]	@ (80007f0 <vPortFree+0x78>)
 80007ce:	6813      	ldr	r3, [r2, #0]
 80007d0:	440b      	add	r3, r1
 80007d2:	6013      	str	r3, [r2, #0]
					prvInsertBlockIntoFreeList( ( ( BlockLink_t * ) pxLink ) );
 80007d4:	4628      	mov	r0, r5
 80007d6:	f7ff ff1f 	bl	8000618 <prvInsertBlockIntoFreeList>
					xNumberOfSuccessfulFrees++;
 80007da:	4a06      	ldr	r2, [pc, #24]	@ (80007f4 <vPortFree+0x7c>)
 80007dc:	6813      	ldr	r3, [r2, #0]
 80007de:	3301      	adds	r3, #1
 80007e0:	6013      	str	r3, [r2, #0]
				( void ) xTaskResumeAll();
 80007e2:	f004 fe45 	bl	8005470 <xTaskResumeAll>
}
 80007e6:	bd38      	pop	{r3, r4, r5, pc}
 80007e8:	4770      	bx	lr
 80007ea:	bf00      	nop
 80007ec:	20000b1c 	.word	0x20000b1c
 80007f0:	20000b2c 	.word	0x20000b2c
 80007f4:	20000b20 	.word	0x20000b20

080007f8 <vListInitialise>:
void vListInitialise( List_t * const pxList )
{
	/* The list structure contains a list item which is used to mark the
	end of the list.  To initialise the list the list end is inserted
	as the only list entry. */
	pxList->pxIndex = ( ListItem_t * ) &( pxList->xListEnd );			/*lint !e826 !e740 !e9087 The mini list structure is used as the list end to save RAM.  This is checked and valid. */
 80007f8:	f100 0308 	add.w	r3, r0, #8
 80007fc:	6043      	str	r3, [r0, #4]

	/* The list end value is the highest possible value in the list to
	ensure it remains at the end of the list. */
	pxList->xListEnd.xItemValue = portMAX_DELAY;
 80007fe:	f04f 32ff 	mov.w	r2, #4294967295
 8000802:	6082      	str	r2, [r0, #8]

	/* The list end next and previous pointers point to itself so we know
	when the list is empty. */
	pxList->xListEnd.pxNext = ( ListItem_t * ) &( pxList->xListEnd );	/*lint !e826 !e740 !e9087 The mini list structure is used as the list end to save RAM.  This is checked and valid. */
 8000804:	60c3      	str	r3, [r0, #12]
	pxList->xListEnd.pxPrevious = ( ListItem_t * ) &( pxList->xListEnd );/*lint !e826 !e740 !e9087 The mini list structure is used as the list end to save RAM.  This is checked and valid. */
 8000806:	6103      	str	r3, [r0, #16]

	pxList->uxNumberOfItems = ( UBaseType_t ) 0U;
 8000808:	2300      	movs	r3, #0
 800080a:	6003      	str	r3, [r0, #0]

	/* Write known values into the list if
	configUSE_LIST_DATA_INTEGRITY_CHECK_BYTES is set to 1. */
	listSET_LIST_INTEGRITY_CHECK_1_VALUE( pxList );
	listSET_LIST_INTEGRITY_CHECK_2_VALUE( pxList );
}
 800080c:	4770      	bx	lr

0800080e <vListInitialiseItem>:
/*-----------------------------------------------------------*/

void vListInitialiseItem( ListItem_t * const pxItem )
{
	/* Make sure the list item is not recorded as being on a list. */
	pxItem->pxContainer = NULL;
 800080e:	2300      	movs	r3, #0
 8000810:	6103      	str	r3, [r0, #16]

	/* Write known values into the list item if
	configUSE_LIST_DATA_INTEGRITY_CHECK_BYTES is set to 1. */
	listSET_FIRST_LIST_ITEM_INTEGRITY_CHECK_VALUE( pxItem );
	listSET_SECOND_LIST_ITEM_INTEGRITY_CHECK_VALUE( pxItem );
}
 8000812:	4770      	bx	lr

08000814 <vListInsertEnd>:
/*-----------------------------------------------------------*/

void vListInsertEnd( List_t * const pxList, ListItem_t * const pxNewListItem )
{
ListItem_t * const pxIndex = pxList->pxIndex;
 8000814:	6843      	ldr	r3, [r0, #4]
	listTEST_LIST_ITEM_INTEGRITY( pxNewListItem );

	/* Insert a new list item into pxList, but rather than sort the list,
	makes the new list item the last item to be removed by a call to
	listGET_OWNER_OF_NEXT_ENTRY(). */
	pxNewListItem->pxNext = pxIndex;
 8000816:	604b      	str	r3, [r1, #4]
	pxNewListItem->pxPrevious = pxIndex->pxPrevious;
 8000818:	689a      	ldr	r2, [r3, #8]
 800081a:	608a      	str	r2, [r1, #8]

	/* Only used during decision coverage testing. */
	mtCOVERAGE_TEST_DELAY();

	pxIndex->pxPrevious->pxNext = pxNewListItem;
 800081c:	6051      	str	r1, [r2, #4]
	pxIndex->pxPrevious = pxNewListItem;
 800081e:	6099      	str	r1, [r3, #8]

	/* Remember which list the item is in. */
	pxNewListItem->pxContainer = pxList;
 8000820:	6108      	str	r0, [r1, #16]

	( pxList->uxNumberOfItems )++;
 8000822:	6803      	ldr	r3, [r0, #0]
 8000824:	3301      	adds	r3, #1
 8000826:	6003      	str	r3, [r0, #0]
}
 8000828:	4770      	bx	lr

0800082a <vListInsert>:
/*-----------------------------------------------------------*/

void vListInsert( List_t * const pxList, ListItem_t * const pxNewListItem )
{
 800082a:	b410      	push	{r4}
 800082c:	4602      	mov	r2, r0
 800082e:	4608      	mov	r0, r1
ListItem_t *pxIterator;
const TickType_t xValueOfInsertion = pxNewListItem->xItemValue;
 8000830:	f8d1 c000 	ldr.w	ip, [r1]
	new list item should be placed after it.  This ensures that TCBs which are
	stored in ready lists (all of which have the same xItemValue value) get a
	share of the CPU.  However, if the xItemValue is the same as the back marker
	the iteration loop below will not end.  Therefore the value is checked
	first, and the algorithm slightly modified if necessary. */
	if( xValueOfInsertion == portMAX_DELAY )
 8000834:	f1bc 3fff 	cmp.w	ip, #4294967295
 8000838:	d011      	beq.n	800085e <vListInsert+0x34>
			4) Using a queue or semaphore before it has been initialised or
			   before the scheduler has been started (are interrupts firing
			   before vTaskStartScheduler() has been called?).
		**********************************************************************/

		for( pxIterator = ( ListItem_t * ) &( pxList->xListEnd ); pxIterator->pxNext->xItemValue <= xValueOfInsertion; pxIterator = pxIterator->pxNext ) /*lint !e826 !e740 !e9087 The mini list structure is used as the list end to save RAM.  This is checked and valid. *//*lint !e440 The iterator moves to a different value, not xValueOfInsertion. */
 800083a:	f102 0308 	add.w	r3, r2, #8
 800083e:	4619      	mov	r1, r3
 8000840:	685b      	ldr	r3, [r3, #4]
 8000842:	681c      	ldr	r4, [r3, #0]
 8000844:	4564      	cmp	r4, ip
 8000846:	d9fa      	bls.n	800083e <vListInsert+0x14>
			/* There is nothing to do here, just iterating to the wanted
			insertion position. */
		}
	}

	pxNewListItem->pxNext = pxIterator->pxNext;
 8000848:	684b      	ldr	r3, [r1, #4]
 800084a:	6043      	str	r3, [r0, #4]
	pxNewListItem->pxNext->pxPrevious = pxNewListItem;
 800084c:	6098      	str	r0, [r3, #8]
	pxNewListItem->pxPrevious = pxIterator;
 800084e:	6081      	str	r1, [r0, #8]
	pxIterator->pxNext = pxNewListItem;
 8000850:	6048      	str	r0, [r1, #4]

	/* Remember which list the item is in.  This allows fast removal of the
	item later. */
	pxNewListItem->pxContainer = pxList;
 8000852:	6102      	str	r2, [r0, #16]

	( pxList->uxNumberOfItems )++;
 8000854:	6813      	ldr	r3, [r2, #0]
 8000856:	3301      	adds	r3, #1
 8000858:	6013      	str	r3, [r2, #0]
}
 800085a:	bc10      	pop	{r4}
 800085c:	4770      	bx	lr
		pxIterator = pxList->xListEnd.pxPrevious;
 800085e:	6911      	ldr	r1, [r2, #16]
 8000860:	e7f2      	b.n	8000848 <vListInsert+0x1e>

08000862 <uxListRemove>:

UBaseType_t uxListRemove( ListItem_t * const pxItemToRemove )
{
/* The list item knows which list it is in.  Obtain the list from the list
item. */
List_t * const pxList = pxItemToRemove->pxContainer;
 8000862:	6903      	ldr	r3, [r0, #16]

	pxItemToRemove->pxNext->pxPrevious = pxItemToRemove->pxPrevious;
 8000864:	6841      	ldr	r1, [r0, #4]
 8000866:	6882      	ldr	r2, [r0, #8]
 8000868:	608a      	str	r2, [r1, #8]
	pxItemToRemove->pxPrevious->pxNext = pxItemToRemove->pxNext;
 800086a:	6841      	ldr	r1, [r0, #4]
 800086c:	6051      	str	r1, [r2, #4]

	/* Only used during decision coverage testing. */
	mtCOVERAGE_TEST_DELAY();

	/* Make sure the index is left pointing to a valid item. */
	if( pxList->pxIndex == pxItemToRemove )
 800086e:	685a      	ldr	r2, [r3, #4]
 8000870:	4282      	cmp	r2, r0
 8000872:	d006      	beq.n	8000882 <uxListRemove+0x20>
	else
	{
		mtCOVERAGE_TEST_MARKER();
	}

	pxItemToRemove->pxContainer = NULL;
 8000874:	2200      	movs	r2, #0
 8000876:	6102      	str	r2, [r0, #16]
	( pxList->uxNumberOfItems )--;
 8000878:	681a      	ldr	r2, [r3, #0]
 800087a:	3a01      	subs	r2, #1
 800087c:	601a      	str	r2, [r3, #0]

	return pxList->uxNumberOfItems;
 800087e:	6818      	ldr	r0, [r3, #0]
}
 8000880:	4770      	bx	lr
		pxList->pxIndex = pxItemToRemove->pxPrevious;
 8000882:	6882      	ldr	r2, [r0, #8]
 8000884:	605a      	str	r2, [r3, #4]
 8000886:	e7f5      	b.n	8000874 <uxListRemove+0x12>

08000888 <MX_GPIO_Init>:
  * @brief GPIO Initialization Function
  * @param None
  * @retval None
  */
static void MX_GPIO_Init(void)
{
 8000888:	e92d 4ff0 	stmdb	sp!, {r4, r5, r6, r7, r8, r9, sl, fp, lr}
 800088c:	b08d      	sub	sp, #52	@ 0x34
  GPIO_InitTypeDef GPIO_InitStruct = {0};
 800088e:	ad07      	add	r5, sp, #28
 8000890:	2400      	movs	r4, #0
 8000892:	9407      	str	r4, [sp, #28]
 8000894:	9408      	str	r4, [sp, #32]
 8000896:	9409      	str	r4, [sp, #36]	@ 0x24
 8000898:	940a      	str	r4, [sp, #40]	@ 0x28
 800089a:	940b      	str	r4, [sp, #44]	@ 0x2c
  /* USER CODE BEGIN MX_GPIO_Init_1 */

  /* USER CODE END MX_GPIO_Init_1 */

  /* GPIO Ports Clock Enable */
  __HAL_RCC_GPIOE_CLK_ENABLE();
 800089c:	9401      	str	r4, [sp, #4]
 800089e:	4b59      	ldr	r3, [pc, #356]	@ (8000a04 <MX_GPIO_Init+0x17c>)
 80008a0:	6b1a      	ldr	r2, [r3, #48]	@ 0x30
 80008a2:	f042 0210 	orr.w	r2, r2, #16
 80008a6:	631a      	str	r2, [r3, #48]	@ 0x30
 80008a8:	6b1a      	ldr	r2, [r3, #48]	@ 0x30
 80008aa:	f002 0210 	and.w	r2, r2, #16
 80008ae:	9201      	str	r2, [sp, #4]
 80008b0:	9a01      	ldr	r2, [sp, #4]
  __HAL_RCC_GPIOC_CLK_ENABLE();
 80008b2:	9402      	str	r4, [sp, #8]
 80008b4:	6b1a      	ldr	r2, [r3, #48]	@ 0x30
 80008b6:	f042 0204 	orr.w	r2, r2, #4
 80008ba:	631a      	str	r2, [r3, #48]	@ 0x30
 80008bc:	6b1a      	ldr	r2, [r3, #48]	@ 0x30
 80008be:	f002 0204 	and.w	r2, r2, #4
 80008c2:	9202      	str	r2, [sp, #8]
 80008c4:	9a02      	ldr	r2, [sp, #8]
  __HAL_RCC_GPIOH_CLK_ENABLE();
 80008c6:	9403      	str	r4, [sp, #12]
 80008c8:	6b1a      	ldr	r2, [r3, #48]	@ 0x30
 80008ca:	f042 0280 	orr.w	r2, r2, #128	@ 0x80
 80008ce:	631a      	str	r2, [r3, #48]	@ 0x30
 80008d0:	6b1a      	ldr	r2, [r3, #48]	@ 0x30
 80008d2:	f002 0280 	and.w	r2, r2, #128	@ 0x80
 80008d6:	9203      	str	r2, [sp, #12]
 80008d8:	9a03      	ldr	r2, [sp, #12]
  __HAL_RCC_GPIOA_CLK_ENABLE();
 80008da:	9404      	str	r4, [sp, #16]
 80008dc:	6b1a      	ldr	r2, [r3, #48]	@ 0x30
 80008de:	f042 0201 	orr.w	r2, r2, #1
 80008e2:	631a      	str	r2, [r3, #48]	@ 0x30
 80008e4:	6b1a      	ldr	r2, [r3, #48]	@ 0x30
 80008e6:	f002 0201 	and.w	r2, r2, #1
 80008ea:	9204      	str	r2, [sp, #16]
 80008ec:	9a04      	ldr	r2, [sp, #16]
  __HAL_RCC_GPIOB_CLK_ENABLE();
 80008ee:	9405      	str	r4, [sp, #20]
 80008f0:	6b1a      	ldr	r2, [r3, #48]	@ 0x30
 80008f2:	f042 0202 	orr.w	r2, r2, #2
 80008f6:	631a      	str	r2, [r3, #48]	@ 0x30
 80008f8:	6b1a      	ldr	r2, [r3, #48]	@ 0x30
 80008fa:	f002 0202 	and.w	r2, r2, #2
 80008fe:	9205      	str	r2, [sp, #20]
 8000900:	9a05      	ldr	r2, [sp, #20]
  __HAL_RCC_GPIOD_CLK_ENABLE();
 8000902:	9406      	str	r4, [sp, #24]
 8000904:	6b1a      	ldr	r2, [r3, #48]	@ 0x30
 8000906:	f042 0208 	orr.w	r2, r2, #8
 800090a:	631a      	str	r2, [r3, #48]	@ 0x30
 800090c:	6b1b      	ldr	r3, [r3, #48]	@ 0x30
 800090e:	f003 0308 	and.w	r3, r3, #8
 8000912:	9306      	str	r3, [sp, #24]
 8000914:	9b06      	ldr	r3, [sp, #24]

  /*Configure GPIO pin Output Level */
  HAL_GPIO_WritePin(CS_I2C_SPI_GPIO_Port, CS_I2C_SPI_Pin, GPIO_PIN_RESET);
 8000916:	4f3c      	ldr	r7, [pc, #240]	@ (8000a08 <MX_GPIO_Init+0x180>)
 8000918:	4622      	mov	r2, r4
 800091a:	2108      	movs	r1, #8
 800091c:	4638      	mov	r0, r7
 800091e:	f001 f999 	bl	8001c54 <HAL_GPIO_WritePin>

  /*Configure GPIO pin Output Level */
  HAL_GPIO_WritePin(OTG_FS_PowerSwitchOn_GPIO_Port, OTG_FS_PowerSwitchOn_Pin, GPIO_PIN_SET);
 8000922:	f8df a0f0 	ldr.w	sl, [pc, #240]	@ 8000a14 <MX_GPIO_Init+0x18c>
 8000926:	2201      	movs	r2, #1
 8000928:	4611      	mov	r1, r2
 800092a:	4650      	mov	r0, sl
 800092c:	f001 f992 	bl	8001c54 <HAL_GPIO_WritePin>

  /*Configure GPIO pin Output Level */
  HAL_GPIO_WritePin(GPIOD, LD4_Pin|LD3_Pin|LD5_Pin|LD6_Pin
 8000930:	f8df 90e4 	ldr.w	r9, [pc, #228]	@ 8000a18 <MX_GPIO_Init+0x190>
 8000934:	4622      	mov	r2, r4
 8000936:	f24f 0110 	movw	r1, #61456	@ 0xf010
 800093a:	4648      	mov	r0, r9
 800093c:	f001 f98a 	bl	8001c54 <HAL_GPIO_WritePin>
                          |Audio_RST_Pin, GPIO_PIN_RESET);

  /*Configure GPIO pin : CS_I2C_SPI_Pin */
  GPIO_InitStruct.Pin = CS_I2C_SPI_Pin;
 8000940:	f04f 0808 	mov.w	r8, #8
 8000944:	f8cd 801c 	str.w	r8, [sp, #28]
  GPIO_InitStruct.Mode = GPIO_MODE_OUTPUT_PP;
 8000948:	2601      	movs	r6, #1
 800094a:	9608      	str	r6, [sp, #32]
  GPIO_InitStruct.Pull = GPIO_NOPULL;
 800094c:	9409      	str	r4, [sp, #36]	@ 0x24
  GPIO_InitStruct.Speed = GPIO_SPEED_FREQ_LOW;
 800094e:	940a      	str	r4, [sp, #40]	@ 0x28
  HAL_GPIO_Init(CS_I2C_SPI_GPIO_Port, &GPIO_InitStruct);
 8000950:	4629      	mov	r1, r5
 8000952:	4638      	mov	r0, r7
 8000954:	f001 f87a 	bl	8001a4c <HAL_GPIO_Init>

  /*Configure GPIO pin : OTG_FS_PowerSwitchOn_Pin */
  GPIO_InitStruct.Pin = OTG_FS_PowerSwitchOn_Pin;
 8000958:	9607      	str	r6, [sp, #28]
  GPIO_InitStruct.Mode = GPIO_MODE_OUTPUT_PP;
 800095a:	9608      	str	r6, [sp, #32]
  GPIO_InitStruct.Pull = GPIO_NOPULL;
 800095c:	9409      	str	r4, [sp, #36]	@ 0x24
  GPIO_InitStruct.Speed = GPIO_SPEED_FREQ_LOW;
 800095e:	940a      	str	r4, [sp, #40]	@ 0x28
  HAL_GPIO_Init(OTG_FS_PowerSwitchOn_GPIO_Port, &GPIO_InitStruct);
 8000960:	4629      	mov	r1, r5
 8000962:	4650      	mov	r0, sl
 8000964:	f001 f872 	bl	8001a4c <HAL_GPIO_Init>

  /*Configure GPIO pin : PDM_OUT_Pin */
  GPIO_InitStruct.Pin = PDM_OUT_Pin;
 8000968:	f8cd 801c 	str.w	r8, [sp, #28]
  GPIO_InitStruct.Mode = GPIO_MODE_AF_PP;
 800096c:	f04f 0802 	mov.w	r8, #2
 8000970:	f8cd 8020 	str.w	r8, [sp, #32]
  GPIO_InitStruct.Pull = GPIO_NOPULL;
 8000974:	9409      	str	r4, [sp, #36]	@ 0x24
  GPIO_InitStruct.Speed = GPIO_SPEED_FREQ_LOW;
 8000976:	940a      	str	r4, [sp, #40]	@ 0x28
  GPIO_InitStruct.Alternate = GPIO_AF5_SPI2;
 8000978:	f04f 0b05 	mov.w	fp, #5
 800097c:	f8cd b02c 	str.w	fp, [sp, #44]	@ 0x2c
  HAL_GPIO_Init(PDM_OUT_GPIO_Port, &GPIO_InitStruct);
 8000980:	4629      	mov	r1, r5
 8000982:	4650      	mov	r0, sl
 8000984:	f001 f862 	bl	8001a4c <HAL_GPIO_Init>

  /*Configure GPIO pin : B1_Pin */
  GPIO_InitStruct.Pin = B1_Pin;
 8000988:	9607      	str	r6, [sp, #28]
  GPIO_InitStruct.Mode = GPIO_MODE_EVT_RISING;
 800098a:	f44f 1a90 	mov.w	sl, #1179648	@ 0x120000
 800098e:	f8cd a020 	str.w	sl, [sp, #32]
  GPIO_InitStruct.Pull = GPIO_NOPULL;
 8000992:	9409      	str	r4, [sp, #36]	@ 0x24
  HAL_GPIO_Init(B1_GPIO_Port, &GPIO_InitStruct);
 8000994:	4629      	mov	r1, r5
 8000996:	481d      	ldr	r0, [pc, #116]	@ (8000a0c <MX_GPIO_Init+0x184>)
 8000998:	f001 f858 	bl	8001a4c <HAL_GPIO_Init>

  /*Configure GPIO pin : BOOT1_Pin */
  GPIO_InitStruct.Pin = BOOT1_Pin;
 800099c:	2304      	movs	r3, #4
 800099e:	9307      	str	r3, [sp, #28]
  GPIO_InitStruct.Mode = GPIO_MODE_INPUT;
 80009a0:	9408      	str	r4, [sp, #32]
  GPIO_InitStruct.Pull = GPIO_NOPULL;
 80009a2:	9409      	str	r4, [sp, #36]	@ 0x24
  HAL_GPIO_Init(BOOT1_GPIO_Port, &GPIO_InitStruct);
 80009a4:	4629      	mov	r1, r5
 80009a6:	481a      	ldr	r0, [pc, #104]	@ (8000a10 <MX_GPIO_Init+0x188>)
 80009a8:	f001 f850 	bl	8001a4c <HAL_GPIO_Init>

  /*Configure GPIO pin : CLK_IN_Pin */
  GPIO_InitStruct.Pin = CLK_IN_Pin;
 80009ac:	f44f 6380 	mov.w	r3, #1024	@ 0x400
 80009b0:	9307      	str	r3, [sp, #28]
  GPIO_InitStruct.Mode = GPIO_MODE_AF_PP;
 80009b2:	f8cd 8020 	str.w	r8, [sp, #32]
  GPIO_InitStruct.Pull = GPIO_NOPULL;
 80009b6:	9409      	str	r4, [sp, #36]	@ 0x24
  GPIO_InitStruct.Speed = GPIO_SPEED_FREQ_LOW;
 80009b8:	940a      	str	r4, [sp, #40]	@ 0x28
  GPIO_InitStruct.Alternate = GPIO_AF5_SPI2;
 80009ba:	f8cd b02c 	str.w	fp, [sp, #44]	@ 0x2c
  HAL_GPIO_Init(CLK_IN_GPIO_Port, &GPIO_InitStruct);
 80009be:	4629      	mov	r1, r5
 80009c0:	4813      	ldr	r0, [pc, #76]	@ (8000a10 <MX_GPIO_Init+0x188>)
 80009c2:	f001 f843 	bl	8001a4c <HAL_GPIO_Init>

  /*Configure GPIO pins : LD4_Pin LD3_Pin LD5_Pin LD6_Pin
                           Audio_RST_Pin */
  GPIO_InitStruct.Pin = LD4_Pin|LD3_Pin|LD5_Pin|LD6_Pin
 80009c6:	f24f 0310 	movw	r3, #61456	@ 0xf010
 80009ca:	9307      	str	r3, [sp, #28]
                          |Audio_RST_Pin;
  GPIO_InitStruct.Mode = GPIO_MODE_OUTPUT_PP;
 80009cc:	9608      	str	r6, [sp, #32]
  GPIO_InitStruct.Pull = GPIO_NOPULL;
 80009ce:	9409      	str	r4, [sp, #36]	@ 0x24
  GPIO_InitStruct.Speed = GPIO_SPEED_FREQ_LOW;
 80009d0:	940a      	str	r4, [sp, #40]	@ 0x28
  HAL_GPIO_Init(GPIOD, &GPIO_InitStruct);
 80009d2:	4629      	mov	r1, r5
 80009d4:	4648      	mov	r0, r9
 80009d6:	f001 f839 	bl	8001a4c <HAL_GPIO_Init>

  /*Configure GPIO pin : OTG_FS_OverCurrent_Pin */
  GPIO_InitStruct.Pin = OTG_FS_OverCurrent_Pin;
 80009da:	2320      	movs	r3, #32
 80009dc:	9307      	str	r3, [sp, #28]
  GPIO_InitStruct.Mode = GPIO_MODE_INPUT;
 80009de:	9408      	str	r4, [sp, #32]
  GPIO_InitStruct.Pull = GPIO_NOPULL;
 80009e0:	9409      	str	r4, [sp, #36]	@ 0x24
  HAL_GPIO_Init(OTG_FS_OverCurrent_GPIO_Port, &GPIO_InitStruct);
 80009e2:	4629      	mov	r1, r5
 80009e4:	4648      	mov	r0, r9
 80009e6:	f001 f831 	bl	8001a4c <HAL_GPIO_Init>

  /*Configure GPIO pin : MEMS_INT2_Pin */
  GPIO_InitStruct.Pin = MEMS_INT2_Pin;
 80009ea:	f8cd 801c 	str.w	r8, [sp, #28]
  GPIO_InitStruct.Mode = GPIO_MODE_EVT_RISING;
 80009ee:	f8cd a020 	str.w	sl, [sp, #32]
  GPIO_InitStruct.Pull = GPIO_NOPULL;
 80009f2:	9409      	str	r4, [sp, #36]	@ 0x24
  HAL_GPIO_Init(MEMS_INT2_GPIO_Port, &GPIO_InitStruct);
 80009f4:	4629      	mov	r1, r5
 80009f6:	4638      	mov	r0, r7
 80009f8:	f001 f828 	bl	8001a4c <HAL_GPIO_Init>

  /* USER CODE BEGIN MX_GPIO_Init_2 */

  /* USER CODE END MX_GPIO_Init_2 */
}
 80009fc:	b00d      	add	sp, #52	@ 0x34
 80009fe:	e8bd 8ff0 	ldmia.w	sp!, {r4, r5, r6, r7, r8, r9, sl, fp, pc}
 8000a02:	bf00      	nop
 8000a04:	40023800 	.word	0x40023800
 8000a08:	40021000 	.word	0x40021000
 8000a0c:	40020000 	.word	0x40020000
 8000a10:	40020400 	.word	0x40020400
 8000a14:	40020800 	.word	0x40020800
 8000a18:	40020c00 	.word	0x40020c00

08000a1c <StartDefaultTask>:
  * @param  argument: Not used
  * @retval None
  */
/* USER CODE END Header_StartDefaultTask */
void StartDefaultTask(void const * argument)
{
 8000a1c:	b508      	push	{r3, lr}
  /* USER CODE BEGIN 5 */
  /* Infinite loop */
  for(;;)
  {
    HAL_GPIO_TogglePin(GPIOD, GPIO_PIN_12);
 8000a1e:	f44f 5180 	mov.w	r1, #4096	@ 0x1000
 8000a22:	4804      	ldr	r0, [pc, #16]	@ (8000a34 <StartDefaultTask+0x18>)
 8000a24:	f001 f91c 	bl	8001c60 <HAL_GPIO_TogglePin>
    osDelay(500);
 8000a28:	f44f 70fa 	mov.w	r0, #500	@ 0x1f4
 8000a2c:	f7ff fc30 	bl	8000290 <osDelay>
  for(;;)
 8000a30:	e7f5      	b.n	8000a1e <StartDefaultTask+0x2>
 8000a32:	bf00      	nop
 8000a34:	40020c00 	.word	0x40020c00

08000a38 <HAL_TIM_PeriodElapsedCallback>:
  * a global variable "uwTick" used as application time base.
  * @param  htim : TIM handle
  * @retval None
  */
void HAL_TIM_PeriodElapsedCallback(TIM_HandleTypeDef *htim)
{
 8000a38:	b508      	push	{r3, lr}
  /* USER CODE BEGIN Callback 0 */

  /* USER CODE END Callback 0 */
  if (htim->Instance == TIM1)
 8000a3a:	6802      	ldr	r2, [r0, #0]
 8000a3c:	4b03      	ldr	r3, [pc, #12]	@ (8000a4c <HAL_TIM_PeriodElapsedCallback+0x14>)
 8000a3e:	429a      	cmp	r2, r3
 8000a40:	d000      	beq.n	8000a44 <HAL_TIM_PeriodElapsedCallback+0xc>
    HAL_IncTick();
  }
  /* USER CODE BEGIN Callback 1 */

  /* USER CODE END Callback 1 */
}
 8000a42:	bd08      	pop	{r3, pc}
    HAL_IncTick();
 8000a44:	f000 ff70 	bl	8001928 <HAL_IncTick>
}
 8000a48:	e7fb      	b.n	8000a42 <HAL_TIM_PeriodElapsedCallback+0xa>
 8000a4a:	bf00      	nop
 8000a4c:	40010000 	.word	0x40010000

08000a50 <Error_Handler>:
  __ASM volatile ("cpsid i" : : : "memory");
 8000a50:	b672      	cpsid	i
void Error_Handler(void)
{
  /* USER CODE BEGIN Error_Handler_Debug */
  /* User can add his own implementation to report the HAL error return state */
  __disable_irq();
  while (1)
 8000a52:	e7fe      	b.n	8000a52 <Error_Handler+0x2>

08000a54 <MX_I2C1_Init>:
{
 8000a54:	b508      	push	{r3, lr}
  hi2c1.Instance = I2C1;
 8000a56:	480a      	ldr	r0, [pc, #40]	@ (8000a80 <MX_I2C1_Init+0x2c>)
 8000a58:	4b0a      	ldr	r3, [pc, #40]	@ (8000a84 <MX_I2C1_Init+0x30>)
 8000a5a:	6003      	str	r3, [r0, #0]
  hi2c1.Init.ClockSpeed = 100000;
 8000a5c:	4b0a      	ldr	r3, [pc, #40]	@ (8000a88 <MX_I2C1_Init+0x34>)
 8000a5e:	6043      	str	r3, [r0, #4]
  hi2c1.Init.DutyCycle = I2C_DUTYCYCLE_2;
 8000a60:	2300      	movs	r3, #0
 8000a62:	6083      	str	r3, [r0, #8]
  hi2c1.Init.OwnAddress1 = 0;
 8000a64:	60c3      	str	r3, [r0, #12]
  hi2c1.Init.AddressingMode = I2C_ADDRESSINGMODE_7BIT;
 8000a66:	f44f 4280 	mov.w	r2, #16384	@ 0x4000
 8000a6a:	6102      	str	r2, [r0, #16]
  hi2c1.Init.DualAddressMode = I2C_DUALADDRESS_DISABLE;
 8000a6c:	6143      	str	r3, [r0, #20]
  hi2c1.Init.OwnAddress2 = 0;
 8000a6e:	6183      	str	r3, [r0, #24]
  hi2c1.Init.GeneralCallMode = I2C_GENERALCALL_DISABLE;
 8000a70:	61c3      	str	r3, [r0, #28]
  hi2c1.Init.NoStretchMode = I2C_NOSTRETCH_DISABLE;
 8000a72:	6203      	str	r3, [r0, #32]
  if (HAL_I2C_Init(&hi2c1) != HAL_OK)
 8000a74:	f001 f8fe 	bl	8001c74 <HAL_I2C_Init>
 8000a78:	b900      	cbnz	r0, 8000a7c <MX_I2C1_Init+0x28>
}
 8000a7a:	bd08      	pop	{r3, pc}
    Error_Handler();
 8000a7c:	f7ff ffe8 	bl	8000a50 <Error_Handler>
 8000a80:	20004d24 	.word	0x20004d24
 8000a84:	40005400 	.word	0x40005400
 8000a88:	000186a0 	.word	0x000186a0

08000a8c <MX_I2S3_Init>:
{
 8000a8c:	b508      	push	{r3, lr}
  hi2s3.Instance = SPI3;
 8000a8e:	480c      	ldr	r0, [pc, #48]	@ (8000ac0 <MX_I2S3_Init+0x34>)
 8000a90:	4b0c      	ldr	r3, [pc, #48]	@ (8000ac4 <MX_I2S3_Init+0x38>)
 8000a92:	6003      	str	r3, [r0, #0]
  hi2s3.Init.Mode = I2S_MODE_MASTER_TX;
 8000a94:	f44f 7200 	mov.w	r2, #512	@ 0x200
 8000a98:	6042      	str	r2, [r0, #4]
  hi2s3.Init.Standard = I2S_STANDARD_PHILIPS;
 8000a9a:	2300      	movs	r3, #0
 8000a9c:	6083      	str	r3, [r0, #8]
  hi2s3.Init.DataFormat = I2S_DATAFORMAT_24B;
 8000a9e:	2103      	movs	r1, #3
 8000aa0:	60c1      	str	r1, [r0, #12]
  hi2s3.Init.MCLKOutput = I2S_MCLKOUTPUT_ENABLE;
 8000aa2:	6102      	str	r2, [r0, #16]
  hi2s3.Init.AudioFreq = I2S_AUDIOFREQ_32K;
 8000aa4:	f44f 42fa 	mov.w	r2, #32000	@ 0x7d00
 8000aa8:	6142      	str	r2, [r0, #20]
  hi2s3.Init.CPOL = I2S_CPOL_LOW;
 8000aaa:	6183      	str	r3, [r0, #24]
  hi2s3.Init.ClockSource = I2S_CLOCK_PLL;
 8000aac:	61c3      	str	r3, [r0, #28]
  hi2s3.Init.FullDuplexMode = I2S_FULLDUPLEXMODE_ENABLE;
 8000aae:	2301      	movs	r3, #1
 8000ab0:	6203      	str	r3, [r0, #32]
  if (HAL_I2S_Init(&hi2s3) != HAL_OK)
 8000ab2:	f001 f9cb 	bl	8001e4c <HAL_I2S_Init>
 8000ab6:	b900      	cbnz	r0, 8000aba <MX_I2S3_Init+0x2e>
}
 8000ab8:	bd08      	pop	{r3, pc}
    Error_Handler();
 8000aba:	f7ff ffc9 	bl	8000a50 <Error_Handler>
 8000abe:	bf00      	nop
 8000ac0:	20004cdc 	.word	0x20004cdc
 8000ac4:	40003c00 	.word	0x40003c00

08000ac8 <MX_SPI1_Init>:
{
 8000ac8:	b508      	push	{r3, lr}
  hspi1.Instance = SPI1;
 8000aca:	480d      	ldr	r0, [pc, #52]	@ (8000b00 <MX_SPI1_Init+0x38>)
 8000acc:	4b0d      	ldr	r3, [pc, #52]	@ (8000b04 <MX_SPI1_Init+0x3c>)
 8000ace:	6003      	str	r3, [r0, #0]
  hspi1.Init.Mode = SPI_MODE_MASTER;
 8000ad0:	f44f 7382 	mov.w	r3, #260	@ 0x104
 8000ad4:	6043      	str	r3, [r0, #4]
  hspi1.Init.Direction = SPI_DIRECTION_2LINES;
 8000ad6:	2300      	movs	r3, #0
 8000ad8:	6083      	str	r3, [r0, #8]
  hspi1.Init.DataSize = SPI_DATASIZE_8BIT;
 8000ada:	60c3      	str	r3, [r0, #12]
  hspi1.Init.CLKPolarity = SPI_POLARITY_LOW;
 8000adc:	6103      	str	r3, [r0, #16]
  hspi1.Init.CLKPhase = SPI_PHASE_1EDGE;
 8000ade:	6143      	str	r3, [r0, #20]
  hspi1.Init.NSS = SPI_NSS_SOFT;
 8000ae0:	f44f 7200 	mov.w	r2, #512	@ 0x200
 8000ae4:	6182      	str	r2, [r0, #24]
  hspi1.Init.BaudRatePrescaler = SPI_BAUDRATEPRESCALER_2;
 8000ae6:	61c3      	str	r3, [r0, #28]
  hspi1.Init.FirstBit = SPI_FIRSTBIT_MSB;
 8000ae8:	6203      	str	r3, [r0, #32]
  hspi1.Init.TIMode = SPI_TIMODE_DISABLE;
 8000aea:	6243      	str	r3, [r0, #36]	@ 0x24
  hspi1.Init.CRCCalculation = SPI_CRCCALCULATION_DISABLE;
 8000aec:	6283      	str	r3, [r0, #40]	@ 0x28
  hspi1.Init.CRCPolynomial = 10;
 8000aee:	230a      	movs	r3, #10
 8000af0:	62c3      	str	r3, [r0, #44]	@ 0x2c
  if (HAL_SPI_Init(&hspi1) != HAL_OK)
 8000af2:	f003 fa3d 	bl	8003f70 <HAL_SPI_Init>
 8000af6:	b900      	cbnz	r0, 8000afa <MX_SPI1_Init+0x32>
}
 8000af8:	bd08      	pop	{r3, pc}
    Error_Handler();
 8000afa:	f7ff ffa9 	bl	8000a50 <Error_Handler>
 8000afe:	bf00      	nop
 8000b00:	20004c84 	.word	0x20004c84
 8000b04:	40013000 	.word	0x40013000

08000b08 <MX_SPI2_Init>:
{
 8000b08:	b508      	push	{r3, lr}
  hspi2.Instance = SPI2;
 8000b0a:	480b      	ldr	r0, [pc, #44]	@ (8000b38 <MX_SPI2_Init+0x30>)
 8000b0c:	4b0b      	ldr	r3, [pc, #44]	@ (8000b3c <MX_SPI2_Init+0x34>)
 8000b0e:	6003      	str	r3, [r0, #0]
  hspi2.Init.Mode = SPI_MODE_SLAVE;
 8000b10:	2300      	movs	r3, #0
 8000b12:	6043      	str	r3, [r0, #4]
  hspi2.Init.Direction = SPI_DIRECTION_2LINES;
 8000b14:	6083      	str	r3, [r0, #8]
  hspi2.Init.DataSize = SPI_DATASIZE_8BIT;
 8000b16:	60c3      	str	r3, [r0, #12]
  hspi2.Init.CLKPolarity = SPI_POLARITY_LOW;
 8000b18:	6103      	str	r3, [r0, #16]
  hspi2.Init.CLKPhase = SPI_PHASE_1EDGE;
 8000b1a:	6143      	str	r3, [r0, #20]
  hspi2.Init.NSS = SPI_NSS_SOFT;
 8000b1c:	f44f 7200 	mov.w	r2, #512	@ 0x200
 8000b20:	6182      	str	r2, [r0, #24]
  hspi2.Init.FirstBit = SPI_FIRSTBIT_MSB;
 8000b22:	6203      	str	r3, [r0, #32]
  hspi2.Init.TIMode = SPI_TIMODE_DISABLE;
 8000b24:	6243      	str	r3, [r0, #36]	@ 0x24
  hspi2.Init.CRCCalculation = SPI_CRCCALCULATION_DISABLE;
 8000b26:	6283      	str	r3, [r0, #40]	@ 0x28
  hspi2.Init.CRCPolynomial = 10;
 8000b28:	230a      	movs	r3, #10
 8000b2a:	62c3      	str	r3, [r0, #44]	@ 0x2c
  if (HAL_SPI_Init(&hspi2) != HAL_OK)
 8000b2c:	f003 fa20 	bl	8003f70 <HAL_SPI_Init>
 8000b30:	b900      	cbnz	r0, 8000b34 <MX_SPI2_Init+0x2c>
}
 8000b32:	bd08      	pop	{r3, pc}
    Error_Handler();
 8000b34:	f7ff ff8c 	bl	8000a50 <Error_Handler>
 8000b38:	20004c2c 	.word	0x20004c2c
 8000b3c:	40003800 	.word	0x40003800

08000b40 <MX_USB_OTG_FS_PCD_Init>:
{
 8000b40:	b508      	push	{r3, lr}
  hpcd_USB_OTG_FS.Instance = USB_OTG_FS;
 8000b42:	480b      	ldr	r0, [pc, #44]	@ (8000b70 <MX_USB_OTG_FS_PCD_Init+0x30>)
 8000b44:	f04f 43a0 	mov.w	r3, #1342177280	@ 0x50000000
 8000b48:	6003      	str	r3, [r0, #0]
  hpcd_USB_OTG_FS.Init.dev_endpoints = 4;
 8000b4a:	2304      	movs	r3, #4
 8000b4c:	7103      	strb	r3, [r0, #4]
  hpcd_USB_OTG_FS.Init.speed = PCD_SPEED_FULL;
 8000b4e:	2202      	movs	r2, #2
 8000b50:	71c2      	strb	r2, [r0, #7]
  hpcd_USB_OTG_FS.Init.dma_enable = DISABLE;
 8000b52:	2300      	movs	r3, #0
 8000b54:	7183      	strb	r3, [r0, #6]
  hpcd_USB_OTG_FS.Init.phy_itface = PCD_PHY_EMBEDDED;
 8000b56:	7242      	strb	r2, [r0, #9]
  hpcd_USB_OTG_FS.Init.Sof_enable = DISABLE;
 8000b58:	7283      	strb	r3, [r0, #10]
  hpcd_USB_OTG_FS.Init.low_power_enable = DISABLE;
 8000b5a:	72c3      	strb	r3, [r0, #11]
  hpcd_USB_OTG_FS.Init.lpm_enable = DISABLE;
 8000b5c:	7303      	strb	r3, [r0, #12]
  hpcd_USB_OTG_FS.Init.vbus_sensing_enable = DISABLE;
 8000b5e:	7383      	strb	r3, [r0, #14]
  hpcd_USB_OTG_FS.Init.use_dedicated_ep1 = DISABLE;
 8000b60:	73c3      	strb	r3, [r0, #15]
  if (HAL_PCD_Init(&hpcd_USB_OTG_FS) != HAL_OK)
 8000b62:	f002 f885 	bl	8002c70 <HAL_PCD_Init>
 8000b66:	b900      	cbnz	r0, 8000b6a <MX_USB_OTG_FS_PCD_Init+0x2a>
}
 8000b68:	bd08      	pop	{r3, pc}
    Error_Handler();
 8000b6a:	f7ff ff71 	bl	8000a50 <Error_Handler>
 8000b6e:	bf00      	nop
 8000b70:	20004748 	.word	0x20004748

08000b74 <SystemClock_Config>:
{
 8000b74:	b510      	push	{r4, lr}
 8000b76:	b094      	sub	sp, #80	@ 0x50
  RCC_OscInitTypeDef RCC_OscInitStruct = {0};
 8000b78:	ac08      	add	r4, sp, #32
 8000b7a:	2230      	movs	r2, #48	@ 0x30
 8000b7c:	2100      	movs	r1, #0
 8000b7e:	4620      	mov	r0, r4
 8000b80:	f004 ff69 	bl	8005a56 <memset>
  RCC_ClkInitTypeDef RCC_ClkInitStruct = {0};
 8000b84:	2300      	movs	r3, #0
 8000b86:	9303      	str	r3, [sp, #12]
 8000b88:	9304      	str	r3, [sp, #16]
 8000b8a:	9305      	str	r3, [sp, #20]
 8000b8c:	9306      	str	r3, [sp, #24]
 8000b8e:	9307      	str	r3, [sp, #28]
  __HAL_RCC_PWR_CLK_ENABLE();
 8000b90:	9301      	str	r3, [sp, #4]
 8000b92:	4a20      	ldr	r2, [pc, #128]	@ (8000c14 <SystemClock_Config+0xa0>)
 8000b94:	6c11      	ldr	r1, [r2, #64]	@ 0x40
 8000b96:	f041 5180 	orr.w	r1, r1, #268435456	@ 0x10000000
 8000b9a:	6411      	str	r1, [r2, #64]	@ 0x40
 8000b9c:	6c12      	ldr	r2, [r2, #64]	@ 0x40
 8000b9e:	f002 5280 	and.w	r2, r2, #268435456	@ 0x10000000
 8000ba2:	9201      	str	r2, [sp, #4]
 8000ba4:	9a01      	ldr	r2, [sp, #4]
  __HAL_PWR_VOLTAGESCALING_CONFIG(PWR_REGULATOR_VOLTAGE_SCALE1);
 8000ba6:	9302      	str	r3, [sp, #8]
 8000ba8:	4b1b      	ldr	r3, [pc, #108]	@ (8000c18 <SystemClock_Config+0xa4>)
 8000baa:	681a      	ldr	r2, [r3, #0]
 8000bac:	f442 4280 	orr.w	r2, r2, #16384	@ 0x4000
 8000bb0:	601a      	str	r2, [r3, #0]
 8000bb2:	681b      	ldr	r3, [r3, #0]
 8000bb4:	f403 4380 	and.w	r3, r3, #16384	@ 0x4000
 8000bb8:	9302      	str	r3, [sp, #8]
 8000bba:	9b02      	ldr	r3, [sp, #8]
  RCC_OscInitStruct.OscillatorType = RCC_OSCILLATORTYPE_HSE;
 8000bbc:	2301      	movs	r3, #1
 8000bbe:	9308      	str	r3, [sp, #32]
  RCC_OscInitStruct.HSEState = RCC_HSE_ON;
 8000bc0:	f44f 3380 	mov.w	r3, #65536	@ 0x10000
 8000bc4:	9309      	str	r3, [sp, #36]	@ 0x24
  RCC_OscInitStruct.PLL.PLLState = RCC_PLL_ON;
 8000bc6:	2302      	movs	r3, #2
 8000bc8:	930e      	str	r3, [sp, #56]	@ 0x38
  RCC_OscInitStruct.PLL.PLLSource = RCC_PLLSOURCE_HSE;
 8000bca:	f44f 0280 	mov.w	r2, #4194304	@ 0x400000
 8000bce:	920f      	str	r2, [sp, #60]	@ 0x3c
  RCC_OscInitStruct.PLL.PLLM = 8;
 8000bd0:	2208      	movs	r2, #8
 8000bd2:	9210      	str	r2, [sp, #64]	@ 0x40
  RCC_OscInitStruct.PLL.PLLN = 336;
 8000bd4:	f44f 72a8 	mov.w	r2, #336	@ 0x150
 8000bd8:	9211      	str	r2, [sp, #68]	@ 0x44
  RCC_OscInitStruct.PLL.PLLP = RCC_PLLP_DIV2;
 8000bda:	9312      	str	r3, [sp, #72]	@ 0x48
  RCC_OscInitStruct.PLL.PLLQ = 7;
 8000bdc:	2307      	movs	r3, #7
 8000bde:	9313      	str	r3, [sp, #76]	@ 0x4c
  if (HAL_RCC_OscConfig(&RCC_OscInitStruct) != HAL_OK)
 8000be0:	4620      	mov	r0, r4
 8000be2:	f002 fc95 	bl	8003510 <HAL_RCC_OscConfig>
 8000be6:	b988      	cbnz	r0, 8000c0c <SystemClock_Config+0x98>
  RCC_ClkInitStruct.ClockType = RCC_CLOCKTYPE_HCLK|RCC_CLOCKTYPE_SYSCLK
 8000be8:	230f      	movs	r3, #15
 8000bea:	9303      	str	r3, [sp, #12]
  RCC_ClkInitStruct.SYSCLKSource = RCC_SYSCLKSOURCE_PLLCLK;
 8000bec:	2302      	movs	r3, #2
 8000bee:	9304      	str	r3, [sp, #16]
  RCC_ClkInitStruct.AHBCLKDivider = RCC_SYSCLK_DIV1;
 8000bf0:	9005      	str	r0, [sp, #20]
  RCC_ClkInitStruct.APB1CLKDivider = RCC_HCLK_DIV4;
 8000bf2:	f44f 53a0 	mov.w	r3, #5120	@ 0x1400
 8000bf6:	9306      	str	r3, [sp, #24]
  RCC_ClkInitStruct.APB2CLKDivider = RCC_HCLK_DIV2;
 8000bf8:	f44f 5380 	mov.w	r3, #4096	@ 0x1000
 8000bfc:	9307      	str	r3, [sp, #28]
  if (HAL_RCC_ClockConfig(&RCC_ClkInitStruct, FLASH_LATENCY_5) != HAL_OK)
 8000bfe:	2105      	movs	r1, #5
 8000c00:	a803      	add	r0, sp, #12
 8000c02:	f002 fef1 	bl	80039e8 <HAL_RCC_ClockConfig>
 8000c06:	b918      	cbnz	r0, 8000c10 <SystemClock_Config+0x9c>
}
 8000c08:	b014      	add	sp, #80	@ 0x50
 8000c0a:	bd10      	pop	{r4, pc}
    Error_Handler();
 8000c0c:	f7ff ff20 	bl	8000a50 <Error_Handler>
    Error_Handler();
 8000c10:	f7ff ff1e 	bl	8000a50 <Error_Handler>
 8000c14:	40023800 	.word	0x40023800
 8000c18:	40007000 	.word	0x40007000

08000c1c <main>:
{
 8000c1c:	b500      	push	{lr}
 8000c1e:	b09d      	sub	sp, #116	@ 0x74
  HAL_Init();
 8000c20:	f000 fe68 	bl	80018f4 <HAL_Init>
  GPIO_InitTypeDef GPIO_InitStruct = {0};
 8000c24:	a917      	add	r1, sp, #92	@ 0x5c
 8000c26:	2500      	movs	r5, #0
 8000c28:	9517      	str	r5, [sp, #92]	@ 0x5c
 8000c2a:	604d      	str	r5, [r1, #4]
 8000c2c:	608d      	str	r5, [r1, #8]
 8000c2e:	60cd      	str	r5, [r1, #12]
 8000c30:	610d      	str	r5, [r1, #16]
  GPIO_InitStruct.Pin = GPIO_PIN_12;
 8000c32:	f44f 5380 	mov.w	r3, #4096	@ 0x1000
 8000c36:	9317      	str	r3, [sp, #92]	@ 0x5c
  GPIO_InitStruct.Mode = GPIO_MODE_OUTPUT_PP; // Push-Pull
 8000c38:	2301      	movs	r3, #1
 8000c3a:	9318      	str	r3, [sp, #96]	@ 0x60
  HAL_GPIO_Init(GPIOD, &GPIO_InitStruct);
 8000c3c:	4827      	ldr	r0, [pc, #156]	@ (8000cdc <main+0xc0>)
 8000c3e:	f000 ff05 	bl	8001a4c <HAL_GPIO_Init>
  SystemClock_Config();
 8000c42:	f7ff ff97 	bl	8000b74 <SystemClock_Config>
  MX_GPIO_Init();
 8000c46:	f7ff fe1f 	bl	8000888 <MX_GPIO_Init>
  MX_I2C1_Init();
 8000c4a:	f7ff ff03 	bl	8000a54 <MX_I2C1_Init>
  MX_I2S3_Init();
 8000c4e:	f7ff ff1d 	bl	8000a8c <MX_I2S3_Init>
  MX_SPI1_Init();
 8000c52:	f7ff ff39 	bl	8000ac8 <MX_SPI1_Init>
  MX_SPI2_Init();
 8000c56:	f7ff ff57 	bl	8000b08 <MX_SPI2_Init>
  MX_USB_OTG_FS_PCD_Init();
 8000c5a:	f7ff ff71 	bl	8000b40 <MX_USB_OTG_FS_PCD_Init>
  osMutexDef(paramsMutex);
 8000c5e:	9515      	str	r5, [sp, #84]	@ 0x54
 8000c60:	9516      	str	r5, [sp, #88]	@ 0x58
  g_params_mutex = osMutexCreate(osMutex(paramsMutex));
 8000c62:	a815      	add	r0, sp, #84	@ 0x54
 8000c64:	f7ff fb1b 	bl	800029e <osMutexCreate>
 8000c68:	4b1d      	ldr	r3, [pc, #116]	@ (8000ce0 <main+0xc4>)
 8000c6a:	6018      	str	r0, [r3, #0]
  osThreadDef(defaultTask, StartDefaultTask, osPriorityNormal, 0, 128);
 8000c6c:	4c1d      	ldr	r4, [pc, #116]	@ (8000ce4 <main+0xc8>)
 8000c6e:	f10d 0c38 	add.w	ip, sp, #56	@ 0x38
 8000c72:	46a6      	mov	lr, r4
 8000c74:	e8be 000f 	ldmia.w	lr!, {r0, r1, r2, r3}
 8000c78:	e8ac 000f 	stmia.w	ip!, {r0, r1, r2, r3}
 8000c7c:	e89e 0007 	ldmia.w	lr, {r0, r1, r2}
 8000c80:	e88c 0007 	stmia.w	ip, {r0, r1, r2}
  defaultTaskHandle = osThreadCreate(osThread(defaultTask), NULL);
 8000c84:	4629      	mov	r1, r5
 8000c86:	a80e      	add	r0, sp, #56	@ 0x38
 8000c88:	f7ff facf 	bl	800022a <osThreadCreate>
 8000c8c:	4b16      	ldr	r3, [pc, #88]	@ (8000ce8 <main+0xcc>)
 8000c8e:	6018      	str	r0, [r3, #0]
  osThreadDef(dspTask, StartDSPTask, osPriorityRealtime, 0, 512);
 8000c90:	f10d 0c1c 	add.w	ip, sp, #28
 8000c94:	f104 0e1c 	add.w	lr, r4, #28
 8000c98:	e8be 000f 	ldmia.w	lr!, {r0, r1, r2, r3}
 8000c9c:	e8ac 000f 	stmia.w	ip!, {r0, r1, r2, r3}
 8000ca0:	e89e 0007 	ldmia.w	lr, {r0, r1, r2}
 8000ca4:	e88c 0007 	stmia.w	ip, {r0, r1, r2}
  dspTaskHandle = osThreadCreate(osThread(dspTask), NULL);
 8000ca8:	4629      	mov	r1, r5
 8000caa:	a807      	add	r0, sp, #28
 8000cac:	f7ff fabd 	bl	800022a <osThreadCreate>
 8000cb0:	4b0e      	ldr	r3, [pc, #56]	@ (8000cec <main+0xd0>)
 8000cb2:	6018      	str	r0, [r3, #0]
  osThreadDef(spiTask, StartSPITask, osPriorityAboveNormal, 0, 256);
 8000cb4:	46ee      	mov	lr, sp
 8000cb6:	f104 0c38 	add.w	ip, r4, #56	@ 0x38
 8000cba:	e8bc 000f 	ldmia.w	ip!, {r0, r1, r2, r3}
 8000cbe:	e8ae 000f 	stmia.w	lr!, {r0, r1, r2, r3}
 8000cc2:	e89c 0007 	ldmia.w	ip, {r0, r1, r2}
 8000cc6:	e88e 0007 	stmia.w	lr, {r0, r1, r2}
  spiTaskHandle = osThreadCreate(osThread(spiTask), NULL);
 8000cca:	4629      	mov	r1, r5
 8000ccc:	4668      	mov	r0, sp
 8000cce:	f7ff faac 	bl	800022a <osThreadCreate>
 8000cd2:	4b07      	ldr	r3, [pc, #28]	@ (8000cf0 <main+0xd4>)
 8000cd4:	6018      	str	r0, [r3, #0]
  osKernelStart();
 8000cd6:	f7ff faa3 	bl	8000220 <osKernelStart>
  while (1)
 8000cda:	e7fe      	b.n	8000cda <main+0xbe>
 8000cdc:	40020c00 	.word	0x40020c00
 8000ce0:	200008c4 	.word	0x200008c4
 8000ce4:	08005e04 	.word	0x08005e04
 8000ce8:	20004744 	.word	0x20004744
 8000cec:	20004740 	.word	0x20004740
 8000cf0:	2000473c 	.word	0x2000473c

08000cf4 <prvTaskExitError>:
	return pxTopOfStack;
}
/*-----------------------------------------------------------*/

static void prvTaskExitError( void )
{
 8000cf4:	b082      	sub	sp, #8
volatile uint32_t ulDummy = 0;
 8000cf6:	2300      	movs	r3, #0
 8000cf8:	9301      	str	r3, [sp, #4]
	its caller as there is nothing to return to.  If a task wants to exit it
	should instead call vTaskDelete( NULL ).

	Artificially force an assert() to be triggered if configASSERT() is
	defined, then stop here so application writers can catch the error. */
	configASSERT( uxCriticalNesting == ~0UL );
 8000cfa:	4b0d      	ldr	r3, [pc, #52]	@ (8000d30 <prvTaskExitError+0x3c>)
 8000cfc:	681b      	ldr	r3, [r3, #0]
 8000cfe:	f1b3 3fff 	cmp.w	r3, #4294967295
 8000d02:	d008      	beq.n	8000d16 <prvTaskExitError+0x22>
 8000d04:	f04f 0350 	mov.w	r3, #80	@ 0x50
 8000d08:	f383 8811 	msr	BASEPRI, r3
 8000d0c:	f3bf 8f6f 	isb	sy
 8000d10:	f3bf 8f4f 	dsb	sy
 8000d14:	e7fe      	b.n	8000d14 <prvTaskExitError+0x20>
 8000d16:	f04f 0350 	mov.w	r3, #80	@ 0x50
 8000d1a:	f383 8811 	msr	BASEPRI, r3
 8000d1e:	f3bf 8f6f 	isb	sy
 8000d22:	f3bf 8f4f 	dsb	sy
	portDISABLE_INTERRUPTS();
	while( ulDummy == 0 )
 8000d26:	9b01      	ldr	r3, [sp, #4]
 8000d28:	2b00      	cmp	r3, #0
 8000d2a:	d0fc      	beq.n	8000d26 <prvTaskExitError+0x32>
		about code appearing after this function is called - making ulDummy
		volatile makes the compiler think the function could return and
		therefore not output an 'unreachable code' warning for code that appears
		after it. */
	}
}
 8000d2c:	b002      	add	sp, #8
 8000d2e:	4770      	bx	lr
 8000d30:	2000000c 	.word	0x2000000c

08000d34 <prvPortStartFirstTask>:
{
	/* Start the first task.  This also clears the bit that indicates the FPU is
	in use in case the FPU was used before the scheduler was started - which
	would otherwise result in the unnecessary leaving of space in the SVC stack
	for lazy saving of FPU registers. */
	__asm volatile(
 8000d34:	4808      	ldr	r0, [pc, #32]	@ (8000d58 <prvPortStartFirstTask+0x24>)
 8000d36:	6800      	ldr	r0, [r0, #0]
 8000d38:	6800      	ldr	r0, [r0, #0]
 8000d3a:	f380 8808 	msr	MSP, r0
 8000d3e:	f04f 0000 	mov.w	r0, #0
 8000d42:	f380 8814 	msr	CONTROL, r0
 8000d46:	b662      	cpsie	i
 8000d48:	b661      	cpsie	f
 8000d4a:	f3bf 8f4f 	dsb	sy
 8000d4e:	f3bf 8f6f 	isb	sy
 8000d52:	df00      	svc	0
 8000d54:	bf00      	nop
					" dsb					\n"
					" isb					\n"
					" svc 0					\n" /* System call to start first task. */
					" nop					\n"
				);
}
 8000d56:	0000      	.short	0x0000
 8000d58:	e000ed08 	.word	0xe000ed08

08000d5c <vPortEnableVFP>:
/*-----------------------------------------------------------*/

/* This is a naked function. */
static void vPortEnableVFP( void )
{
	__asm volatile
 8000d5c:	f8df 000c 	ldr.w	r0, [pc, #12]	@ 8000d6c <vPortEnableVFP+0x10>
 8000d60:	6801      	ldr	r1, [r0, #0]
 8000d62:	f441 0170 	orr.w	r1, r1, #15728640	@ 0xf00000
 8000d66:	6001      	str	r1, [r0, #0]
 8000d68:	4770      	bx	lr
		"								\n"
		"	orr r1, r1, #( 0xf << 20 )	\n" /* Enable CP10 and CP11 coprocessors, then save back. */
		"	str r1, [r0]				\n"
		"	bx r14						"
	);
}
 8000d6a:	0000      	.short	0x0000
 8000d6c:	e000ed88 	.word	0xe000ed88

08000d70 <pxPortInitialiseStack>:
	*pxTopOfStack = portINITIAL_XPSR;	/* xPSR */
 8000d70:	f04f 7380 	mov.w	r3, #16777216	@ 0x1000000
 8000d74:	f840 3c04 	str.w	r3, [r0, #-4]
	*pxTopOfStack = ( ( StackType_t ) pxCode ) & portSTART_ADDRESS_MASK;	/* PC */
 8000d78:	f021 0101 	bic.w	r1, r1, #1
 8000d7c:	f840 1c08 	str.w	r1, [r0, #-8]
	*pxTopOfStack = ( StackType_t ) portTASK_RETURN_ADDRESS;	/* LR */
 8000d80:	4b05      	ldr	r3, [pc, #20]	@ (8000d98 <pxPortInitialiseStack+0x28>)
 8000d82:	f840 3c0c 	str.w	r3, [r0, #-12]
	*pxTopOfStack = ( StackType_t ) pvParameters;	/* R0 */
 8000d86:	f840 2c20 	str.w	r2, [r0, #-32]
	*pxTopOfStack = portINITIAL_EXC_RETURN;
 8000d8a:	f06f 0302 	mvn.w	r3, #2
 8000d8e:	f840 3c24 	str.w	r3, [r0, #-36]
}
 8000d92:	3844      	subs	r0, #68	@ 0x44
 8000d94:	4770      	bx	lr
 8000d96:	bf00      	nop
 8000d98:	08000cf5 	.word	0x08000cf5
 8000d9c:	00000000 	.word	0x00000000

08000da0 <SVC_Handler>:
	__asm volatile (
 8000da0:	4b07      	ldr	r3, [pc, #28]	@ (8000dc0 <pxCurrentTCBConst2>)
 8000da2:	6819      	ldr	r1, [r3, #0]
 8000da4:	6808      	ldr	r0, [r1, #0]
 8000da6:	e8b0 4ff0 	ldmia.w	r0!, {r4, r5, r6, r7, r8, r9, sl, fp, lr}
 8000daa:	f380 8809 	msr	PSP, r0
 8000dae:	f3bf 8f6f 	isb	sy
 8000db2:	f04f 0000 	mov.w	r0, #0
 8000db6:	f380 8811 	msr	BASEPRI, r0
 8000dba:	4770      	bx	lr
 8000dbc:	f3af 8000 	nop.w

08000dc0 <pxCurrentTCBConst2>:
 8000dc0:	20004ef4 	.word	0x20004ef4

08000dc4 <vPortEnterCritical>:
 8000dc4:	f04f 0350 	mov.w	r3, #80	@ 0x50
 8000dc8:	f383 8811 	msr	BASEPRI, r3
 8000dcc:	f3bf 8f6f 	isb	sy
 8000dd0:	f3bf 8f4f 	dsb	sy
	uxCriticalNesting++;
 8000dd4:	4a0b      	ldr	r2, [pc, #44]	@ (8000e04 <vPortEnterCritical+0x40>)
 8000dd6:	6813      	ldr	r3, [r2, #0]
 8000dd8:	3301      	adds	r3, #1
 8000dda:	6013      	str	r3, [r2, #0]
	if( uxCriticalNesting == 1 )
 8000ddc:	2b01      	cmp	r3, #1
 8000dde:	d000      	beq.n	8000de2 <vPortEnterCritical+0x1e>
}
 8000de0:	4770      	bx	lr
		configASSERT( ( portNVIC_INT_CTRL_REG & portVECTACTIVE_MASK ) == 0 );
 8000de2:	f04f 23e0 	mov.w	r3, #3758153728	@ 0xe000e000
 8000de6:	f8d3 3d04 	ldr.w	r3, [r3, #3332]	@ 0xd04
 8000dea:	f013 0fff 	tst.w	r3, #255	@ 0xff
 8000dee:	d0f7      	beq.n	8000de0 <vPortEnterCritical+0x1c>
 8000df0:	f04f 0350 	mov.w	r3, #80	@ 0x50
 8000df4:	f383 8811 	msr	BASEPRI, r3
 8000df8:	f3bf 8f6f 	isb	sy
 8000dfc:	f3bf 8f4f 	dsb	sy
 8000e00:	e7fe      	b.n	8000e00 <vPortEnterCritical+0x3c>
 8000e02:	bf00      	nop
 8000e04:	2000000c 	.word	0x2000000c

08000e08 <vPortExitCritical>:
	configASSERT( uxCriticalNesting );
 8000e08:	4b09      	ldr	r3, [pc, #36]	@ (8000e30 <vPortExitCritical+0x28>)
 8000e0a:	681b      	ldr	r3, [r3, #0]
 8000e0c:	b943      	cbnz	r3, 8000e20 <vPortExitCritical+0x18>
 8000e0e:	f04f 0350 	mov.w	r3, #80	@ 0x50
 8000e12:	f383 8811 	msr	BASEPRI, r3
 8000e16:	f3bf 8f6f 	isb	sy
 8000e1a:	f3bf 8f4f 	dsb	sy
 8000e1e:	e7fe      	b.n	8000e1e <vPortExitCritical+0x16>
	uxCriticalNesting--;
 8000e20:	3b01      	subs	r3, #1
 8000e22:	4a03      	ldr	r2, [pc, #12]	@ (8000e30 <vPortExitCritical+0x28>)
 8000e24:	6013      	str	r3, [r2, #0]
	if( uxCriticalNesting == 0 )
 8000e26:	b90b      	cbnz	r3, 8000e2c <vPortExitCritical+0x24>
}
/*-----------------------------------------------------------*/

portFORCE_INLINE static void vPortSetBASEPRI( uint32_t ulNewMaskValue )
{
	__asm volatile
 8000e28:	f383 8811 	msr	BASEPRI, r3
}
 8000e2c:	4770      	bx	lr
 8000e2e:	bf00      	nop
 8000e30:	2000000c 	.word	0x2000000c
	...

08000e40 <PendSV_Handler>:
	__asm volatile
 8000e40:	f3ef 8009 	mrs	r0, PSP
 8000e44:	f3bf 8f6f 	isb	sy
 8000e48:	4b15      	ldr	r3, [pc, #84]	@ (8000ea0 <pxCurrentTCBConst>)
 8000e4a:	681a      	ldr	r2, [r3, #0]
 8000e4c:	f01e 0f10 	tst.w	lr, #16
 8000e50:	bf08      	it	eq
 8000e52:	ed20 8a10 	vstmdbeq	r0!, {s16-s31}
 8000e56:	e920 4ff0 	stmdb	r0!, {r4, r5, r6, r7, r8, r9, sl, fp, lr}
 8000e5a:	6010      	str	r0, [r2, #0]
 8000e5c:	b409      	push	{r0, r3}
 8000e5e:	f04f 0050 	mov.w	r0, #80	@ 0x50
 8000e62:	f380 8811 	msr	BASEPRI, r0
 8000e66:	f3bf 8f4f 	dsb	sy
 8000e6a:	f3bf 8f6f 	isb	sy
 8000e6e:	f004 fba1 	bl	80055b4 <vTaskSwitchContext>
 8000e72:	f04f 0000 	mov.w	r0, #0
 8000e76:	f380 8811 	msr	BASEPRI, r0
 8000e7a:	bc09      	pop	{r0, r3}
 8000e7c:	6819      	ldr	r1, [r3, #0]
 8000e7e:	6808      	ldr	r0, [r1, #0]
 8000e80:	e8b0 4ff0 	ldmia.w	r0!, {r4, r5, r6, r7, r8, r9, sl, fp, lr}
 8000e84:	f01e 0f10 	tst.w	lr, #16
 8000e88:	bf08      	it	eq
 8000e8a:	ecb0 8a10 	vldmiaeq	r0!, {s16-s31}
 8000e8e:	f380 8809 	msr	PSP, r0
 8000e92:	f3bf 8f6f 	isb	sy
 8000e96:	4770      	bx	lr
 8000e98:	f3af 8000 	nop.w
 8000e9c:	f3af 8000 	nop.w

08000ea0 <pxCurrentTCBConst>:
 8000ea0:	20004ef4 	.word	0x20004ef4

08000ea4 <SysTick_Handler>:
{
 8000ea4:	b508      	push	{r3, lr}
	__asm volatile
 8000ea6:	f04f 0350 	mov.w	r3, #80	@ 0x50
 8000eaa:	f383 8811 	msr	BASEPRI, r3
 8000eae:	f3bf 8f6f 	isb	sy
 8000eb2:	f3bf 8f4f 	dsb	sy
		if( xTaskIncrementTick() != pdFALSE )
 8000eb6:	f004 fa49 	bl	800534c <xTaskIncrementTick>
 8000eba:	b128      	cbz	r0, 8000ec8 <SysTick_Handler+0x24>
			portNVIC_INT_CTRL_REG = portNVIC_PENDSVSET_BIT;
 8000ebc:	f04f 23e0 	mov.w	r3, #3758153728	@ 0xe000e000
 8000ec0:	f04f 5280 	mov.w	r2, #268435456	@ 0x10000000
 8000ec4:	f8c3 2d04 	str.w	r2, [r3, #3332]	@ 0xd04
	__asm volatile
 8000ec8:	2300      	movs	r3, #0
 8000eca:	f383 8811 	msr	BASEPRI, r3
}
 8000ece:	bd08      	pop	{r3, pc}

08000ed0 <vPortSetupTimerInterrupt>:
	portNVIC_SYSTICK_CTRL_REG = 0UL;
 8000ed0:	f04f 22e0 	mov.w	r2, #3758153728	@ 0xe000e000
 8000ed4:	2300      	movs	r3, #0
 8000ed6:	6113      	str	r3, [r2, #16]
	portNVIC_SYSTICK_CURRENT_VALUE_REG = 0UL;
 8000ed8:	6193      	str	r3, [r2, #24]
	portNVIC_SYSTICK_LOAD_REG = ( configSYSTICK_CLOCK_HZ / configTICK_RATE_HZ ) - 1UL;
 8000eda:	4b05      	ldr	r3, [pc, #20]	@ (8000ef0 <vPortSetupTimerInterrupt+0x20>)
 8000edc:	681b      	ldr	r3, [r3, #0]
 8000ede:	4905      	ldr	r1, [pc, #20]	@ (8000ef4 <vPortSetupTimerInterrupt+0x24>)
 8000ee0:	fba1 1303 	umull	r1, r3, r1, r3
 8000ee4:	099b      	lsrs	r3, r3, #6
 8000ee6:	3b01      	subs	r3, #1
 8000ee8:	6153      	str	r3, [r2, #20]
	portNVIC_SYSTICK_CTRL_REG = ( portNVIC_SYSTICK_CLK_BIT | portNVIC_SYSTICK_INT_BIT | portNVIC_SYSTICK_ENABLE_BIT );
 8000eea:	2307      	movs	r3, #7
 8000eec:	6113      	str	r3, [r2, #16]
}
 8000eee:	4770      	bx	lr
 8000ef0:	20000018 	.word	0x20000018
 8000ef4:	10624dd3 	.word	0x10624dd3

08000ef8 <xPortStartScheduler>:
	configASSERT( portCPUID != portCORTEX_M7_r0p1_ID );
 8000ef8:	f04f 23e0 	mov.w	r3, #3758153728	@ 0xe000e000
 8000efc:	f8d3 2d00 	ldr.w	r2, [r3, #3328]	@ 0xd00
 8000f00:	4b3e      	ldr	r3, [pc, #248]	@ (8000ffc <xPortStartScheduler+0x104>)
 8000f02:	429a      	cmp	r2, r3
 8000f04:	d01c      	beq.n	8000f40 <xPortStartScheduler+0x48>
	configASSERT( portCPUID != portCORTEX_M7_r0p0_ID );
 8000f06:	f04f 23e0 	mov.w	r3, #3758153728	@ 0xe000e000
 8000f0a:	f8d3 2d00 	ldr.w	r2, [r3, #3328]	@ 0xd00
 8000f0e:	4b3c      	ldr	r3, [pc, #240]	@ (8001000 <xPortStartScheduler+0x108>)
 8000f10:	429a      	cmp	r2, r3
 8000f12:	d01e      	beq.n	8000f52 <xPortStartScheduler+0x5a>
{
 8000f14:	b510      	push	{r4, lr}
 8000f16:	b082      	sub	sp, #8
		ulOriginalPriority = *pucFirstUserPriorityRegister;
 8000f18:	4b3a      	ldr	r3, [pc, #232]	@ (8001004 <xPortStartScheduler+0x10c>)
 8000f1a:	781a      	ldrb	r2, [r3, #0]
 8000f1c:	b2d2      	uxtb	r2, r2
 8000f1e:	9201      	str	r2, [sp, #4]
		*pucFirstUserPriorityRegister = portMAX_8_BIT_VALUE;
 8000f20:	22ff      	movs	r2, #255	@ 0xff
 8000f22:	701a      	strb	r2, [r3, #0]
		ucMaxPriorityValue = *pucFirstUserPriorityRegister;
 8000f24:	781b      	ldrb	r3, [r3, #0]
 8000f26:	b2db      	uxtb	r3, r3
 8000f28:	f88d 3003 	strb.w	r3, [sp, #3]
		ucMaxSysCallPriority = configMAX_SYSCALL_INTERRUPT_PRIORITY & ucMaxPriorityValue;
 8000f2c:	f89d 3003 	ldrb.w	r3, [sp, #3]
 8000f30:	f003 0350 	and.w	r3, r3, #80	@ 0x50
 8000f34:	4a34      	ldr	r2, [pc, #208]	@ (8001008 <xPortStartScheduler+0x110>)
 8000f36:	7013      	strb	r3, [r2, #0]
		ulMaxPRIGROUPValue = portMAX_PRIGROUP_BITS;
 8000f38:	4b34      	ldr	r3, [pc, #208]	@ (800100c <xPortStartScheduler+0x114>)
 8000f3a:	2207      	movs	r2, #7
 8000f3c:	601a      	str	r2, [r3, #0]
		while( ( ucMaxPriorityValue & portTOP_BIT_OF_BYTE ) == portTOP_BIT_OF_BYTE )
 8000f3e:	e01b      	b.n	8000f78 <xPortStartScheduler+0x80>
	__asm volatile
 8000f40:	f04f 0350 	mov.w	r3, #80	@ 0x50
 8000f44:	f383 8811 	msr	BASEPRI, r3
 8000f48:	f3bf 8f6f 	isb	sy
 8000f4c:	f3bf 8f4f 	dsb	sy
	configASSERT( portCPUID != portCORTEX_M7_r0p1_ID );
 8000f50:	e7fe      	b.n	8000f50 <xPortStartScheduler+0x58>
 8000f52:	f04f 0350 	mov.w	r3, #80	@ 0x50
 8000f56:	f383 8811 	msr	BASEPRI, r3
 8000f5a:	f3bf 8f6f 	isb	sy
 8000f5e:	f3bf 8f4f 	dsb	sy
	configASSERT( portCPUID != portCORTEX_M7_r0p0_ID );
 8000f62:	e7fe      	b.n	8000f62 <xPortStartScheduler+0x6a>
			ulMaxPRIGROUPValue--;
 8000f64:	4a29      	ldr	r2, [pc, #164]	@ (800100c <xPortStartScheduler+0x114>)
 8000f66:	6813      	ldr	r3, [r2, #0]
 8000f68:	3b01      	subs	r3, #1
 8000f6a:	6013      	str	r3, [r2, #0]
			ucMaxPriorityValue <<= ( uint8_t ) 0x01;
 8000f6c:	f89d 3003 	ldrb.w	r3, [sp, #3]
 8000f70:	005b      	lsls	r3, r3, #1
 8000f72:	b2db      	uxtb	r3, r3
 8000f74:	f88d 3003 	strb.w	r3, [sp, #3]
		while( ( ucMaxPriorityValue & portTOP_BIT_OF_BYTE ) == portTOP_BIT_OF_BYTE )
 8000f78:	f89d 3003 	ldrb.w	r3, [sp, #3]
 8000f7c:	f013 0f80 	tst.w	r3, #128	@ 0x80
 8000f80:	d1f0      	bne.n	8000f64 <xPortStartScheduler+0x6c>
			configASSERT( ( portMAX_PRIGROUP_BITS - ulMaxPRIGROUPValue ) == configPRIO_BITS );
 8000f82:	4b22      	ldr	r3, [pc, #136]	@ (800100c <xPortStartScheduler+0x114>)
 8000f84:	681b      	ldr	r3, [r3, #0]
 8000f86:	2b03      	cmp	r3, #3
 8000f88:	d008      	beq.n	8000f9c <xPortStartScheduler+0xa4>
 8000f8a:	f04f 0350 	mov.w	r3, #80	@ 0x50
 8000f8e:	f383 8811 	msr	BASEPRI, r3
 8000f92:	f3bf 8f6f 	isb	sy
 8000f96:	f3bf 8f4f 	dsb	sy
 8000f9a:	e7fe      	b.n	8000f9a <xPortStartScheduler+0xa2>
		ulMaxPRIGROUPValue <<= portPRIGROUP_SHIFT;
 8000f9c:	021b      	lsls	r3, r3, #8
 8000f9e:	4a1b      	ldr	r2, [pc, #108]	@ (800100c <xPortStartScheduler+0x114>)
 8000fa0:	6013      	str	r3, [r2, #0]
		ulMaxPRIGROUPValue &= portPRIORITY_GROUP_MASK;
 8000fa2:	f403 63e0 	and.w	r3, r3, #1792	@ 0x700
 8000fa6:	6013      	str	r3, [r2, #0]
		*pucFirstUserPriorityRegister = ulOriginalPriority;
 8000fa8:	9b01      	ldr	r3, [sp, #4]
 8000faa:	b2db      	uxtb	r3, r3
 8000fac:	4a15      	ldr	r2, [pc, #84]	@ (8001004 <xPortStartScheduler+0x10c>)
 8000fae:	7013      	strb	r3, [r2, #0]
	portNVIC_SYSPRI2_REG |= portNVIC_PENDSV_PRI;
 8000fb0:	f04f 22e0 	mov.w	r2, #3758153728	@ 0xe000e000
 8000fb4:	f8d2 3d20 	ldr.w	r3, [r2, #3360]	@ 0xd20
 8000fb8:	f443 0370 	orr.w	r3, r3, #15728640	@ 0xf00000
 8000fbc:	f8c2 3d20 	str.w	r3, [r2, #3360]	@ 0xd20
	portNVIC_SYSPRI2_REG |= portNVIC_SYSTICK_PRI;
 8000fc0:	f8d2 3d20 	ldr.w	r3, [r2, #3360]	@ 0xd20
 8000fc4:	f043 4370 	orr.w	r3, r3, #4026531840	@ 0xf0000000
 8000fc8:	4614      	mov	r4, r2
 8000fca:	f8c2 3d20 	str.w	r3, [r2, #3360]	@ 0xd20
	vPortSetupTimerInterrupt();
 8000fce:	f7ff ff7f 	bl	8000ed0 <vPortSetupTimerInterrupt>
	uxCriticalNesting = 0;
 8000fd2:	4b0f      	ldr	r3, [pc, #60]	@ (8001010 <xPortStartScheduler+0x118>)
 8000fd4:	2200      	movs	r2, #0
 8000fd6:	601a      	str	r2, [r3, #0]
	vPortEnableVFP();
 8000fd8:	f7ff fec0 	bl	8000d5c <vPortEnableVFP>
	*( portFPCCR ) |= portASPEN_AND_LSPEN_BITS;
 8000fdc:	f8d4 3f34 	ldr.w	r3, [r4, #3892]	@ 0xf34
 8000fe0:	f043 4340 	orr.w	r3, r3, #3221225472	@ 0xc0000000
 8000fe4:	f8c4 3f34 	str.w	r3, [r4, #3892]	@ 0xf34
	prvPortStartFirstTask();
 8000fe8:	f7ff fea4 	bl	8000d34 <prvPortStartFirstTask>
	vTaskSwitchContext();
 8000fec:	f004 fae2 	bl	80055b4 <vTaskSwitchContext>
	prvTaskExitError();
 8000ff0:	f7ff fe80 	bl	8000cf4 <prvTaskExitError>
}
 8000ff4:	2000      	movs	r0, #0
 8000ff6:	b002      	add	sp, #8
 8000ff8:	bd10      	pop	{r4, pc}
 8000ffa:	bf00      	nop
 8000ffc:	410fc271 	.word	0x410fc271
 8001000:	410fc270 	.word	0x410fc270
 8001004:	e000e400 	.word	0xe000e400
 8001008:	20004d7c 	.word	0x20004d7c
 800100c:	20004d78 	.word	0x20004d78
 8001010:	2000000c 	.word	0x2000000c

08001014 <vPortValidateInterruptPriority>:
	{
	uint32_t ulCurrentInterrupt;
	uint8_t ucCurrentPriority;

		/* Obtain the number of the currently executing interrupt. */
		__asm volatile( "mrs %0, ipsr" : "=r"( ulCurrentInterrupt ) :: "memory" );
 8001014:	f3ef 8305 	mrs	r3, IPSR

		/* Is the interrupt number a user defined interrupt? */
		if( ulCurrentInterrupt >= portFIRST_USER_INTERRUPT_NUMBER )
 8001018:	2b0f      	cmp	r3, #15
 800101a:	d90e      	bls.n	800103a <vPortValidateInterruptPriority+0x26>
		{
			/* Look up the interrupt's priority. */
			ucCurrentPriority = pcInterruptPriorityRegisters[ ulCurrentInterrupt ];
 800101c:	4a11      	ldr	r2, [pc, #68]	@ (8001064 <vPortValidateInterruptPriority+0x50>)
 800101e:	5c9a      	ldrb	r2, [r3, r2]
			interrupt entry is as fast and simple as possible.

			The following links provide detailed information:
			http://www.freertos.org/RTOS-Cortex-M3-M4.html
			http://www.freertos.org/FAQHelp.html */
			configASSERT( ucCurrentPriority >= ucMaxSysCallPriority );
 8001020:	4b11      	ldr	r3, [pc, #68]	@ (8001068 <vPortValidateInterruptPriority+0x54>)
 8001022:	781b      	ldrb	r3, [r3, #0]
 8001024:	429a      	cmp	r2, r3
 8001026:	d208      	bcs.n	800103a <vPortValidateInterruptPriority+0x26>
 8001028:	f04f 0350 	mov.w	r3, #80	@ 0x50
 800102c:	f383 8811 	msr	BASEPRI, r3
 8001030:	f3bf 8f6f 	isb	sy
 8001034:	f3bf 8f4f 	dsb	sy
 8001038:	e7fe      	b.n	8001038 <vPortValidateInterruptPriority+0x24>
		configuration then the correct setting can be achieved on all Cortex-M
		devices by calling NVIC_SetPriorityGrouping( 0 ); before starting the
		scheduler.  Note however that some vendor specific peripheral libraries
		assume a non-zero priority group setting, in which cases using a value
		of zero will result in unpredictable behaviour. */
		configASSERT( ( portAIRCR_REG & portPRIORITY_GROUP_MASK ) <= ulMaxPRIGROUPValue );
 800103a:	f04f 23e0 	mov.w	r3, #3758153728	@ 0xe000e000
 800103e:	f8d3 3d0c 	ldr.w	r3, [r3, #3340]	@ 0xd0c
 8001042:	f403 63e0 	and.w	r3, r3, #1792	@ 0x700
 8001046:	4a09      	ldr	r2, [pc, #36]	@ (800106c <vPortValidateInterruptPriority+0x58>)
 8001048:	6812      	ldr	r2, [r2, #0]
 800104a:	4293      	cmp	r3, r2
 800104c:	d908      	bls.n	8001060 <vPortValidateInterruptPriority+0x4c>
 800104e:	f04f 0350 	mov.w	r3, #80	@ 0x50
 8001052:	f383 8811 	msr	BASEPRI, r3
 8001056:	f3bf 8f6f 	isb	sy
 800105a:	f3bf 8f4f 	dsb	sy
 800105e:	e7fe      	b.n	800105e <vPortValidateInterruptPriority+0x4a>
	}
 8001060:	4770      	bx	lr
 8001062:	bf00      	nop
 8001064:	e000e3f0 	.word	0xe000e3f0
 8001068:	20004d7c 	.word	0x20004d7c
 800106c:	20004d78 	.word	0x20004d78

08001070 <prvGetDisinheritPriorityAfterTimeout>:
/*-----------------------------------------------------------*/

#if( configUSE_MUTEXES == 1 )

	static UBaseType_t prvGetDisinheritPriorityAfterTimeout( const Queue_t * const pxQueue )
	{
 8001070:	4603      	mov	r3, r0
		priority, but the waiting task times out, then the holder should
		disinherit the priority - but only down to the highest priority of any
		other tasks that are waiting for the same mutex.  For this purpose,
		return the priority of the highest priority task that is waiting for the
		mutex. */
		if( listCURRENT_LIST_LENGTH( &( pxQueue->xTasksWaitingToReceive ) ) > 0U )
 8001072:	6a40      	ldr	r0, [r0, #36]	@ 0x24
 8001074:	b118      	cbz	r0, 800107e <prvGetDisinheritPriorityAfterTimeout+0xe>
		{
			uxHighestPriorityOfWaitingTasks = ( UBaseType_t ) configMAX_PRIORITIES - ( UBaseType_t ) listGET_ITEM_VALUE_OF_HEAD_ENTRY( &( pxQueue->xTasksWaitingToReceive ) );
 8001076:	6b1b      	ldr	r3, [r3, #48]	@ 0x30
 8001078:	6818      	ldr	r0, [r3, #0]
 800107a:	f1c0 0007 	rsb	r0, r0, #7
		{
			uxHighestPriorityOfWaitingTasks = tskIDLE_PRIORITY;
		}

		return uxHighestPriorityOfWaitingTasks;
	}
 800107e:	4770      	bx	lr

08001080 <prvIsQueueFull>:
	return xReturn;
} /*lint !e818 xQueue could not be pointer to const because it is a typedef. */
/*-----------------------------------------------------------*/

static BaseType_t prvIsQueueFull( const Queue_t *pxQueue )
{
 8001080:	b510      	push	{r4, lr}
 8001082:	4604      	mov	r4, r0
BaseType_t xReturn;

	taskENTER_CRITICAL();
 8001084:	f7ff fe9e 	bl	8000dc4 <vPortEnterCritical>
	{
		if( pxQueue->uxMessagesWaiting == pxQueue->uxLength )
 8001088:	6ba2      	ldr	r2, [r4, #56]	@ 0x38
 800108a:	6be3      	ldr	r3, [r4, #60]	@ 0x3c
 800108c:	429a      	cmp	r2, r3
 800108e:	d004      	beq.n	800109a <prvIsQueueFull+0x1a>
		{
			xReturn = pdTRUE;
		}
		else
		{
			xReturn = pdFALSE;
 8001090:	2400      	movs	r4, #0
		}
	}
	taskEXIT_CRITICAL();
 8001092:	f7ff feb9 	bl	8000e08 <vPortExitCritical>

	return xReturn;
}
 8001096:	4620      	mov	r0, r4
 8001098:	bd10      	pop	{r4, pc}
			xReturn = pdTRUE;
 800109a:	2401      	movs	r4, #1
 800109c:	e7f9      	b.n	8001092 <prvIsQueueFull+0x12>

0800109e <prvIsQueueEmpty>:
{
 800109e:	b510      	push	{r4, lr}
 80010a0:	4604      	mov	r4, r0
	taskENTER_CRITICAL();
 80010a2:	f7ff fe8f 	bl	8000dc4 <vPortEnterCritical>
		if( pxQueue->uxMessagesWaiting == ( UBaseType_t )  0 )
 80010a6:	6ba3      	ldr	r3, [r4, #56]	@ 0x38
 80010a8:	b92b      	cbnz	r3, 80010b6 <prvIsQueueEmpty+0x18>
			xReturn = pdTRUE;
 80010aa:	2301      	movs	r3, #1
 80010ac:	461c      	mov	r4, r3
	taskEXIT_CRITICAL();
 80010ae:	f7ff feab 	bl	8000e08 <vPortExitCritical>
}
 80010b2:	4620      	mov	r0, r4
 80010b4:	bd10      	pop	{r4, pc}
			xReturn = pdFALSE;
 80010b6:	2300      	movs	r3, #0
 80010b8:	461c      	mov	r4, r3
 80010ba:	e7f8      	b.n	80010ae <prvIsQueueEmpty+0x10>

080010bc <prvCopyDataToQueue>:
{
 80010bc:	b570      	push	{r4, r5, r6, lr}
 80010be:	4604      	mov	r4, r0
 80010c0:	4616      	mov	r6, r2
	uxMessagesWaiting = pxQueue->uxMessagesWaiting;
 80010c2:	6b85      	ldr	r5, [r0, #56]	@ 0x38
	if( pxQueue->uxItemSize == ( UBaseType_t ) 0 )
 80010c4:	6c02      	ldr	r2, [r0, #64]	@ 0x40
 80010c6:	b95a      	cbnz	r2, 80010e0 <prvCopyDataToQueue+0x24>
			if( pxQueue->uxQueueType == queueQUEUE_IS_MUTEX )
 80010c8:	6803      	ldr	r3, [r0, #0]
 80010ca:	b11b      	cbz	r3, 80010d4 <prvCopyDataToQueue+0x18>
BaseType_t xReturn = pdFALSE;
 80010cc:	2000      	movs	r0, #0
	pxQueue->uxMessagesWaiting = uxMessagesWaiting + ( UBaseType_t ) 1;
 80010ce:	3501      	adds	r5, #1
 80010d0:	63a5      	str	r5, [r4, #56]	@ 0x38
}
 80010d2:	bd70      	pop	{r4, r5, r6, pc}
				xReturn = xTaskPriorityDisinherit( pxQueue->u.xSemaphore.xMutexHolder );
 80010d4:	6880      	ldr	r0, [r0, #8]
 80010d6:	f004 fbd5 	bl	8005884 <xTaskPriorityDisinherit>
				pxQueue->u.xSemaphore.xMutexHolder = NULL;
 80010da:	2300      	movs	r3, #0
 80010dc:	60a3      	str	r3, [r4, #8]
 80010de:	e7f6      	b.n	80010ce <prvCopyDataToQueue+0x12>
	else if( xPosition == queueSEND_TO_BACK )
 80010e0:	b96e      	cbnz	r6, 80010fe <prvCopyDataToQueue+0x42>
		( void ) memcpy( ( void * ) pxQueue->pcWriteTo, pvItemToQueue, ( size_t ) pxQueue->uxItemSize ); /*lint !e961 !e418 !e9087 MISRA exception as the casts are only redundant for some ports, plus previous logic ensures a null pointer can only be passed to memcpy() if the copy size is 0.  Cast to void required by function signature and safe as no alignment requirement and copy length specified in bytes. */
 80010e2:	6840      	ldr	r0, [r0, #4]
 80010e4:	f004 fce4 	bl	8005ab0 <memcpy>
		pxQueue->pcWriteTo += pxQueue->uxItemSize; /*lint !e9016 Pointer arithmetic on char types ok, especially in this use case where it is the clearest way of conveying intent. */
 80010e8:	6863      	ldr	r3, [r4, #4]
 80010ea:	6c22      	ldr	r2, [r4, #64]	@ 0x40
 80010ec:	4413      	add	r3, r2
 80010ee:	6063      	str	r3, [r4, #4]
		if( pxQueue->pcWriteTo >= pxQueue->u.xQueue.pcTail ) /*lint !e946 MISRA exception justified as comparison of pointers is the cleanest solution. */
 80010f0:	68a2      	ldr	r2, [r4, #8]
 80010f2:	4293      	cmp	r3, r2
 80010f4:	d319      	bcc.n	800112a <prvCopyDataToQueue+0x6e>
			pxQueue->pcWriteTo = pxQueue->pcHead;
 80010f6:	6823      	ldr	r3, [r4, #0]
 80010f8:	6063      	str	r3, [r4, #4]
BaseType_t xReturn = pdFALSE;
 80010fa:	4630      	mov	r0, r6
 80010fc:	e7e7      	b.n	80010ce <prvCopyDataToQueue+0x12>
		( void ) memcpy( ( void * ) pxQueue->u.xQueue.pcReadFrom, pvItemToQueue, ( size_t ) pxQueue->uxItemSize ); /*lint !e961 !e9087 !e418 MISRA exception as the casts are only redundant for some ports.  Cast to void required by function signature and safe as no alignment requirement and copy length specified in bytes.  Assert checks null pointer only used when length is 0. */
 80010fe:	68c0      	ldr	r0, [r0, #12]
 8001100:	f004 fcd6 	bl	8005ab0 <memcpy>
		pxQueue->u.xQueue.pcReadFrom -= pxQueue->uxItemSize;
 8001104:	68e3      	ldr	r3, [r4, #12]
 8001106:	6c22      	ldr	r2, [r4, #64]	@ 0x40
 8001108:	4251      	negs	r1, r2
 800110a:	1a9b      	subs	r3, r3, r2
 800110c:	60e3      	str	r3, [r4, #12]
		if( pxQueue->u.xQueue.pcReadFrom < pxQueue->pcHead ) /*lint !e946 MISRA exception justified as comparison of pointers is the cleanest solution. */
 800110e:	6822      	ldr	r2, [r4, #0]
 8001110:	4293      	cmp	r3, r2
 8001112:	d202      	bcs.n	800111a <prvCopyDataToQueue+0x5e>
			pxQueue->u.xQueue.pcReadFrom = ( pxQueue->u.xQueue.pcTail - pxQueue->uxItemSize );
 8001114:	68a3      	ldr	r3, [r4, #8]
 8001116:	440b      	add	r3, r1
 8001118:	60e3      	str	r3, [r4, #12]
		if( xPosition == queueOVERWRITE )
 800111a:	2e02      	cmp	r6, #2
 800111c:	d001      	beq.n	8001122 <prvCopyDataToQueue+0x66>
BaseType_t xReturn = pdFALSE;
 800111e:	2000      	movs	r0, #0
 8001120:	e7d5      	b.n	80010ce <prvCopyDataToQueue+0x12>
			if( uxMessagesWaiting > ( UBaseType_t ) 0 )
 8001122:	b125      	cbz	r5, 800112e <prvCopyDataToQueue+0x72>
				--uxMessagesWaiting;
 8001124:	3d01      	subs	r5, #1
BaseType_t xReturn = pdFALSE;
 8001126:	2000      	movs	r0, #0
 8001128:	e7d1      	b.n	80010ce <prvCopyDataToQueue+0x12>
 800112a:	4630      	mov	r0, r6
 800112c:	e7cf      	b.n	80010ce <prvCopyDataToQueue+0x12>
 800112e:	4628      	mov	r0, r5
 8001130:	e7cd      	b.n	80010ce <prvCopyDataToQueue+0x12>

08001132 <prvCopyDataFromQueue>:
{
 8001132:	4603      	mov	r3, r0
	if( pxQueue->uxItemSize != ( UBaseType_t ) 0 )
 8001134:	6c02      	ldr	r2, [r0, #64]	@ 0x40
 8001136:	b16a      	cbz	r2, 8001154 <prvCopyDataFromQueue+0x22>
{
 8001138:	b510      	push	{r4, lr}
 800113a:	4608      	mov	r0, r1
		pxQueue->u.xQueue.pcReadFrom += pxQueue->uxItemSize; /*lint !e9016 Pointer arithmetic on char types ok, especially in this use case where it is the clearest way of conveying intent. */
 800113c:	68d9      	ldr	r1, [r3, #12]
 800113e:	4411      	add	r1, r2
 8001140:	60d9      	str	r1, [r3, #12]
		if( pxQueue->u.xQueue.pcReadFrom >= pxQueue->u.xQueue.pcTail ) /*lint !e946 MISRA exception justified as use of the relational operator is the cleanest solutions. */
 8001142:	689c      	ldr	r4, [r3, #8]
 8001144:	42a1      	cmp	r1, r4
 8001146:	d301      	bcc.n	800114c <prvCopyDataFromQueue+0x1a>
			pxQueue->u.xQueue.pcReadFrom = pxQueue->pcHead;
 8001148:	6819      	ldr	r1, [r3, #0]
 800114a:	60d9      	str	r1, [r3, #12]
		( void ) memcpy( ( void * ) pvBuffer, ( void * ) pxQueue->u.xQueue.pcReadFrom, ( size_t ) pxQueue->uxItemSize ); /*lint !e961 !e418 !e9087 MISRA exception as the casts are only redundant for some ports.  Also previous logic ensures a null pointer can only be passed to memcpy() when the count is 0.  Cast to void required by function signature and safe as no alignment requirement and copy length specified in bytes. */
 800114c:	68d9      	ldr	r1, [r3, #12]
 800114e:	f004 fcaf 	bl	8005ab0 <memcpy>
}
 8001152:	bd10      	pop	{r4, pc}
 8001154:	4770      	bx	lr

08001156 <prvUnlockQueue>:
{
 8001156:	b538      	push	{r3, r4, r5, lr}
 8001158:	4605      	mov	r5, r0
	taskENTER_CRITICAL();
 800115a:	f7ff fe33 	bl	8000dc4 <vPortEnterCritical>
		int8_t cTxLock = pxQueue->cTxLock;
 800115e:	f895 4045 	ldrb.w	r4, [r5, #69]	@ 0x45
 8001162:	b264      	sxtb	r4, r4
		while( cTxLock > queueLOCKED_UNMODIFIED )
 8001164:	e001      	b.n	800116a <prvUnlockQueue+0x14>
			--cTxLock;
 8001166:	3c01      	subs	r4, #1
 8001168:	b264      	sxtb	r4, r4
		while( cTxLock > queueLOCKED_UNMODIFIED )
 800116a:	2c00      	cmp	r4, #0
 800116c:	dd0a      	ble.n	8001184 <prvUnlockQueue+0x2e>
				if( listLIST_IS_EMPTY( &( pxQueue->xTasksWaitingToReceive ) ) == pdFALSE )
 800116e:	6a6b      	ldr	r3, [r5, #36]	@ 0x24
 8001170:	b143      	cbz	r3, 8001184 <prvUnlockQueue+0x2e>
					if( xTaskRemoveFromEventList( &( pxQueue->xTasksWaitingToReceive ) ) != pdFALSE )
 8001172:	f105 0024 	add.w	r0, r5, #36	@ 0x24
 8001176:	f004 fa81 	bl	800567c <xTaskRemoveFromEventList>
 800117a:	2800      	cmp	r0, #0
 800117c:	d0f3      	beq.n	8001166 <prvUnlockQueue+0x10>
						vTaskMissedYield();
 800117e:	f004 fb15 	bl	80057ac <vTaskMissedYield>
 8001182:	e7f0      	b.n	8001166 <prvUnlockQueue+0x10>
		pxQueue->cTxLock = queueUNLOCKED;
 8001184:	23ff      	movs	r3, #255	@ 0xff
 8001186:	f885 3045 	strb.w	r3, [r5, #69]	@ 0x45
	taskEXIT_CRITICAL();
 800118a:	f7ff fe3d 	bl	8000e08 <vPortExitCritical>
	taskENTER_CRITICAL();
 800118e:	f7ff fe19 	bl	8000dc4 <vPortEnterCritical>
		int8_t cRxLock = pxQueue->cRxLock;
 8001192:	f895 4044 	ldrb.w	r4, [r5, #68]	@ 0x44
 8001196:	b264      	sxtb	r4, r4
		while( cRxLock > queueLOCKED_UNMODIFIED )
 8001198:	e001      	b.n	800119e <prvUnlockQueue+0x48>
				--cRxLock;
 800119a:	3c01      	subs	r4, #1
 800119c:	b264      	sxtb	r4, r4
		while( cRxLock > queueLOCKED_UNMODIFIED )
 800119e:	2c00      	cmp	r4, #0
 80011a0:	dd0a      	ble.n	80011b8 <prvUnlockQueue+0x62>
			if( listLIST_IS_EMPTY( &( pxQueue->xTasksWaitingToSend ) ) == pdFALSE )
 80011a2:	692b      	ldr	r3, [r5, #16]
 80011a4:	b143      	cbz	r3, 80011b8 <prvUnlockQueue+0x62>
				if( xTaskRemoveFromEventList( &( pxQueue->xTasksWaitingToSend ) ) != pdFALSE )
 80011a6:	f105 0010 	add.w	r0, r5, #16
 80011aa:	f004 fa67 	bl	800567c <xTaskRemoveFromEventList>
 80011ae:	2800      	cmp	r0, #0
 80011b0:	d0f3      	beq.n	800119a <prvUnlockQueue+0x44>
					vTaskMissedYield();
 80011b2:	f004 fafb 	bl	80057ac <vTaskMissedYield>
 80011b6:	e7f0      	b.n	800119a <prvUnlockQueue+0x44>
		pxQueue->cRxLock = queueUNLOCKED;
 80011b8:	23ff      	movs	r3, #255	@ 0xff
 80011ba:	f885 3044 	strb.w	r3, [r5, #68]	@ 0x44
	taskEXIT_CRITICAL();
 80011be:	f7ff fe23 	bl	8000e08 <vPortExitCritical>
}
 80011c2:	bd38      	pop	{r3, r4, r5, pc}

080011c4 <xQueueGenericReset>:
{
 80011c4:	b538      	push	{r3, r4, r5, lr}
	configASSERT( pxQueue );
 80011c6:	b1e0      	cbz	r0, 8001202 <xQueueGenericReset+0x3e>
 80011c8:	460d      	mov	r5, r1
 80011ca:	4604      	mov	r4, r0
	taskENTER_CRITICAL();
 80011cc:	f7ff fdfa 	bl	8000dc4 <vPortEnterCritical>
		pxQueue->u.xQueue.pcTail = pxQueue->pcHead + ( pxQueue->uxLength * pxQueue->uxItemSize ); /*lint !e9016 Pointer arithmetic allowed on char types, especially when it assists conveying intent. */
 80011d0:	6823      	ldr	r3, [r4, #0]
 80011d2:	6be2      	ldr	r2, [r4, #60]	@ 0x3c
 80011d4:	6c21      	ldr	r1, [r4, #64]	@ 0x40
 80011d6:	fb01 3002 	mla	r0, r1, r2, r3
 80011da:	60a0      	str	r0, [r4, #8]
		pxQueue->uxMessagesWaiting = ( UBaseType_t ) 0U;
 80011dc:	2000      	movs	r0, #0
 80011de:	63a0      	str	r0, [r4, #56]	@ 0x38
		pxQueue->pcWriteTo = pxQueue->pcHead;
 80011e0:	6063      	str	r3, [r4, #4]
		pxQueue->u.xQueue.pcReadFrom = pxQueue->pcHead + ( ( pxQueue->uxLength - 1U ) * pxQueue->uxItemSize ); /*lint !e9016 Pointer arithmetic allowed on char types, especially when it assists conveying intent. */
 80011e2:	3a01      	subs	r2, #1
 80011e4:	fb02 3301 	mla	r3, r2, r1, r3
 80011e8:	60e3      	str	r3, [r4, #12]
		pxQueue->cRxLock = queueUNLOCKED;
 80011ea:	23ff      	movs	r3, #255	@ 0xff
 80011ec:	f884 3044 	strb.w	r3, [r4, #68]	@ 0x44
		pxQueue->cTxLock = queueUNLOCKED;
 80011f0:	f884 3045 	strb.w	r3, [r4, #69]	@ 0x45
		if( xNewQueue == pdFALSE )
 80011f4:	b9fd      	cbnz	r5, 8001236 <xQueueGenericReset+0x72>
			if( listLIST_IS_EMPTY( &( pxQueue->xTasksWaitingToSend ) ) == pdFALSE )
 80011f6:	6923      	ldr	r3, [r4, #16]
 80011f8:	b963      	cbnz	r3, 8001214 <xQueueGenericReset+0x50>
	taskEXIT_CRITICAL();
 80011fa:	f7ff fe05 	bl	8000e08 <vPortExitCritical>
}
 80011fe:	2001      	movs	r0, #1
 8001200:	bd38      	pop	{r3, r4, r5, pc}
 8001202:	f04f 0350 	mov.w	r3, #80	@ 0x50
 8001206:	f383 8811 	msr	BASEPRI, r3
 800120a:	f3bf 8f6f 	isb	sy
 800120e:	f3bf 8f4f 	dsb	sy
	configASSERT( pxQueue );
 8001212:	e7fe      	b.n	8001212 <xQueueGenericReset+0x4e>
				if( xTaskRemoveFromEventList( &( pxQueue->xTasksWaitingToSend ) ) != pdFALSE )
 8001214:	f104 0010 	add.w	r0, r4, #16
 8001218:	f004 fa30 	bl	800567c <xTaskRemoveFromEventList>
 800121c:	2800      	cmp	r0, #0
 800121e:	d0ec      	beq.n	80011fa <xQueueGenericReset+0x36>
					queueYIELD_IF_USING_PREEMPTION();
 8001220:	f04f 23e0 	mov.w	r3, #3758153728	@ 0xe000e000
 8001224:	f04f 5280 	mov.w	r2, #268435456	@ 0x10000000
 8001228:	f8c3 2d04 	str.w	r2, [r3, #3332]	@ 0xd04
 800122c:	f3bf 8f4f 	dsb	sy
 8001230:	f3bf 8f6f 	isb	sy
 8001234:	e7e1      	b.n	80011fa <xQueueGenericReset+0x36>
			vListInitialise( &( pxQueue->xTasksWaitingToSend ) );
 8001236:	f104 0010 	add.w	r0, r4, #16
 800123a:	f7ff fadd 	bl	80007f8 <vListInitialise>
			vListInitialise( &( pxQueue->xTasksWaitingToReceive ) );
 800123e:	f104 0024 	add.w	r0, r4, #36	@ 0x24
 8001242:	f7ff fad9 	bl	80007f8 <vListInitialise>
 8001246:	e7d8      	b.n	80011fa <xQueueGenericReset+0x36>

08001248 <prvInitialiseNewQueue>:
{
 8001248:	b508      	push	{r3, lr}
 800124a:	4603      	mov	r3, r0
 800124c:	9802      	ldr	r0, [sp, #8]
	if( uxItemSize == ( UBaseType_t ) 0 )
 800124e:	468c      	mov	ip, r1
 8001250:	b939      	cbnz	r1, 8001262 <prvInitialiseNewQueue+0x1a>
		pxNewQueue->pcHead = ( int8_t * ) pxNewQueue;
 8001252:	6000      	str	r0, [r0, #0]
	pxNewQueue->uxLength = uxQueueLength;
 8001254:	63c3      	str	r3, [r0, #60]	@ 0x3c
	pxNewQueue->uxItemSize = uxItemSize;
 8001256:	f8c0 c040 	str.w	ip, [r0, #64]	@ 0x40
	( void ) xQueueGenericReset( pxNewQueue, pdTRUE );
 800125a:	2101      	movs	r1, #1
 800125c:	f7ff ffb2 	bl	80011c4 <xQueueGenericReset>
}
 8001260:	bd08      	pop	{r3, pc}
		pxNewQueue->pcHead = ( int8_t * ) pucQueueStorage;
 8001262:	6002      	str	r2, [r0, #0]
 8001264:	e7f6      	b.n	8001254 <prvInitialiseNewQueue+0xc>

08001266 <xQueueGenericCreateStatic>:
		configASSERT( uxQueueLength > ( UBaseType_t ) 0 );
 8001266:	b940      	cbnz	r0, 800127a <xQueueGenericCreateStatic+0x14>
 8001268:	f04f 0350 	mov.w	r3, #80	@ 0x50
 800126c:	f383 8811 	msr	BASEPRI, r3
 8001270:	f3bf 8f6f 	isb	sy
 8001274:	f3bf 8f4f 	dsb	sy
 8001278:	e7fe      	b.n	8001278 <xQueueGenericCreateStatic+0x12>
	{
 800127a:	b510      	push	{r4, lr}
 800127c:	b084      	sub	sp, #16
 800127e:	461c      	mov	r4, r3
 8001280:	4684      	mov	ip, r0
		configASSERT( pxStaticQueue != NULL );
 8001282:	b153      	cbz	r3, 800129a <xQueueGenericCreateStatic+0x34>
		configASSERT( !( ( pucQueueStorage != NULL ) && ( uxItemSize == 0 ) ) );
 8001284:	b192      	cbz	r2, 80012ac <xQueueGenericCreateStatic+0x46>
 8001286:	b989      	cbnz	r1, 80012ac <xQueueGenericCreateStatic+0x46>
 8001288:	f04f 0350 	mov.w	r3, #80	@ 0x50
 800128c:	f383 8811 	msr	BASEPRI, r3
 8001290:	f3bf 8f6f 	isb	sy
 8001294:	f3bf 8f4f 	dsb	sy
 8001298:	e7fe      	b.n	8001298 <xQueueGenericCreateStatic+0x32>
 800129a:	f04f 0350 	mov.w	r3, #80	@ 0x50
 800129e:	f383 8811 	msr	BASEPRI, r3
 80012a2:	f3bf 8f6f 	isb	sy
 80012a6:	f3bf 8f4f 	dsb	sy
		configASSERT( pxStaticQueue != NULL );
 80012aa:	e7fe      	b.n	80012aa <xQueueGenericCreateStatic+0x44>
		configASSERT( !( ( pucQueueStorage == NULL ) && ( uxItemSize != 0 ) ) );
 80012ac:	b16a      	cbz	r2, 80012ca <xQueueGenericCreateStatic+0x64>
			volatile size_t xSize = sizeof( StaticQueue_t );
 80012ae:	2348      	movs	r3, #72	@ 0x48
 80012b0:	9303      	str	r3, [sp, #12]
			configASSERT( xSize == sizeof( Queue_t ) );
 80012b2:	9b03      	ldr	r3, [sp, #12]
 80012b4:	2b48      	cmp	r3, #72	@ 0x48
 80012b6:	d013      	beq.n	80012e0 <xQueueGenericCreateStatic+0x7a>
 80012b8:	f04f 0350 	mov.w	r3, #80	@ 0x50
 80012bc:	f383 8811 	msr	BASEPRI, r3
 80012c0:	f3bf 8f6f 	isb	sy
 80012c4:	f3bf 8f4f 	dsb	sy
 80012c8:	e7fe      	b.n	80012c8 <xQueueGenericCreateStatic+0x62>
		configASSERT( !( ( pucQueueStorage == NULL ) && ( uxItemSize != 0 ) ) );
 80012ca:	2900      	cmp	r1, #0
 80012cc:	d0ef      	beq.n	80012ae <xQueueGenericCreateStatic+0x48>
 80012ce:	f04f 0350 	mov.w	r3, #80	@ 0x50
 80012d2:	f383 8811 	msr	BASEPRI, r3
 80012d6:	f3bf 8f6f 	isb	sy
 80012da:	f3bf 8f4f 	dsb	sy
 80012de:	e7fe      	b.n	80012de <xQueueGenericCreateStatic+0x78>
			( void ) xSize; /* Keeps lint quiet when configASSERT() is not defined. */
 80012e0:	9b03      	ldr	r3, [sp, #12]
				pxNewQueue->ucStaticallyAllocated = pdTRUE;
 80012e2:	2301      	movs	r3, #1
 80012e4:	f884 3046 	strb.w	r3, [r4, #70]	@ 0x46
			prvInitialiseNewQueue( uxQueueLength, uxItemSize, pucQueueStorage, ucQueueType, pxNewQueue );
 80012e8:	9400      	str	r4, [sp, #0]
 80012ea:	f89d 3018 	ldrb.w	r3, [sp, #24]
 80012ee:	4660      	mov	r0, ip
 80012f0:	f7ff ffaa 	bl	8001248 <prvInitialiseNewQueue>
	}
 80012f4:	4620      	mov	r0, r4
 80012f6:	b004      	add	sp, #16
 80012f8:	bd10      	pop	{r4, pc}

080012fa <xQueueGenericCreate>:
		configASSERT( uxQueueLength > ( UBaseType_t ) 0 );
 80012fa:	b940      	cbnz	r0, 800130e <xQueueGenericCreate+0x14>
 80012fc:	f04f 0350 	mov.w	r3, #80	@ 0x50
 8001300:	f383 8811 	msr	BASEPRI, r3
 8001304:	f3bf 8f6f 	isb	sy
 8001308:	f3bf 8f4f 	dsb	sy
 800130c:	e7fe      	b.n	800130c <xQueueGenericCreate+0x12>
	{
 800130e:	b5f0      	push	{r4, r5, r6, r7, lr}
 8001310:	b083      	sub	sp, #12
 8001312:	4616      	mov	r6, r2
		xQueueSizeInBytes = ( size_t ) ( uxQueueLength * uxItemSize ); /*lint !e961 MISRA exception as the casts are only redundant for some ports. */
 8001314:	4604      	mov	r4, r0
 8001316:	460d      	mov	r5, r1
 8001318:	fb01 f000 	mul.w	r0, r1, r0
		pxNewQueue = ( Queue_t * ) pvPortMalloc( sizeof( Queue_t ) + xQueueSizeInBytes ); /*lint !e9087 !e9079 see comment above. */
 800131c:	3048      	adds	r0, #72	@ 0x48
 800131e:	f7ff f9a9 	bl	8000674 <pvPortMalloc>
		if( pxNewQueue != NULL )
 8001322:	4602      	mov	r2, r0
 8001324:	4607      	mov	r7, r0
 8001326:	b148      	cbz	r0, 800133c <xQueueGenericCreate+0x42>
				pxNewQueue->ucStaticallyAllocated = pdFALSE;
 8001328:	2300      	movs	r3, #0
 800132a:	f880 3046 	strb.w	r3, [r0, #70]	@ 0x46
			prvInitialiseNewQueue( uxQueueLength, uxItemSize, pucQueueStorage, ucQueueType, pxNewQueue );
 800132e:	9000      	str	r0, [sp, #0]
 8001330:	4633      	mov	r3, r6
 8001332:	3248      	adds	r2, #72	@ 0x48
 8001334:	4629      	mov	r1, r5
 8001336:	4620      	mov	r0, r4
 8001338:	f7ff ff86 	bl	8001248 <prvInitialiseNewQueue>
	}
 800133c:	4638      	mov	r0, r7
 800133e:	b003      	add	sp, #12
 8001340:	bdf0      	pop	{r4, r5, r6, r7, pc}

08001342 <xQueueGenericSend>:
{
 8001342:	b5f0      	push	{r4, r5, r6, r7, lr}
 8001344:	b085      	sub	sp, #20
 8001346:	9201      	str	r2, [sp, #4]
	configASSERT( pxQueue );
 8001348:	b188      	cbz	r0, 800136e <xQueueGenericSend+0x2c>
 800134a:	460f      	mov	r7, r1
 800134c:	461d      	mov	r5, r3
 800134e:	4604      	mov	r4, r0
	configASSERT( !( ( pvItemToQueue == NULL ) && ( pxQueue->uxItemSize != ( UBaseType_t ) 0U ) ) );
 8001350:	b1b1      	cbz	r1, 8001380 <xQueueGenericSend+0x3e>
	configASSERT( !( ( xCopyPosition == queueOVERWRITE ) && ( pxQueue->uxLength != 1 ) ) );
 8001352:	2d02      	cmp	r5, #2
 8001354:	d120      	bne.n	8001398 <xQueueGenericSend+0x56>
 8001356:	6be3      	ldr	r3, [r4, #60]	@ 0x3c
 8001358:	2b01      	cmp	r3, #1
 800135a:	d01d      	beq.n	8001398 <xQueueGenericSend+0x56>
 800135c:	f04f 0350 	mov.w	r3, #80	@ 0x50
 8001360:	f383 8811 	msr	BASEPRI, r3
 8001364:	f3bf 8f6f 	isb	sy
 8001368:	f3bf 8f4f 	dsb	sy
 800136c:	e7fe      	b.n	800136c <xQueueGenericSend+0x2a>
 800136e:	f04f 0350 	mov.w	r3, #80	@ 0x50
 8001372:	f383 8811 	msr	BASEPRI, r3
 8001376:	f3bf 8f6f 	isb	sy
 800137a:	f3bf 8f4f 	dsb	sy
	configASSERT( pxQueue );
 800137e:	e7fe      	b.n	800137e <xQueueGenericSend+0x3c>
	configASSERT( !( ( pvItemToQueue == NULL ) && ( pxQueue->uxItemSize != ( UBaseType_t ) 0U ) ) );
 8001380:	6c03      	ldr	r3, [r0, #64]	@ 0x40
 8001382:	2b00      	cmp	r3, #0
 8001384:	d0e5      	beq.n	8001352 <xQueueGenericSend+0x10>
 8001386:	f04f 0350 	mov.w	r3, #80	@ 0x50
 800138a:	f383 8811 	msr	BASEPRI, r3
 800138e:	f3bf 8f6f 	isb	sy
 8001392:	f3bf 8f4f 	dsb	sy
 8001396:	e7fe      	b.n	8001396 <xQueueGenericSend+0x54>
		configASSERT( !( ( xTaskGetSchedulerState() == taskSCHEDULER_SUSPENDED ) && ( xTicksToWait != 0 ) ) );
 8001398:	f004 fa0e 	bl	80057b8 <xTaskGetSchedulerState>
 800139c:	4606      	mov	r6, r0
 800139e:	b958      	cbnz	r0, 80013b8 <xQueueGenericSend+0x76>
 80013a0:	9b01      	ldr	r3, [sp, #4]
 80013a2:	2b00      	cmp	r3, #0
 80013a4:	d048      	beq.n	8001438 <xQueueGenericSend+0xf6>
 80013a6:	f04f 0350 	mov.w	r3, #80	@ 0x50
 80013aa:	f383 8811 	msr	BASEPRI, r3
 80013ae:	f3bf 8f6f 	isb	sy
 80013b2:	f3bf 8f4f 	dsb	sy
 80013b6:	e7fe      	b.n	80013b6 <xQueueGenericSend+0x74>
 80013b8:	2600      	movs	r6, #0
 80013ba:	e03d      	b.n	8001438 <xQueueGenericSend+0xf6>
					xYieldRequired = prvCopyDataToQueue( pxQueue, pvItemToQueue, xCopyPosition );
 80013bc:	462a      	mov	r2, r5
 80013be:	4639      	mov	r1, r7
 80013c0:	4620      	mov	r0, r4
 80013c2:	f7ff fe7b 	bl	80010bc <prvCopyDataToQueue>
					if( listLIST_IS_EMPTY( &( pxQueue->xTasksWaitingToReceive ) ) == pdFALSE )
 80013c6:	6a63      	ldr	r3, [r4, #36]	@ 0x24
 80013c8:	b97b      	cbnz	r3, 80013ea <xQueueGenericSend+0xa8>
					else if( xYieldRequired != pdFALSE )
 80013ca:	b148      	cbz	r0, 80013e0 <xQueueGenericSend+0x9e>
						queueYIELD_IF_USING_PREEMPTION();
 80013cc:	f04f 23e0 	mov.w	r3, #3758153728	@ 0xe000e000
 80013d0:	f04f 5280 	mov.w	r2, #268435456	@ 0x10000000
 80013d4:	f8c3 2d04 	str.w	r2, [r3, #3332]	@ 0xd04
 80013d8:	f3bf 8f4f 	dsb	sy
 80013dc:	f3bf 8f6f 	isb	sy
				taskEXIT_CRITICAL();
 80013e0:	f7ff fd12 	bl	8000e08 <vPortExitCritical>
				return pdPASS;
 80013e4:	2001      	movs	r0, #1
}
 80013e6:	b005      	add	sp, #20
 80013e8:	bdf0      	pop	{r4, r5, r6, r7, pc}
						if( xTaskRemoveFromEventList( &( pxQueue->xTasksWaitingToReceive ) ) != pdFALSE )
 80013ea:	f104 0024 	add.w	r0, r4, #36	@ 0x24
 80013ee:	f004 f945 	bl	800567c <xTaskRemoveFromEventList>
 80013f2:	2800      	cmp	r0, #0
 80013f4:	d0f4      	beq.n	80013e0 <xQueueGenericSend+0x9e>
							queueYIELD_IF_USING_PREEMPTION();
 80013f6:	f04f 23e0 	mov.w	r3, #3758153728	@ 0xe000e000
 80013fa:	f04f 5280 	mov.w	r2, #268435456	@ 0x10000000
 80013fe:	f8c3 2d04 	str.w	r2, [r3, #3332]	@ 0xd04
 8001402:	f3bf 8f4f 	dsb	sy
 8001406:	f3bf 8f6f 	isb	sy
 800140a:	e7e9      	b.n	80013e0 <xQueueGenericSend+0x9e>
					taskEXIT_CRITICAL();
 800140c:	f7ff fcfc 	bl	8000e08 <vPortExitCritical>
					return errQUEUE_FULL;
 8001410:	2000      	movs	r0, #0
 8001412:	e7e8      	b.n	80013e6 <xQueueGenericSend+0xa4>
					vTaskInternalSetTimeOutState( &xTimeOut );
 8001414:	a802      	add	r0, sp, #8
 8001416:	f004 f979 	bl	800570c <vTaskInternalSetTimeOutState>
					xEntryTimeSet = pdTRUE;
 800141a:	2601      	movs	r6, #1
 800141c:	e019      	b.n	8001452 <xQueueGenericSend+0x110>
		prvLockQueue( pxQueue );
 800141e:	2300      	movs	r3, #0
 8001420:	f884 3044 	strb.w	r3, [r4, #68]	@ 0x44
 8001424:	e021      	b.n	800146a <xQueueGenericSend+0x128>
 8001426:	2300      	movs	r3, #0
 8001428:	f884 3045 	strb.w	r3, [r4, #69]	@ 0x45
 800142c:	e023      	b.n	8001476 <xQueueGenericSend+0x134>
				prvUnlockQueue( pxQueue );
 800142e:	4620      	mov	r0, r4
 8001430:	f7ff fe91 	bl	8001156 <prvUnlockQueue>
				( void ) xTaskResumeAll();
 8001434:	f004 f81c 	bl	8005470 <xTaskResumeAll>
		taskENTER_CRITICAL();
 8001438:	f7ff fcc4 	bl	8000dc4 <vPortEnterCritical>
			if( ( pxQueue->uxMessagesWaiting < pxQueue->uxLength ) || ( xCopyPosition == queueOVERWRITE ) )
 800143c:	6ba2      	ldr	r2, [r4, #56]	@ 0x38
 800143e:	6be3      	ldr	r3, [r4, #60]	@ 0x3c
 8001440:	429a      	cmp	r2, r3
 8001442:	d3bb      	bcc.n	80013bc <xQueueGenericSend+0x7a>
 8001444:	2d02      	cmp	r5, #2
 8001446:	d0b9      	beq.n	80013bc <xQueueGenericSend+0x7a>
				if( xTicksToWait == ( TickType_t ) 0 )
 8001448:	9b01      	ldr	r3, [sp, #4]
 800144a:	2b00      	cmp	r3, #0
 800144c:	d0de      	beq.n	800140c <xQueueGenericSend+0xca>
				else if( xEntryTimeSet == pdFALSE )
 800144e:	2e00      	cmp	r6, #0
 8001450:	d0e0      	beq.n	8001414 <xQueueGenericSend+0xd2>
		taskEXIT_CRITICAL();
 8001452:	f7ff fcd9 	bl	8000e08 <vPortExitCritical>
		vTaskSuspendAll();
 8001456:	f003 ff71 	bl	800533c <vTaskSuspendAll>
		prvLockQueue( pxQueue );
 800145a:	f7ff fcb3 	bl	8000dc4 <vPortEnterCritical>
 800145e:	f894 2044 	ldrb.w	r2, [r4, #68]	@ 0x44
 8001462:	b252      	sxtb	r2, r2
 8001464:	f1b2 3fff 	cmp.w	r2, #4294967295
 8001468:	d0d9      	beq.n	800141e <xQueueGenericSend+0xdc>
 800146a:	f894 2045 	ldrb.w	r2, [r4, #69]	@ 0x45
 800146e:	b252      	sxtb	r2, r2
 8001470:	f1b2 3fff 	cmp.w	r2, #4294967295
 8001474:	d0d7      	beq.n	8001426 <xQueueGenericSend+0xe4>
 8001476:	f7ff fcc7 	bl	8000e08 <vPortExitCritical>
		if( xTaskCheckForTimeOut( &xTimeOut, &xTicksToWait ) == pdFALSE )
 800147a:	a901      	add	r1, sp, #4
 800147c:	a802      	add	r0, sp, #8
 800147e:	f004 f951 	bl	8005724 <xTaskCheckForTimeOut>
 8001482:	b9d8      	cbnz	r0, 80014bc <xQueueGenericSend+0x17a>
			if( prvIsQueueFull( pxQueue ) != pdFALSE )
 8001484:	4620      	mov	r0, r4
 8001486:	f7ff fdfb 	bl	8001080 <prvIsQueueFull>
 800148a:	2800      	cmp	r0, #0
 800148c:	d0cf      	beq.n	800142e <xQueueGenericSend+0xec>
				vTaskPlaceOnEventList( &( pxQueue->xTasksWaitingToSend ), xTicksToWait );
 800148e:	9901      	ldr	r1, [sp, #4]
 8001490:	f104 0010 	add.w	r0, r4, #16
 8001494:	f004 f8da 	bl	800564c <vTaskPlaceOnEventList>
				prvUnlockQueue( pxQueue );
 8001498:	4620      	mov	r0, r4
 800149a:	f7ff fe5c 	bl	8001156 <prvUnlockQueue>
				if( xTaskResumeAll() == pdFALSE )
 800149e:	f003 ffe7 	bl	8005470 <xTaskResumeAll>
 80014a2:	2800      	cmp	r0, #0
 80014a4:	d1c8      	bne.n	8001438 <xQueueGenericSend+0xf6>
					portYIELD_WITHIN_API();
 80014a6:	f04f 23e0 	mov.w	r3, #3758153728	@ 0xe000e000
 80014aa:	f04f 5280 	mov.w	r2, #268435456	@ 0x10000000
 80014ae:	f8c3 2d04 	str.w	r2, [r3, #3332]	@ 0xd04
 80014b2:	f3bf 8f4f 	dsb	sy
 80014b6:	f3bf 8f6f 	isb	sy
 80014ba:	e7bd      	b.n	8001438 <xQueueGenericSend+0xf6>
			prvUnlockQueue( pxQueue );
 80014bc:	4620      	mov	r0, r4
 80014be:	f7ff fe4a 	bl	8001156 <prvUnlockQueue>
			( void ) xTaskResumeAll();
 80014c2:	f003 ffd5 	bl	8005470 <xTaskResumeAll>
			return errQUEUE_FULL;
 80014c6:	2000      	movs	r0, #0
 80014c8:	e78d      	b.n	80013e6 <xQueueGenericSend+0xa4>

080014ca <prvInitialiseMutex>:
		if( pxNewQueue != NULL )
 80014ca:	b148      	cbz	r0, 80014e0 <prvInitialiseMutex+0x16>
	{
 80014cc:	b508      	push	{r3, lr}
			pxNewQueue->u.xSemaphore.xMutexHolder = NULL;
 80014ce:	2100      	movs	r1, #0
 80014d0:	6081      	str	r1, [r0, #8]
			pxNewQueue->uxQueueType = queueQUEUE_IS_MUTEX;
 80014d2:	6001      	str	r1, [r0, #0]
			pxNewQueue->u.xSemaphore.uxRecursiveCallCount = 0;
 80014d4:	60c1      	str	r1, [r0, #12]
			( void ) xQueueGenericSend( pxNewQueue, NULL, ( TickType_t ) 0U, queueSEND_TO_BACK );
 80014d6:	460b      	mov	r3, r1
 80014d8:	460a      	mov	r2, r1
 80014da:	f7ff ff32 	bl	8001342 <xQueueGenericSend>
	}
 80014de:	bd08      	pop	{r3, pc}
 80014e0:	4770      	bx	lr

080014e2 <xQueueCreateMutex>:
	{
 80014e2:	b510      	push	{r4, lr}
 80014e4:	4602      	mov	r2, r0
		xNewQueue = xQueueGenericCreate( uxMutexLength, uxMutexSize, ucQueueType );
 80014e6:	2100      	movs	r1, #0
 80014e8:	2001      	movs	r0, #1
 80014ea:	f7ff ff06 	bl	80012fa <xQueueGenericCreate>
 80014ee:	4604      	mov	r4, r0
		prvInitialiseMutex( ( Queue_t * ) xNewQueue );
 80014f0:	f7ff ffeb 	bl	80014ca <prvInitialiseMutex>
	}
 80014f4:	4620      	mov	r0, r4
 80014f6:	bd10      	pop	{r4, pc}

080014f8 <xQueueCreateMutexStatic>:
	{
 80014f8:	b510      	push	{r4, lr}
 80014fa:	b082      	sub	sp, #8
 80014fc:	460b      	mov	r3, r1
		xNewQueue = xQueueGenericCreateStatic( uxMutexLength, uxMutexSize, NULL, pxStaticQueue, ucQueueType );
 80014fe:	9000      	str	r0, [sp, #0]
 8001500:	2200      	movs	r2, #0
 8001502:	4611      	mov	r1, r2
 8001504:	2001      	movs	r0, #1
 8001506:	f7ff feae 	bl	8001266 <xQueueGenericCreateStatic>
 800150a:	4604      	mov	r4, r0
		prvInitialiseMutex( ( Queue_t * ) xNewQueue );
 800150c:	f7ff ffdd 	bl	80014ca <prvInitialiseMutex>
	}
 8001510:	4620      	mov	r0, r4
 8001512:	b002      	add	sp, #8
 8001514:	bd10      	pop	{r4, pc}

08001516 <xQueueGiveFromISR>:
	configASSERT( pxQueue );
 8001516:	b168      	cbz	r0, 8001534 <xQueueGiveFromISR+0x1e>
{
 8001518:	b570      	push	{r4, r5, r6, lr}
 800151a:	460d      	mov	r5, r1
 800151c:	4604      	mov	r4, r0
	configASSERT( pxQueue->uxItemSize == 0 );
 800151e:	6c03      	ldr	r3, [r0, #64]	@ 0x40
 8001520:	b18b      	cbz	r3, 8001546 <xQueueGiveFromISR+0x30>
 8001522:	f04f 0350 	mov.w	r3, #80	@ 0x50
 8001526:	f383 8811 	msr	BASEPRI, r3
 800152a:	f3bf 8f6f 	isb	sy
 800152e:	f3bf 8f4f 	dsb	sy
 8001532:	e7fe      	b.n	8001532 <xQueueGiveFromISR+0x1c>
 8001534:	f04f 0350 	mov.w	r3, #80	@ 0x50
 8001538:	f383 8811 	msr	BASEPRI, r3
 800153c:	f3bf 8f6f 	isb	sy
 8001540:	f3bf 8f4f 	dsb	sy
	configASSERT( pxQueue );
 8001544:	e7fe      	b.n	8001544 <xQueueGiveFromISR+0x2e>
	configASSERT( !( ( pxQueue->uxQueueType == queueQUEUE_IS_MUTEX ) && ( pxQueue->u.xSemaphore.xMutexHolder != NULL ) ) );
 8001546:	6803      	ldr	r3, [r0, #0]
 8001548:	b1f3      	cbz	r3, 8001588 <xQueueGiveFromISR+0x72>
	portASSERT_IF_INTERRUPT_PRIORITY_INVALID();
 800154a:	f7ff fd63 	bl	8001014 <vPortValidateInterruptPriority>
	__asm volatile
 800154e:	f3ef 8311 	mrs	r3, BASEPRI
 8001552:	f04f 0250 	mov.w	r2, #80	@ 0x50
 8001556:	f382 8811 	msr	BASEPRI, r2
 800155a:	f3bf 8f6f 	isb	sy
 800155e:	f3bf 8f4f 	dsb	sy
 8001562:	461e      	mov	r6, r3
		const UBaseType_t uxMessagesWaiting = pxQueue->uxMessagesWaiting;
 8001564:	6ba2      	ldr	r2, [r4, #56]	@ 0x38
		if( uxMessagesWaiting < pxQueue->uxLength )
 8001566:	6be3      	ldr	r3, [r4, #60]	@ 0x3c
 8001568:	4293      	cmp	r3, r2
 800156a:	d926      	bls.n	80015ba <xQueueGiveFromISR+0xa4>
			const int8_t cTxLock = pxQueue->cTxLock;
 800156c:	f894 3045 	ldrb.w	r3, [r4, #69]	@ 0x45
 8001570:	b25b      	sxtb	r3, r3
			pxQueue->uxMessagesWaiting = uxMessagesWaiting + ( UBaseType_t ) 1;
 8001572:	3201      	adds	r2, #1
 8001574:	63a2      	str	r2, [r4, #56]	@ 0x38
			if( cTxLock == queueUNLOCKED )
 8001576:	f1b3 3fff 	cmp.w	r3, #4294967295
 800157a:	d011      	beq.n	80015a0 <xQueueGiveFromISR+0x8a>
				pxQueue->cTxLock = ( int8_t ) ( cTxLock + 1 );
 800157c:	3301      	adds	r3, #1
 800157e:	b25b      	sxtb	r3, r3
 8001580:	f884 3045 	strb.w	r3, [r4, #69]	@ 0x45
			xReturn = pdPASS;
 8001584:	2001      	movs	r0, #1
 8001586:	e019      	b.n	80015bc <xQueueGiveFromISR+0xa6>
	configASSERT( !( ( pxQueue->uxQueueType == queueQUEUE_IS_MUTEX ) && ( pxQueue->u.xSemaphore.xMutexHolder != NULL ) ) );
 8001588:	6883      	ldr	r3, [r0, #8]
 800158a:	2b00      	cmp	r3, #0
 800158c:	d0dd      	beq.n	800154a <xQueueGiveFromISR+0x34>
	__asm volatile
 800158e:	f04f 0350 	mov.w	r3, #80	@ 0x50
 8001592:	f383 8811 	msr	BASEPRI, r3
 8001596:	f3bf 8f6f 	isb	sy
 800159a:	f3bf 8f4f 	dsb	sy
 800159e:	e7fe      	b.n	800159e <xQueueGiveFromISR+0x88>
					if( listLIST_IS_EMPTY( &( pxQueue->xTasksWaitingToReceive ) ) == pdFALSE )
 80015a0:	6a63      	ldr	r3, [r4, #36]	@ 0x24
 80015a2:	b90b      	cbnz	r3, 80015a8 <xQueueGiveFromISR+0x92>
			xReturn = pdPASS;
 80015a4:	2001      	movs	r0, #1
 80015a6:	e009      	b.n	80015bc <xQueueGiveFromISR+0xa6>
						if( xTaskRemoveFromEventList( &( pxQueue->xTasksWaitingToReceive ) ) != pdFALSE )
 80015a8:	f104 0024 	add.w	r0, r4, #36	@ 0x24
 80015ac:	f004 f866 	bl	800567c <xTaskRemoveFromEventList>
 80015b0:	b138      	cbz	r0, 80015c2 <xQueueGiveFromISR+0xac>
							if( pxHigherPriorityTaskWoken != NULL )
 80015b2:	b145      	cbz	r5, 80015c6 <xQueueGiveFromISR+0xb0>
								*pxHigherPriorityTaskWoken = pdTRUE;
 80015b4:	2001      	movs	r0, #1
 80015b6:	6028      	str	r0, [r5, #0]
 80015b8:	e000      	b.n	80015bc <xQueueGiveFromISR+0xa6>
			xReturn = errQUEUE_FULL;
 80015ba:	2000      	movs	r0, #0
	__asm volatile
 80015bc:	f386 8811 	msr	BASEPRI, r6
}
 80015c0:	bd70      	pop	{r4, r5, r6, pc}
			xReturn = pdPASS;
 80015c2:	2001      	movs	r0, #1
 80015c4:	e7fa      	b.n	80015bc <xQueueGiveFromISR+0xa6>
 80015c6:	2001      	movs	r0, #1
 80015c8:	e7f8      	b.n	80015bc <xQueueGiveFromISR+0xa6>

080015ca <xQueueSemaphoreTake>:
{
 80015ca:	b570      	push	{r4, r5, r6, lr}
 80015cc:	b084      	sub	sp, #16
 80015ce:	9101      	str	r1, [sp, #4]
	configASSERT( ( pxQueue ) );
 80015d0:	b158      	cbz	r0, 80015ea <xQueueSemaphoreTake+0x20>
 80015d2:	4604      	mov	r4, r0
	configASSERT( pxQueue->uxItemSize == 0 );
 80015d4:	6c03      	ldr	r3, [r0, #64]	@ 0x40
 80015d6:	b18b      	cbz	r3, 80015fc <xQueueSemaphoreTake+0x32>
	__asm volatile
 80015d8:	f04f 0350 	mov.w	r3, #80	@ 0x50
 80015dc:	f383 8811 	msr	BASEPRI, r3
 80015e0:	f3bf 8f6f 	isb	sy
 80015e4:	f3bf 8f4f 	dsb	sy
 80015e8:	e7fe      	b.n	80015e8 <xQueueSemaphoreTake+0x1e>
 80015ea:	f04f 0350 	mov.w	r3, #80	@ 0x50
 80015ee:	f383 8811 	msr	BASEPRI, r3
 80015f2:	f3bf 8f6f 	isb	sy
 80015f6:	f3bf 8f4f 	dsb	sy
	configASSERT( ( pxQueue ) );
 80015fa:	e7fe      	b.n	80015fa <xQueueSemaphoreTake+0x30>
		configASSERT( !( ( xTaskGetSchedulerState() == taskSCHEDULER_SUSPENDED ) && ( xTicksToWait != 0 ) ) );
 80015fc:	f004 f8dc 	bl	80057b8 <xTaskGetSchedulerState>
 8001600:	4605      	mov	r5, r0
 8001602:	b950      	cbnz	r0, 800161a <xQueueSemaphoreTake+0x50>
 8001604:	9b01      	ldr	r3, [sp, #4]
 8001606:	b163      	cbz	r3, 8001622 <xQueueSemaphoreTake+0x58>
 8001608:	f04f 0350 	mov.w	r3, #80	@ 0x50
 800160c:	f383 8811 	msr	BASEPRI, r3
 8001610:	f3bf 8f6f 	isb	sy
 8001614:	f3bf 8f4f 	dsb	sy
 8001618:	e7fe      	b.n	8001618 <xQueueSemaphoreTake+0x4e>
 800161a:	2300      	movs	r3, #0
 800161c:	461e      	mov	r6, r3
 800161e:	461d      	mov	r5, r3
 8001620:	e056      	b.n	80016d0 <xQueueSemaphoreTake+0x106>
 8001622:	4606      	mov	r6, r0
 8001624:	e054      	b.n	80016d0 <xQueueSemaphoreTake+0x106>
				pxQueue->uxMessagesWaiting = uxSemaphoreCount - ( UBaseType_t ) 1;
 8001626:	3b01      	subs	r3, #1
 8001628:	63a3      	str	r3, [r4, #56]	@ 0x38
					if( pxQueue->uxQueueType == queueQUEUE_IS_MUTEX )
 800162a:	6823      	ldr	r3, [r4, #0]
 800162c:	b143      	cbz	r3, 8001640 <xQueueSemaphoreTake+0x76>
				if( listLIST_IS_EMPTY( &( pxQueue->xTasksWaitingToSend ) ) == pdFALSE )
 800162e:	6923      	ldr	r3, [r4, #16]
 8001630:	b953      	cbnz	r3, 8001648 <xQueueSemaphoreTake+0x7e>
				taskEXIT_CRITICAL();
 8001632:	f7ff fbe9 	bl	8000e08 <vPortExitCritical>
				return pdPASS;
 8001636:	2301      	movs	r3, #1
 8001638:	461e      	mov	r6, r3
}
 800163a:	4630      	mov	r0, r6
 800163c:	b004      	add	sp, #16
 800163e:	bd70      	pop	{r4, r5, r6, pc}
						pxQueue->u.xSemaphore.xMutexHolder = pvTaskIncrementMutexHeldCount();
 8001640:	f004 f9d2 	bl	80059e8 <pvTaskIncrementMutexHeldCount>
 8001644:	60a0      	str	r0, [r4, #8]
 8001646:	e7f2      	b.n	800162e <xQueueSemaphoreTake+0x64>
					if( xTaskRemoveFromEventList( &( pxQueue->xTasksWaitingToSend ) ) != pdFALSE )
 8001648:	f104 0010 	add.w	r0, r4, #16
 800164c:	f004 f816 	bl	800567c <xTaskRemoveFromEventList>
 8001650:	2800      	cmp	r0, #0
 8001652:	d0ee      	beq.n	8001632 <xQueueSemaphoreTake+0x68>
						queueYIELD_IF_USING_PREEMPTION();
 8001654:	f04f 23e0 	mov.w	r3, #3758153728	@ 0xe000e000
 8001658:	f04f 5280 	mov.w	r2, #268435456	@ 0x10000000
 800165c:	f8c3 2d04 	str.w	r2, [r3, #3332]	@ 0xd04
 8001660:	f3bf 8f4f 	dsb	sy
 8001664:	f3bf 8f6f 	isb	sy
 8001668:	e7e3      	b.n	8001632 <xQueueSemaphoreTake+0x68>
						configASSERT( xInheritanceOccurred == pdFALSE );
 800166a:	b146      	cbz	r6, 800167e <xQueueSemaphoreTake+0xb4>
 800166c:	f04f 0350 	mov.w	r3, #80	@ 0x50
 8001670:	f383 8811 	msr	BASEPRI, r3
 8001674:	f3bf 8f6f 	isb	sy
 8001678:	f3bf 8f4f 	dsb	sy
 800167c:	e7fe      	b.n	800167c <xQueueSemaphoreTake+0xb2>
					taskEXIT_CRITICAL();
 800167e:	f7ff fbc3 	bl	8000e08 <vPortExitCritical>
					return errQUEUE_EMPTY;
 8001682:	e7da      	b.n	800163a <xQueueSemaphoreTake+0x70>
					vTaskInternalSetTimeOutState( &xTimeOut );
 8001684:	a802      	add	r0, sp, #8
 8001686:	f004 f841 	bl	800570c <vTaskInternalSetTimeOutState>
					xEntryTimeSet = pdTRUE;
 800168a:	2501      	movs	r5, #1
 800168c:	e02a      	b.n	80016e4 <xQueueSemaphoreTake+0x11a>
		prvLockQueue( pxQueue );
 800168e:	2300      	movs	r3, #0
 8001690:	f884 3044 	strb.w	r3, [r4, #68]	@ 0x44
 8001694:	e032      	b.n	80016fc <xQueueSemaphoreTake+0x132>
 8001696:	2300      	movs	r3, #0
 8001698:	f884 3045 	strb.w	r3, [r4, #69]	@ 0x45
 800169c:	e034      	b.n	8001708 <xQueueSemaphoreTake+0x13e>
						taskENTER_CRITICAL();
 800169e:	f7ff fb91 	bl	8000dc4 <vPortEnterCritical>
							xInheritanceOccurred = xTaskPriorityInherit( pxQueue->u.xSemaphore.xMutexHolder );
 80016a2:	68a0      	ldr	r0, [r4, #8]
 80016a4:	f004 f898 	bl	80057d8 <xTaskPriorityInherit>
 80016a8:	4606      	mov	r6, r0
						taskEXIT_CRITICAL();
 80016aa:	f7ff fbad 	bl	8000e08 <vPortExitCritical>
 80016ae:	e03b      	b.n	8001728 <xQueueSemaphoreTake+0x15e>
				prvUnlockQueue( pxQueue );
 80016b0:	4620      	mov	r0, r4
 80016b2:	f7ff fd50 	bl	8001156 <prvUnlockQueue>
				( void ) xTaskResumeAll();
 80016b6:	f003 fedb 	bl	8005470 <xTaskResumeAll>
 80016ba:	e009      	b.n	80016d0 <xQueueSemaphoreTake+0x106>
			prvUnlockQueue( pxQueue );
 80016bc:	4620      	mov	r0, r4
 80016be:	f7ff fd4a 	bl	8001156 <prvUnlockQueue>
			( void ) xTaskResumeAll();
 80016c2:	f003 fed5 	bl	8005470 <xTaskResumeAll>
			if( prvIsQueueEmpty( pxQueue ) != pdFALSE )
 80016c6:	4620      	mov	r0, r4
 80016c8:	f7ff fce9 	bl	800109e <prvIsQueueEmpty>
 80016cc:	2800      	cmp	r0, #0
 80016ce:	d142      	bne.n	8001756 <xQueueSemaphoreTake+0x18c>
		taskENTER_CRITICAL();
 80016d0:	f7ff fb78 	bl	8000dc4 <vPortEnterCritical>
			const UBaseType_t uxSemaphoreCount = pxQueue->uxMessagesWaiting;
 80016d4:	6ba3      	ldr	r3, [r4, #56]	@ 0x38
			if( uxSemaphoreCount > ( UBaseType_t ) 0 )
 80016d6:	2b00      	cmp	r3, #0
 80016d8:	d1a5      	bne.n	8001626 <xQueueSemaphoreTake+0x5c>
				if( xTicksToWait == ( TickType_t ) 0 )
 80016da:	9b01      	ldr	r3, [sp, #4]
 80016dc:	2b00      	cmp	r3, #0
 80016de:	d0c4      	beq.n	800166a <xQueueSemaphoreTake+0xa0>
				else if( xEntryTimeSet == pdFALSE )
 80016e0:	2d00      	cmp	r5, #0
 80016e2:	d0cf      	beq.n	8001684 <xQueueSemaphoreTake+0xba>
		taskEXIT_CRITICAL();
 80016e4:	f7ff fb90 	bl	8000e08 <vPortExitCritical>
		vTaskSuspendAll();
 80016e8:	f003 fe28 	bl	800533c <vTaskSuspendAll>
		prvLockQueue( pxQueue );
 80016ec:	f7ff fb6a 	bl	8000dc4 <vPortEnterCritical>
 80016f0:	f894 3044 	ldrb.w	r3, [r4, #68]	@ 0x44
 80016f4:	b25b      	sxtb	r3, r3
 80016f6:	f1b3 3fff 	cmp.w	r3, #4294967295
 80016fa:	d0c8      	beq.n	800168e <xQueueSemaphoreTake+0xc4>
 80016fc:	f894 3045 	ldrb.w	r3, [r4, #69]	@ 0x45
 8001700:	b25b      	sxtb	r3, r3
 8001702:	f1b3 3fff 	cmp.w	r3, #4294967295
 8001706:	d0c6      	beq.n	8001696 <xQueueSemaphoreTake+0xcc>
 8001708:	f7ff fb7e 	bl	8000e08 <vPortExitCritical>
		if( xTaskCheckForTimeOut( &xTimeOut, &xTicksToWait ) == pdFALSE )
 800170c:	a901      	add	r1, sp, #4
 800170e:	a802      	add	r0, sp, #8
 8001710:	f004 f808 	bl	8005724 <xTaskCheckForTimeOut>
 8001714:	2800      	cmp	r0, #0
 8001716:	d1d1      	bne.n	80016bc <xQueueSemaphoreTake+0xf2>
			if( prvIsQueueEmpty( pxQueue ) != pdFALSE )
 8001718:	4620      	mov	r0, r4
 800171a:	f7ff fcc0 	bl	800109e <prvIsQueueEmpty>
 800171e:	2800      	cmp	r0, #0
 8001720:	d0c6      	beq.n	80016b0 <xQueueSemaphoreTake+0xe6>
					if( pxQueue->uxQueueType == queueQUEUE_IS_MUTEX )
 8001722:	6823      	ldr	r3, [r4, #0]
 8001724:	2b00      	cmp	r3, #0
 8001726:	d0ba      	beq.n	800169e <xQueueSemaphoreTake+0xd4>
				vTaskPlaceOnEventList( &( pxQueue->xTasksWaitingToReceive ), xTicksToWait );
 8001728:	9901      	ldr	r1, [sp, #4]
 800172a:	f104 0024 	add.w	r0, r4, #36	@ 0x24
 800172e:	f003 ff8d 	bl	800564c <vTaskPlaceOnEventList>
				prvUnlockQueue( pxQueue );
 8001732:	4620      	mov	r0, r4
 8001734:	f7ff fd0f 	bl	8001156 <prvUnlockQueue>
				if( xTaskResumeAll() == pdFALSE )
 8001738:	f003 fe9a 	bl	8005470 <xTaskResumeAll>
 800173c:	2800      	cmp	r0, #0
 800173e:	d1c7      	bne.n	80016d0 <xQueueSemaphoreTake+0x106>
					portYIELD_WITHIN_API();
 8001740:	f04f 23e0 	mov.w	r3, #3758153728	@ 0xe000e000
 8001744:	f04f 5280 	mov.w	r2, #268435456	@ 0x10000000
 8001748:	f8c3 2d04 	str.w	r2, [r3, #3332]	@ 0xd04
 800174c:	f3bf 8f4f 	dsb	sy
 8001750:	f3bf 8f6f 	isb	sy
 8001754:	e7bc      	b.n	80016d0 <xQueueSemaphoreTake+0x106>
					if( xInheritanceOccurred != pdFALSE )
 8001756:	b916      	cbnz	r6, 800175e <xQueueSemaphoreTake+0x194>
				return errQUEUE_EMPTY;
 8001758:	2300      	movs	r3, #0
 800175a:	461e      	mov	r6, r3
 800175c:	e76d      	b.n	800163a <xQueueSemaphoreTake+0x70>
						taskENTER_CRITICAL();
 800175e:	f7ff fb31 	bl	8000dc4 <vPortEnterCritical>
							uxHighestWaitingPriority = prvGetDisinheritPriorityAfterTimeout( pxQueue );
 8001762:	4620      	mov	r0, r4
 8001764:	f7ff fc84 	bl	8001070 <prvGetDisinheritPriorityAfterTimeout>
 8001768:	4601      	mov	r1, r0
							vTaskPriorityDisinheritAfterTimeout( pxQueue->u.xSemaphore.xMutexHolder, uxHighestWaitingPriority );
 800176a:	68a0      	ldr	r0, [r4, #8]
 800176c:	f004 f8e2 	bl	8005934 <vTaskPriorityDisinheritAfterTimeout>
						taskEXIT_CRITICAL();
 8001770:	f7ff fb4a 	bl	8000e08 <vPortExitCritical>
 8001774:	e7f0      	b.n	8001758 <xQueueSemaphoreTake+0x18e>

08001776 <xQueueReceiveFromISR>:
{
 8001776:	e92d 43f8 	stmdb	sp!, {r3, r4, r5, r6, r7, r8, r9, lr}
	configASSERT( pxQueue );
 800177a:	b1c0      	cbz	r0, 80017ae <xQueueReceiveFromISR+0x38>
 800177c:	460e      	mov	r6, r1
 800177e:	4690      	mov	r8, r2
 8001780:	4604      	mov	r4, r0
	configASSERT( !( ( pvBuffer == NULL ) && ( pxQueue->uxItemSize != ( UBaseType_t ) 0U ) ) );
 8001782:	b1e9      	cbz	r1, 80017c0 <xQueueReceiveFromISR+0x4a>
	portASSERT_IF_INTERRUPT_PRIORITY_INVALID();
 8001784:	f7ff fc46 	bl	8001014 <vPortValidateInterruptPriority>
	__asm volatile
 8001788:	f3ef 8311 	mrs	r3, BASEPRI
 800178c:	f04f 0250 	mov.w	r2, #80	@ 0x50
 8001790:	f382 8811 	msr	BASEPRI, r2
 8001794:	f3bf 8f6f 	isb	sy
 8001798:	f3bf 8f4f 	dsb	sy
 800179c:	461f      	mov	r7, r3
		const UBaseType_t uxMessagesWaiting = pxQueue->uxMessagesWaiting;
 800179e:	6ba3      	ldr	r3, [r4, #56]	@ 0x38
 80017a0:	4699      	mov	r9, r3
		if( uxMessagesWaiting > ( UBaseType_t ) 0 )
 80017a2:	b9cb      	cbnz	r3, 80017d8 <xQueueReceiveFromISR+0x62>
			xReturn = pdFAIL;
 80017a4:	4618      	mov	r0, r3
	__asm volatile
 80017a6:	f387 8811 	msr	BASEPRI, r7
}
 80017aa:	e8bd 83f8 	ldmia.w	sp!, {r3, r4, r5, r6, r7, r8, r9, pc}
	__asm volatile
 80017ae:	f04f 0350 	mov.w	r3, #80	@ 0x50
 80017b2:	f383 8811 	msr	BASEPRI, r3
 80017b6:	f3bf 8f6f 	isb	sy
 80017ba:	f3bf 8f4f 	dsb	sy
	configASSERT( pxQueue );
 80017be:	e7fe      	b.n	80017be <xQueueReceiveFromISR+0x48>
	configASSERT( !( ( pvBuffer == NULL ) && ( pxQueue->uxItemSize != ( UBaseType_t ) 0U ) ) );
 80017c0:	6c03      	ldr	r3, [r0, #64]	@ 0x40
 80017c2:	2b00      	cmp	r3, #0
 80017c4:	d0de      	beq.n	8001784 <xQueueReceiveFromISR+0xe>
 80017c6:	f04f 0350 	mov.w	r3, #80	@ 0x50
 80017ca:	f383 8811 	msr	BASEPRI, r3
 80017ce:	f3bf 8f6f 	isb	sy
 80017d2:	f3bf 8f4f 	dsb	sy
 80017d6:	e7fe      	b.n	80017d6 <xQueueReceiveFromISR+0x60>
			const int8_t cRxLock = pxQueue->cRxLock;
 80017d8:	f894 3044 	ldrb.w	r3, [r4, #68]	@ 0x44
 80017dc:	b25d      	sxtb	r5, r3
			prvCopyDataFromQueue( pxQueue, pvBuffer );
 80017de:	4631      	mov	r1, r6
 80017e0:	4620      	mov	r0, r4
 80017e2:	f7ff fca6 	bl	8001132 <prvCopyDataFromQueue>
			pxQueue->uxMessagesWaiting = uxMessagesWaiting - ( UBaseType_t ) 1;
 80017e6:	f109 33ff 	add.w	r3, r9, #4294967295
 80017ea:	63a3      	str	r3, [r4, #56]	@ 0x38
			if( cRxLock == queueUNLOCKED )
 80017ec:	f1b5 3fff 	cmp.w	r5, #4294967295
 80017f0:	d006      	beq.n	8001800 <xQueueReceiveFromISR+0x8a>
				pxQueue->cRxLock = ( int8_t ) ( cRxLock + 1 );
 80017f2:	462b      	mov	r3, r5
 80017f4:	3301      	adds	r3, #1
 80017f6:	b25b      	sxtb	r3, r3
 80017f8:	f884 3044 	strb.w	r3, [r4, #68]	@ 0x44
			xReturn = pdPASS;
 80017fc:	2001      	movs	r0, #1
 80017fe:	e7d2      	b.n	80017a6 <xQueueReceiveFromISR+0x30>
				if( listLIST_IS_EMPTY( &( pxQueue->xTasksWaitingToSend ) ) == pdFALSE )
 8001800:	6923      	ldr	r3, [r4, #16]
 8001802:	b90b      	cbnz	r3, 8001808 <xQueueReceiveFromISR+0x92>
			xReturn = pdPASS;
 8001804:	2001      	movs	r0, #1
 8001806:	e7ce      	b.n	80017a6 <xQueueReceiveFromISR+0x30>
					if( xTaskRemoveFromEventList( &( pxQueue->xTasksWaitingToSend ) ) != pdFALSE )
 8001808:	f104 0010 	add.w	r0, r4, #16
 800180c:	f003 ff36 	bl	800567c <xTaskRemoveFromEventList>
 8001810:	b128      	cbz	r0, 800181e <xQueueReceiveFromISR+0xa8>
						if( pxHigherPriorityTaskWoken != NULL )
 8001812:	4643      	mov	r3, r8
 8001814:	b12b      	cbz	r3, 8001822 <xQueueReceiveFromISR+0xac>
							*pxHigherPriorityTaskWoken = pdTRUE;
 8001816:	2001      	movs	r0, #1
 8001818:	f8c8 0000 	str.w	r0, [r8]
 800181c:	e7c3      	b.n	80017a6 <xQueueReceiveFromISR+0x30>
			xReturn = pdPASS;
 800181e:	2001      	movs	r0, #1
 8001820:	e7c1      	b.n	80017a6 <xQueueReceiveFromISR+0x30>
 8001822:	2001      	movs	r0, #1
 8001824:	e7bf      	b.n	80017a6 <xQueueReceiveFromISR+0x30>
	...

08001828 <StartSPITask>:

   NOTE: SPI2 is configured with software NSS. If you use a hardware CS line from
   the RPi, change hspi2.Init.NSS to SPI_NSS_HARD_INPUT in main.c for reliable
   transaction framing. */
void StartSPITask(void const *argument)
{
 8001828:	b500      	push	{lr}
 800182a:	b083      	sub	sp, #12
 800182c:	e034      	b.n	8001898 <StartSPITask+0x70>
            __HAL_SPI_CLEAR_OVRFLAG(&hspi2);
            osDelay(1);
            continue;
        }

        osMutexWait(g_params_mutex, osWaitForever);
 800182e:	f04f 31ff 	mov.w	r1, #4294967295
 8001832:	4b2b      	ldr	r3, [pc, #172]	@ (80018e0 <StartSPITask+0xb8>)
 8001834:	6818      	ldr	r0, [r3, #0]
 8001836:	f7fe fd3d 	bl	80002b4 <osMutexWait>

        switch (pkt[0]) {
 800183a:	f89d 3004 	ldrb.w	r3, [sp, #4]
 800183e:	2b03      	cmp	r3, #3
 8001840:	d03f      	beq.n	80018c2 <StartSPITask+0x9a>
 8001842:	d811      	bhi.n	8001868 <StartSPITask+0x40>
 8001844:	2b01      	cmp	r3, #1
 8001846:	d016      	beq.n	8001876 <StartSPITask+0x4e>
 8001848:	2b02      	cmp	r3, #2
 800184a:	d121      	bne.n	8001890 <StartSPITask+0x68>
            g_audio_params.volume = (float)pkt[1] / 100.0f;
            break;

        case SPI_CMD_SET_LPF:
            /* VAL_HI = 0-255 maps to 0.0-1.0 alpha (0 = max cut, 255 = bypass) */
            g_audio_params.lpf_alpha = (float)pkt[1] / 255.0f;
 800184c:	f89d 3005 	ldrb.w	r3, [sp, #5]
 8001850:	ee07 3a90 	vmov	s15, r3
 8001854:	eef8 7a67 	vcvt.f32.u32	s15, s15
 8001858:	eddf 6a22 	vldr	s13, [pc, #136]	@ 80018e4 <StartSPITask+0xbc>
 800185c:	ee87 7aa6 	vdiv.f32	s14, s15, s13
 8001860:	4b21      	ldr	r3, [pc, #132]	@ (80018e8 <StartSPITask+0xc0>)
 8001862:	ed83 7a01 	vstr	s14, [r3, #4]
            break;
 8001866:	e013      	b.n	8001890 <StartSPITask+0x68>
        switch (pkt[0]) {
 8001868:	2b04      	cmp	r3, #4
 800186a:	d111      	bne.n	8001890 <StartSPITask+0x68>
            }
            break;

        case SPI_CMD_SET_EFFECTS:
            /* VAL_HI = bitmask of EFFECT_VOLUME | EFFECT_LPF | EFFECT_DELAY */
            g_audio_params.effects_mask = pkt[1];
 800186c:	f89d 2005 	ldrb.w	r2, [sp, #5]
 8001870:	4b1d      	ldr	r3, [pc, #116]	@ (80018e8 <StartSPITask+0xc0>)
 8001872:	729a      	strb	r2, [r3, #10]
            break;
 8001874:	e00c      	b.n	8001890 <StartSPITask+0x68>
            g_audio_params.volume = (float)pkt[1] / 100.0f;
 8001876:	f89d 3005 	ldrb.w	r3, [sp, #5]
 800187a:	ee07 3a90 	vmov	s15, r3
 800187e:	eef8 7a67 	vcvt.f32.u32	s15, s15
 8001882:	eddf 6a1a 	vldr	s13, [pc, #104]	@ 80018ec <StartSPITask+0xc4>
 8001886:	ee87 7aa6 	vdiv.f32	s14, s15, s13
 800188a:	4b17      	ldr	r3, [pc, #92]	@ (80018e8 <StartSPITask+0xc0>)
 800188c:	ed83 7a00 	vstr	s14, [r3]
        default:
            /* Unknown command: ignore */
            break;
        }

        osMutexRelease(g_params_mutex);
 8001890:	4b13      	ldr	r3, [pc, #76]	@ (80018e0 <StartSPITask+0xb8>)
 8001892:	6818      	ldr	r0, [r3, #0]
 8001894:	f7fe fd3e 	bl	8000314 <osMutexRelease>
        if (HAL_SPI_Receive(&hspi2, pkt, SPI_PKT_SIZE, 100) != HAL_OK) {
 8001898:	2364      	movs	r3, #100	@ 0x64
 800189a:	2203      	movs	r2, #3
 800189c:	a901      	add	r1, sp, #4
 800189e:	4814      	ldr	r0, [pc, #80]	@ (80018f0 <StartSPITask+0xc8>)
 80018a0:	f002 fcf7 	bl	8004292 <HAL_SPI_Receive>
 80018a4:	2800      	cmp	r0, #0
 80018a6:	d0c2      	beq.n	800182e <StartSPITask+0x6>
            __HAL_SPI_CLEAR_OVRFLAG(&hspi2);
 80018a8:	2300      	movs	r3, #0
 80018aa:	9300      	str	r3, [sp, #0]
 80018ac:	4b10      	ldr	r3, [pc, #64]	@ (80018f0 <StartSPITask+0xc8>)
 80018ae:	681b      	ldr	r3, [r3, #0]
 80018b0:	68da      	ldr	r2, [r3, #12]
 80018b2:	9200      	str	r2, [sp, #0]
 80018b4:	689b      	ldr	r3, [r3, #8]
 80018b6:	9300      	str	r3, [sp, #0]
 80018b8:	9b00      	ldr	r3, [sp, #0]
            osDelay(1);
 80018ba:	2001      	movs	r0, #1
 80018bc:	f7fe fce8 	bl	8000290 <osDelay>
            continue;
 80018c0:	e7ea      	b.n	8001898 <StartSPITask+0x70>
                uint16_t samples = ((uint16_t)pkt[1] << 8) | pkt[2];
 80018c2:	f89d 2005 	ldrb.w	r2, [sp, #5]
 80018c6:	f89d 3006 	ldrb.w	r3, [sp, #6]
 80018ca:	ea43 2302 	orr.w	r3, r3, r2, lsl #8
                if (samples > DELAY_BUF_SAMPLES)
 80018ce:	f5b3 7f00 	cmp.w	r3, #512	@ 0x200
 80018d2:	d901      	bls.n	80018d8 <StartSPITask+0xb0>
                    samples = DELAY_BUF_SAMPLES;
 80018d4:	f44f 7300 	mov.w	r3, #512	@ 0x200
                g_audio_params.delay_samples = samples;
 80018d8:	4a03      	ldr	r2, [pc, #12]	@ (80018e8 <StartSPITask+0xc0>)
 80018da:	8113      	strh	r3, [r2, #8]
            break;
 80018dc:	e7d8      	b.n	8001890 <StartSPITask+0x68>
 80018de:	bf00      	nop
 80018e0:	200008c4 	.word	0x200008c4
 80018e4:	437f0000 	.word	0x437f0000
 80018e8:	20000000 	.word	0x20000000
 80018ec:	42c80000 	.word	0x42c80000
 80018f0:	20004c2c 	.word	0x20004c2c

080018f4 <HAL_Init>:
  *         need to ensure that the SysTick time base is always set to 1 millisecond
  *         to have correct HAL operation.
  * @retval HAL status
  */
HAL_StatusTypeDef HAL_Init(void)
{
 80018f4:	b508      	push	{r3, lr}
  /* Configure Flash prefetch, Instruction cache, Data cache */ 
#if (INSTRUCTION_CACHE_ENABLE != 0U)
  __HAL_FLASH_INSTRUCTION_CACHE_ENABLE();
 80018f6:	4b0b      	ldr	r3, [pc, #44]	@ (8001924 <HAL_Init+0x30>)
 80018f8:	681a      	ldr	r2, [r3, #0]
 80018fa:	f442 7200 	orr.w	r2, r2, #512	@ 0x200
 80018fe:	601a      	str	r2, [r3, #0]
#endif /* INSTRUCTION_CACHE_ENABLE */

#if (DATA_CACHE_ENABLE != 0U)
  __HAL_FLASH_DATA_CACHE_ENABLE();
 8001900:	681a      	ldr	r2, [r3, #0]
 8001902:	f442 6280 	orr.w	r2, r2, #1024	@ 0x400
 8001906:	601a      	str	r2, [r3, #0]
#endif /* DATA_CACHE_ENABLE */

#if (PREFETCH_ENABLE != 0U)
  __HAL_FLASH_PREFETCH_BUFFER_ENABLE();
 8001908:	681a      	ldr	r2, [r3, #0]
 800190a:	f442 7280 	orr.w	r2, r2, #256	@ 0x100
 800190e:	601a      	str	r2, [r3, #0]
#endif /* PREFETCH_ENABLE */

  /* Set Interrupt Group Priority */
  HAL_NVIC_SetPriorityGrouping(NVIC_PRIORITYGROUP_4);
 8001910:	2003      	movs	r0, #3
 8001912:	f000 f875 	bl	8001a00 <HAL_NVIC_SetPriorityGrouping>

  /* Use systick as time base source and configure 1ms tick (default clock after Reset is HSI) */
  HAL_InitTick(TICK_INT_PRIORITY);
 8001916:	200f      	movs	r0, #15
 8001918:	f002 ff0a 	bl	8004730 <HAL_InitTick>

  /* Init the low level hardware */
  HAL_MspInit();
 800191c:	f000 ffb8 	bl	8002890 <HAL_MspInit>

  /* Return function status */
  return HAL_OK;
}
 8001920:	2000      	movs	r0, #0
 8001922:	bd08      	pop	{r3, pc}
 8001924:	40023c00 	.word	0x40023c00

08001928 <HAL_IncTick>:
  *      implementations in user file.
  * @retval None
  */
__weak void HAL_IncTick(void)
{
  uwTick += uwTickFreq;
 8001928:	4a03      	ldr	r2, [pc, #12]	@ (8001938 <HAL_IncTick+0x10>)
 800192a:	6811      	ldr	r1, [r2, #0]
 800192c:	4b03      	ldr	r3, [pc, #12]	@ (800193c <HAL_IncTick+0x14>)
 800192e:	781b      	ldrb	r3, [r3, #0]
 8001930:	440b      	add	r3, r1
 8001932:	6013      	str	r3, [r2, #0]
}
 8001934:	4770      	bx	lr
 8001936:	bf00      	nop
 8001938:	20004d80 	.word	0x20004d80
 800193c:	20000010 	.word	0x20000010

08001940 <HAL_GetTick>:
  *       implementations in user file.
  * @retval tick value
  */
__weak uint32_t HAL_GetTick(void)
{
  return uwTick;
 8001940:	4b01      	ldr	r3, [pc, #4]	@ (8001948 <HAL_GetTick+0x8>)
 8001942:	6818      	ldr	r0, [r3, #0]
}
 8001944:	4770      	bx	lr
 8001946:	bf00      	nop
 8001948:	20004d80 	.word	0x20004d80

0800194c <HAL_Delay>:
  *       implementations in user file.
  * @param Delay specifies the delay time length, in milliseconds.
  * @retval None
  */
__weak void HAL_Delay(uint32_t Delay)
{
 800194c:	b538      	push	{r3, r4, r5, lr}
 800194e:	4604      	mov	r4, r0
  uint32_t tickstart = HAL_GetTick();
 8001950:	f7ff fff6 	bl	8001940 <HAL_GetTick>
 8001954:	4605      	mov	r5, r0
  uint32_t wait = Delay;

  /* Add a freq to guarantee minimum wait */
  if (wait < HAL_MAX_DELAY)
 8001956:	f1b4 3fff 	cmp.w	r4, #4294967295
 800195a:	d002      	beq.n	8001962 <HAL_Delay+0x16>
  {
    wait += (uint32_t)(uwTickFreq);
 800195c:	4b04      	ldr	r3, [pc, #16]	@ (8001970 <HAL_Delay+0x24>)
 800195e:	781b      	ldrb	r3, [r3, #0]
 8001960:	441c      	add	r4, r3
  }

  while((HAL_GetTick() - tickstart) < wait)
 8001962:	f7ff ffed 	bl	8001940 <HAL_GetTick>
 8001966:	1b40      	subs	r0, r0, r5
 8001968:	42a0      	cmp	r0, r4
 800196a:	d3fa      	bcc.n	8001962 <HAL_Delay+0x16>
  {
  }
}
 800196c:	bd38      	pop	{r3, r4, r5, pc}
 800196e:	bf00      	nop
 8001970:	20000010 	.word	0x20000010

08001974 <__NVIC_EnableIRQ>:
  \param [in]      IRQn  Device specific interrupt number.
  \note    IRQn must not be negative.
 */
__STATIC_INLINE void __NVIC_EnableIRQ(IRQn_Type IRQn)
{
  if ((int32_t)(IRQn) >= 0)
 8001974:	2800      	cmp	r0, #0
 8001976:	db07      	blt.n	8001988 <__NVIC_EnableIRQ+0x14>
  {
    __COMPILER_BARRIER();
    NVIC->ISER[(((uint32_t)IRQn) >> 5UL)] = (uint32_t)(1UL << (((uint32_t)IRQn) & 0x1FUL));
 8001978:	f000 021f 	and.w	r2, r0, #31
 800197c:	0940      	lsrs	r0, r0, #5
 800197e:	2301      	movs	r3, #1
 8001980:	4093      	lsls	r3, r2
 8001982:	4a02      	ldr	r2, [pc, #8]	@ (800198c <__NVIC_EnableIRQ+0x18>)
 8001984:	f842 3020 	str.w	r3, [r2, r0, lsl #2]
    __COMPILER_BARRIER();
  }
}
 8001988:	4770      	bx	lr
 800198a:	bf00      	nop
 800198c:	e000e100 	.word	0xe000e100

08001990 <__NVIC_SetPriority>:
  \param [in]  priority  Priority to set.
  \note    The priority cannot be set for every processor exception.
 */
__STATIC_INLINE void __NVIC_SetPriority(IRQn_Type IRQn, uint32_t priority)
{
  if ((int32_t)(IRQn) >= 0)
 8001990:	2800      	cmp	r0, #0
 8001992:	db08      	blt.n	80019a6 <__NVIC_SetPriority+0x16>
  {
    NVIC->IP[((uint32_t)IRQn)]               = (uint8_t)((priority << (8U - __NVIC_PRIO_BITS)) & (uint32_t)0xFFUL);
 8001994:	0109      	lsls	r1, r1, #4
 8001996:	b2c9      	uxtb	r1, r1
 8001998:	f100 4060 	add.w	r0, r0, #3758096384	@ 0xe0000000
 800199c:	f500 4061 	add.w	r0, r0, #57600	@ 0xe100
 80019a0:	f880 1300 	strb.w	r1, [r0, #768]	@ 0x300
 80019a4:	4770      	bx	lr
  }
  else
  {
    SCB->SHP[(((uint32_t)IRQn) & 0xFUL)-4UL] = (uint8_t)((priority << (8U - __NVIC_PRIO_BITS)) & (uint32_t)0xFFUL);
 80019a6:	f000 000f 	and.w	r0, r0, #15
 80019aa:	0109      	lsls	r1, r1, #4
 80019ac:	b2c9      	uxtb	r1, r1
 80019ae:	4b01      	ldr	r3, [pc, #4]	@ (80019b4 <__NVIC_SetPriority+0x24>)
 80019b0:	5419      	strb	r1, [r3, r0]
  }
}
 80019b2:	4770      	bx	lr
 80019b4:	e000ed14 	.word	0xe000ed14

080019b8 <NVIC_EncodePriority>:
  \param [in]   PreemptPriority  Preemptive priority value (starting from 0).
  \param [in]       SubPriority  Subpriority value (starting from 0).
  \return                        Encoded priority. Value can be used in the function \ref NVIC_SetPriority().
 */
__STATIC_INLINE uint32_t NVIC_EncodePriority (uint32_t PriorityGroup, uint32_t PreemptPriority, uint32_t SubPriority)
{
 80019b8:	b500      	push	{lr}
  uint32_t PriorityGroupTmp = (PriorityGroup & (uint32_t)0x07UL);   /* only values 0..7 are used          */
 80019ba:	f000 0007 	and.w	r0, r0, #7
  uint32_t PreemptPriorityBits;
  uint32_t SubPriorityBits;

  PreemptPriorityBits = ((7UL - PriorityGroupTmp) > (uint32_t)(__NVIC_PRIO_BITS)) ? (uint32_t)(__NVIC_PRIO_BITS) : (uint32_t)(7UL - PriorityGroupTmp);
 80019be:	f1a0 0c03 	sub.w	ip, r0, #3
 80019c2:	f1bc 0f04 	cmp.w	ip, #4
 80019c6:	d807      	bhi.n	80019d8 <NVIC_EncodePriority+0x20>
 80019c8:	f1c0 0e07 	rsb	lr, r0, #7
  SubPriorityBits     = ((PriorityGroupTmp + (uint32_t)(__NVIC_PRIO_BITS)) < (uint32_t)7UL) ? (uint32_t)0UL : (uint32_t)((PriorityGroupTmp - 7UL) + (uint32_t)(__NVIC_PRIO_BITS));
 80019cc:	3004      	adds	r0, #4
 80019ce:	2806      	cmp	r0, #6
 80019d0:	d806      	bhi.n	80019e0 <NVIC_EncodePriority+0x28>
 80019d2:	f04f 0c00 	mov.w	ip, #0
 80019d6:	e003      	b.n	80019e0 <NVIC_EncodePriority+0x28>
  PreemptPriorityBits = ((7UL - PriorityGroupTmp) > (uint32_t)(__NVIC_PRIO_BITS)) ? (uint32_t)(__NVIC_PRIO_BITS) : (uint32_t)(7UL - PriorityGroupTmp);
 80019d8:	f04f 0e04 	mov.w	lr, #4
  SubPriorityBits     = ((PriorityGroupTmp + (uint32_t)(__NVIC_PRIO_BITS)) < (uint32_t)7UL) ? (uint32_t)0UL : (uint32_t)((PriorityGroupTmp - 7UL) + (uint32_t)(__NVIC_PRIO_BITS));
 80019dc:	f04f 0c00 	mov.w	ip, #0

  return (
           ((PreemptPriority & (uint32_t)((1UL << (PreemptPriorityBits)) - 1UL)) << SubPriorityBits) |
 80019e0:	f04f 33ff 	mov.w	r3, #4294967295
 80019e4:	fa03 f00e 	lsl.w	r0, r3, lr
 80019e8:	ea21 0100 	bic.w	r1, r1, r0
 80019ec:	fa01 f10c 	lsl.w	r1, r1, ip
           ((SubPriority     & (uint32_t)((1UL << (SubPriorityBits    )) - 1UL)))
 80019f0:	fa03 f30c 	lsl.w	r3, r3, ip
 80019f4:	ea22 0203 	bic.w	r2, r2, r3
         );
}
 80019f8:	ea41 0002 	orr.w	r0, r1, r2
 80019fc:	bd00      	pop	{pc}
	...

08001a00 <HAL_NVIC_SetPriorityGrouping>:
  reg_value  =  SCB->AIRCR;                                                   /* read old register configuration    */
 8001a00:	4a07      	ldr	r2, [pc, #28]	@ (8001a20 <HAL_NVIC_SetPriorityGrouping+0x20>)
 8001a02:	68d3      	ldr	r3, [r2, #12]
  reg_value &= ~((uint32_t)(SCB_AIRCR_VECTKEY_Msk | SCB_AIRCR_PRIGROUP_Msk)); /* clear bits to change               */
 8001a04:	f423 63e0 	bic.w	r3, r3, #1792	@ 0x700
 8001a08:	041b      	lsls	r3, r3, #16
 8001a0a:	0c1b      	lsrs	r3, r3, #16
                (PriorityGroupTmp << SCB_AIRCR_PRIGROUP_Pos)  );              /* Insert write key and priority group */
 8001a0c:	0200      	lsls	r0, r0, #8
 8001a0e:	f400 60e0 	and.w	r0, r0, #1792	@ 0x700
                ((uint32_t)0x5FAUL << SCB_AIRCR_VECTKEY_Pos) |
 8001a12:	4303      	orrs	r3, r0
  reg_value  =  (reg_value                                   |
 8001a14:	f043 63bf 	orr.w	r3, r3, #100139008	@ 0x5f80000
 8001a18:	f443 3300 	orr.w	r3, r3, #131072	@ 0x20000
  SCB->AIRCR =  reg_value;
 8001a1c:	60d3      	str	r3, [r2, #12]
  /* Check the parameters */
  assert_param(IS_NVIC_PRIORITY_GROUP(PriorityGroup));
  
  /* Set the PRIGROUP[10:8] bits according to the PriorityGroup parameter value */
  NVIC_SetPriorityGrouping(PriorityGroup);
}
 8001a1e:	4770      	bx	lr
 8001a20:	e000ed00 	.word	0xe000ed00

08001a24 <HAL_NVIC_SetPriority>:
  *         This parameter can be a value between 0 and 15
  *         A lower priority value indicates a higher priority.          
  * @retval None
  */
void HAL_NVIC_SetPriority(IRQn_Type IRQn, uint32_t PreemptPriority, uint32_t SubPriority)
{ 
 8001a24:	b510      	push	{r4, lr}
 8001a26:	4604      	mov	r4, r0
  return ((uint32_t)((SCB->AIRCR & SCB_AIRCR_PRIGROUP_Msk) >> SCB_AIRCR_PRIGROUP_Pos));
 8001a28:	4b05      	ldr	r3, [pc, #20]	@ (8001a40 <HAL_NVIC_SetPriority+0x1c>)
 8001a2a:	68d8      	ldr	r0, [r3, #12]
  assert_param(IS_NVIC_SUB_PRIORITY(SubPriority));
  assert_param(IS_NVIC_PREEMPTION_PRIORITY(PreemptPriority));
  
  prioritygroup = NVIC_GetPriorityGrouping();
  
  NVIC_SetPriority(IRQn, NVIC_EncodePriority(prioritygroup, PreemptPriority, SubPriority));
 8001a2c:	f3c0 2002 	ubfx	r0, r0, #8, #3
 8001a30:	f7ff ffc2 	bl	80019b8 <NVIC_EncodePriority>
 8001a34:	4601      	mov	r1, r0
 8001a36:	4620      	mov	r0, r4
 8001a38:	f7ff ffaa 	bl	8001990 <__NVIC_SetPriority>
}
 8001a3c:	bd10      	pop	{r4, pc}
 8001a3e:	bf00      	nop
 8001a40:	e000ed00 	.word	0xe000ed00

08001a44 <HAL_NVIC_EnableIRQ>:
  *         This parameter can be an enumerator of IRQn_Type enumeration
  *         (For the complete STM32 Devices IRQ Channels list, please refer to the appropriate CMSIS device file (stm32f4xxxx.h))
  * @retval None
  */
void HAL_NVIC_EnableIRQ(IRQn_Type IRQn)
{
 8001a44:	b508      	push	{r3, lr}
  /* Check the parameters */
  assert_param(IS_NVIC_DEVICE_IRQ(IRQn));
  
  /* Enable interrupt */
  NVIC_EnableIRQ(IRQn);
 8001a46:	f7ff ff95 	bl	8001974 <__NVIC_EnableIRQ>
}
 8001a4a:	bd08      	pop	{r3, pc}

08001a4c <HAL_GPIO_Init>:
  * @param  GPIO_Init pointer to a GPIO_InitTypeDef structure that contains
  *         the configuration information for the specified GPIO peripheral.
  * @retval None
  */
void HAL_GPIO_Init(GPIO_TypeDef  *GPIOx, GPIO_InitTypeDef *GPIO_Init)
{
 8001a4c:	b570      	push	{r4, r5, r6, lr}
 8001a4e:	b082      	sub	sp, #8
 8001a50:	468e      	mov	lr, r1
  assert_param(IS_GPIO_ALL_INSTANCE(GPIOx));
  assert_param(IS_GPIO_PIN(GPIO_Init->Pin));
  assert_param(IS_GPIO_MODE(GPIO_Init->Mode));

  /* Configure the port pins */
  for(position = 0U; position < GPIO_NUMBER; position++)
 8001a52:	2300      	movs	r3, #0
 8001a54:	e069      	b.n	8001b2a <HAL_GPIO_Init+0xde>
          (GPIO_Init->Mode & GPIO_MODE) == MODE_AF)
      {
        /* Check the Speed parameter */
        assert_param(IS_GPIO_SPEED(GPIO_Init->Speed));
        /* Configure the IO Speed */
        temp = GPIOx->OSPEEDR; 
 8001a56:	6885      	ldr	r5, [r0, #8]
        temp &= ~(GPIO_OSPEEDER_OSPEEDR0 << (position * 2U));
 8001a58:	ea4f 0c43 	mov.w	ip, r3, lsl #1
 8001a5c:	2103      	movs	r1, #3
 8001a5e:	fa01 f10c 	lsl.w	r1, r1, ip
 8001a62:	ea25 0501 	bic.w	r5, r5, r1
        temp |= (GPIO_Init->Speed << (position * 2U));
 8001a66:	f8de 100c 	ldr.w	r1, [lr, #12]
 8001a6a:	fa01 f10c 	lsl.w	r1, r1, ip
 8001a6e:	4329      	orrs	r1, r5
        GPIOx->OSPEEDR = temp;
 8001a70:	6081      	str	r1, [r0, #8]

        /* Configure the IO Output Type */
        temp = GPIOx->OTYPER;
 8001a72:	6841      	ldr	r1, [r0, #4]
        temp &= ~(GPIO_OTYPER_OT_0 << position) ;
 8001a74:	ea21 0102 	bic.w	r1, r1, r2
        temp |= (((GPIO_Init->Mode & OUTPUT_TYPE) >> OUTPUT_TYPE_Pos) << position);
 8001a78:	f8de 2004 	ldr.w	r2, [lr, #4]
 8001a7c:	f3c2 1200 	ubfx	r2, r2, #4, #1
 8001a80:	409a      	lsls	r2, r3
 8001a82:	430a      	orrs	r2, r1
        GPIOx->OTYPER = temp;
 8001a84:	6042      	str	r2, [r0, #4]
 8001a86:	e065      	b.n	8001b54 <HAL_GPIO_Init+0x108>
      if((GPIO_Init->Mode & GPIO_MODE) == MODE_AF)
      {
        /* Check the Alternate function parameter */
        assert_param(IS_GPIO_AF(GPIO_Init->Alternate));
        /* Configure Alternate function mapped with the current IO */
        temp = GPIOx->AFR[position >> 3U];
 8001a88:	08d9      	lsrs	r1, r3, #3
 8001a8a:	3108      	adds	r1, #8
 8001a8c:	f850 2021 	ldr.w	r2, [r0, r1, lsl #2]
        temp &= ~(0xFU << ((uint32_t)(position & 0x07U) * 4U)) ;
 8001a90:	f003 0507 	and.w	r5, r3, #7
 8001a94:	00ad      	lsls	r5, r5, #2
 8001a96:	f04f 0c0f 	mov.w	ip, #15
 8001a9a:	fa0c fc05 	lsl.w	ip, ip, r5
 8001a9e:	ea22 0c0c 	bic.w	ip, r2, ip
        temp |= ((uint32_t)(GPIO_Init->Alternate) << (((uint32_t)position & 0x07U) * 4U));
 8001aa2:	f8de 2010 	ldr.w	r2, [lr, #16]
 8001aa6:	40aa      	lsls	r2, r5
 8001aa8:	ea42 020c 	orr.w	r2, r2, ip
        GPIOx->AFR[position >> 3U] = temp;
 8001aac:	f840 2021 	str.w	r2, [r0, r1, lsl #2]
 8001ab0:	e067      	b.n	8001b82 <HAL_GPIO_Init+0x136>
        /* Enable SYSCFG Clock */
        __HAL_RCC_SYSCFG_CLK_ENABLE();

        temp = SYSCFG->EXTICR[position >> 2U];
        temp &= ~(0x0FU << (4U * (position & 0x03U)));
        temp |= ((uint32_t)(GPIO_GET_INDEX(GPIOx)) << (4U * (position & 0x03U)));
 8001ab2:	2207      	movs	r2, #7
 8001ab4:	e000      	b.n	8001ab8 <HAL_GPIO_Init+0x6c>
 8001ab6:	2200      	movs	r2, #0
 8001ab8:	fa02 f20c 	lsl.w	r2, r2, ip
 8001abc:	432a      	orrs	r2, r5
        SYSCFG->EXTICR[position >> 2U] = temp;
 8001abe:	3102      	adds	r1, #2
 8001ac0:	4d60      	ldr	r5, [pc, #384]	@ (8001c44 <HAL_GPIO_Init+0x1f8>)
 8001ac2:	f845 2021 	str.w	r2, [r5, r1, lsl #2]

        /* Clear Rising Falling edge configuration */
        temp = EXTI->RTSR;
 8001ac6:	4a60      	ldr	r2, [pc, #384]	@ (8001c48 <HAL_GPIO_Init+0x1fc>)
 8001ac8:	6891      	ldr	r1, [r2, #8]
        temp &= ~((uint32_t)iocurrent);
 8001aca:	43e2      	mvns	r2, r4
 8001acc:	ea21 0504 	bic.w	r5, r1, r4
        if((GPIO_Init->Mode & TRIGGER_RISING) != 0x00U)
 8001ad0:	f8de 6004 	ldr.w	r6, [lr, #4]
 8001ad4:	f416 1f80 	tst.w	r6, #1048576	@ 0x100000
 8001ad8:	d001      	beq.n	8001ade <HAL_GPIO_Init+0x92>
        {
          temp |= iocurrent;
 8001ada:	ea44 0501 	orr.w	r5, r4, r1
        }
        EXTI->RTSR = temp;
 8001ade:	495a      	ldr	r1, [pc, #360]	@ (8001c48 <HAL_GPIO_Init+0x1fc>)
 8001ae0:	608d      	str	r5, [r1, #8]

        temp = EXTI->FTSR;
 8001ae2:	68c9      	ldr	r1, [r1, #12]
        temp &= ~((uint32_t)iocurrent);
 8001ae4:	ea02 0501 	and.w	r5, r2, r1
        if((GPIO_Init->Mode & TRIGGER_FALLING) != 0x00U)
 8001ae8:	f8de 6004 	ldr.w	r6, [lr, #4]
 8001aec:	f416 1f00 	tst.w	r6, #2097152	@ 0x200000
 8001af0:	d001      	beq.n	8001af6 <HAL_GPIO_Init+0xaa>
        {
          temp |= iocurrent;
 8001af2:	ea44 0501 	orr.w	r5, r4, r1
        }
        EXTI->FTSR = temp;
 8001af6:	4954      	ldr	r1, [pc, #336]	@ (8001c48 <HAL_GPIO_Init+0x1fc>)
 8001af8:	60cd      	str	r5, [r1, #12]

        temp = EXTI->EMR;
 8001afa:	6849      	ldr	r1, [r1, #4]
        temp &= ~((uint32_t)iocurrent);
 8001afc:	ea02 0501 	and.w	r5, r2, r1
        if((GPIO_Init->Mode & EXTI_EVT) != 0x00U)
 8001b00:	f8de 6004 	ldr.w	r6, [lr, #4]
 8001b04:	f416 3f00 	tst.w	r6, #131072	@ 0x20000
 8001b08:	d001      	beq.n	8001b0e <HAL_GPIO_Init+0xc2>
        {
          temp |= iocurrent;
 8001b0a:	ea44 0501 	orr.w	r5, r4, r1
        }
        EXTI->EMR = temp;
 8001b0e:	494e      	ldr	r1, [pc, #312]	@ (8001c48 <HAL_GPIO_Init+0x1fc>)
 8001b10:	604d      	str	r5, [r1, #4]

        /* Clear EXTI line configuration */
        temp = EXTI->IMR;
 8001b12:	6809      	ldr	r1, [r1, #0]
        temp &= ~((uint32_t)iocurrent);
 8001b14:	400a      	ands	r2, r1
        if((GPIO_Init->Mode & EXTI_IT) != 0x00U)
 8001b16:	f8de 5004 	ldr.w	r5, [lr, #4]
 8001b1a:	f415 3f80 	tst.w	r5, #65536	@ 0x10000
 8001b1e:	d001      	beq.n	8001b24 <HAL_GPIO_Init+0xd8>
        {
          temp |= iocurrent;
 8001b20:	ea44 0201 	orr.w	r2, r4, r1
        }
        EXTI->IMR = temp;
 8001b24:	4948      	ldr	r1, [pc, #288]	@ (8001c48 <HAL_GPIO_Init+0x1fc>)
 8001b26:	600a      	str	r2, [r1, #0]
  for(position = 0U; position < GPIO_NUMBER; position++)
 8001b28:	3301      	adds	r3, #1
 8001b2a:	2b0f      	cmp	r3, #15
 8001b2c:	f200 8087 	bhi.w	8001c3e <HAL_GPIO_Init+0x1f2>
    ioposition = 0x01U << position;
 8001b30:	2201      	movs	r2, #1
 8001b32:	409a      	lsls	r2, r3
    iocurrent = (uint32_t)(GPIO_Init->Pin) & ioposition;
 8001b34:	f8de 1000 	ldr.w	r1, [lr]
 8001b38:	ea01 0402 	and.w	r4, r1, r2
    if(iocurrent == ioposition)
 8001b3c:	ea32 0101 	bics.w	r1, r2, r1
 8001b40:	d1f2      	bne.n	8001b28 <HAL_GPIO_Init+0xdc>
      if(((GPIO_Init->Mode & GPIO_MODE) == MODE_OUTPUT) || \
 8001b42:	f8de 1004 	ldr.w	r1, [lr, #4]
 8001b46:	f001 0c03 	and.w	ip, r1, #3
 8001b4a:	f10c 3cff 	add.w	ip, ip, #4294967295
 8001b4e:	f1bc 0f01 	cmp.w	ip, #1
 8001b52:	d980      	bls.n	8001a56 <HAL_GPIO_Init+0xa>
      if((GPIO_Init->Mode & GPIO_MODE) != MODE_ANALOG)
 8001b54:	f8de 2004 	ldr.w	r2, [lr, #4]
 8001b58:	f002 0203 	and.w	r2, r2, #3
 8001b5c:	2a03      	cmp	r2, #3
 8001b5e:	d00a      	beq.n	8001b76 <HAL_GPIO_Init+0x12a>
        temp = GPIOx->PUPDR;
 8001b60:	68c1      	ldr	r1, [r0, #12]
        temp &= ~(GPIO_PUPDR_PUPDR0 << (position * 2U));
 8001b62:	005d      	lsls	r5, r3, #1
 8001b64:	2203      	movs	r2, #3
 8001b66:	40aa      	lsls	r2, r5
 8001b68:	ea21 0102 	bic.w	r1, r1, r2
        temp |= ((GPIO_Init->Pull) << (position * 2U));
 8001b6c:	f8de 2008 	ldr.w	r2, [lr, #8]
 8001b70:	40aa      	lsls	r2, r5
 8001b72:	430a      	orrs	r2, r1
        GPIOx->PUPDR = temp;
 8001b74:	60c2      	str	r2, [r0, #12]
      if((GPIO_Init->Mode & GPIO_MODE) == MODE_AF)
 8001b76:	f8de 2004 	ldr.w	r2, [lr, #4]
 8001b7a:	f002 0203 	and.w	r2, r2, #3
 8001b7e:	2a02      	cmp	r2, #2
 8001b80:	d082      	beq.n	8001a88 <HAL_GPIO_Init+0x3c>
      temp = GPIOx->MODER;
 8001b82:	6801      	ldr	r1, [r0, #0]
      temp &= ~(GPIO_MODER_MODER0 << (position * 2U));
 8001b84:	ea4f 0c43 	mov.w	ip, r3, lsl #1
 8001b88:	2203      	movs	r2, #3
 8001b8a:	fa02 f20c 	lsl.w	r2, r2, ip
 8001b8e:	ea21 0102 	bic.w	r1, r1, r2
      temp |= ((GPIO_Init->Mode & GPIO_MODE) << (position * 2U));
 8001b92:	f8de 2004 	ldr.w	r2, [lr, #4]
 8001b96:	f002 0203 	and.w	r2, r2, #3
 8001b9a:	fa02 f20c 	lsl.w	r2, r2, ip
 8001b9e:	430a      	orrs	r2, r1
      GPIOx->MODER = temp;
 8001ba0:	6002      	str	r2, [r0, #0]
      if((GPIO_Init->Mode & EXTI_MODE) != 0x00U)
 8001ba2:	f8de 2004 	ldr.w	r2, [lr, #4]
 8001ba6:	f412 3f40 	tst.w	r2, #196608	@ 0x30000
 8001baa:	d0bd      	beq.n	8001b28 <HAL_GPIO_Init+0xdc>
        __HAL_RCC_SYSCFG_CLK_ENABLE();
 8001bac:	2200      	movs	r2, #0
 8001bae:	9201      	str	r2, [sp, #4]
 8001bb0:	4a26      	ldr	r2, [pc, #152]	@ (8001c4c <HAL_GPIO_Init+0x200>)
 8001bb2:	6c51      	ldr	r1, [r2, #68]	@ 0x44
 8001bb4:	f441 4180 	orr.w	r1, r1, #16384	@ 0x4000
 8001bb8:	6451      	str	r1, [r2, #68]	@ 0x44
 8001bba:	6c52      	ldr	r2, [r2, #68]	@ 0x44
 8001bbc:	f402 4280 	and.w	r2, r2, #16384	@ 0x4000
 8001bc0:	9201      	str	r2, [sp, #4]
 8001bc2:	9a01      	ldr	r2, [sp, #4]
        temp = SYSCFG->EXTICR[position >> 2U];
 8001bc4:	0899      	lsrs	r1, r3, #2
 8001bc6:	1c8d      	adds	r5, r1, #2
 8001bc8:	4a1e      	ldr	r2, [pc, #120]	@ (8001c44 <HAL_GPIO_Init+0x1f8>)
 8001bca:	f852 5025 	ldr.w	r5, [r2, r5, lsl #2]
        temp &= ~(0x0FU << (4U * (position & 0x03U)));
 8001bce:	f003 0c03 	and.w	ip, r3, #3
 8001bd2:	ea4f 0c8c 	mov.w	ip, ip, lsl #2
 8001bd6:	220f      	movs	r2, #15
 8001bd8:	fa02 f20c 	lsl.w	r2, r2, ip
 8001bdc:	ea25 0502 	bic.w	r5, r5, r2
        temp |= ((uint32_t)(GPIO_GET_INDEX(GPIOx)) << (4U * (position & 0x03U)));
 8001be0:	4a1b      	ldr	r2, [pc, #108]	@ (8001c50 <HAL_GPIO_Init+0x204>)
 8001be2:	4290      	cmp	r0, r2
 8001be4:	f43f af67 	beq.w	8001ab6 <HAL_GPIO_Init+0x6a>
 8001be8:	f502 6280 	add.w	r2, r2, #1024	@ 0x400
 8001bec:	4290      	cmp	r0, r2
 8001bee:	d01a      	beq.n	8001c26 <HAL_GPIO_Init+0x1da>
 8001bf0:	f502 6280 	add.w	r2, r2, #1024	@ 0x400
 8001bf4:	4290      	cmp	r0, r2
 8001bf6:	d018      	beq.n	8001c2a <HAL_GPIO_Init+0x1de>
 8001bf8:	f502 6280 	add.w	r2, r2, #1024	@ 0x400
 8001bfc:	4290      	cmp	r0, r2
 8001bfe:	d016      	beq.n	8001c2e <HAL_GPIO_Init+0x1e2>
 8001c00:	f502 6280 	add.w	r2, r2, #1024	@ 0x400
 8001c04:	4290      	cmp	r0, r2
 8001c06:	d014      	beq.n	8001c32 <HAL_GPIO_Init+0x1e6>
 8001c08:	f502 6280 	add.w	r2, r2, #1024	@ 0x400
 8001c0c:	4290      	cmp	r0, r2
 8001c0e:	d012      	beq.n	8001c36 <HAL_GPIO_Init+0x1ea>
 8001c10:	f502 6280 	add.w	r2, r2, #1024	@ 0x400
 8001c14:	4290      	cmp	r0, r2
 8001c16:	d010      	beq.n	8001c3a <HAL_GPIO_Init+0x1ee>
 8001c18:	f502 6280 	add.w	r2, r2, #1024	@ 0x400
 8001c1c:	4290      	cmp	r0, r2
 8001c1e:	f43f af48 	beq.w	8001ab2 <HAL_GPIO_Init+0x66>
 8001c22:	2208      	movs	r2, #8
 8001c24:	e748      	b.n	8001ab8 <HAL_GPIO_Init+0x6c>
 8001c26:	2201      	movs	r2, #1
 8001c28:	e746      	b.n	8001ab8 <HAL_GPIO_Init+0x6c>
 8001c2a:	2202      	movs	r2, #2
 8001c2c:	e744      	b.n	8001ab8 <HAL_GPIO_Init+0x6c>
 8001c2e:	2203      	movs	r2, #3
 8001c30:	e742      	b.n	8001ab8 <HAL_GPIO_Init+0x6c>
 8001c32:	2204      	movs	r2, #4
 8001c34:	e740      	b.n	8001ab8 <HAL_GPIO_Init+0x6c>
 8001c36:	2205      	movs	r2, #5
 8001c38:	e73e      	b.n	8001ab8 <HAL_GPIO_Init+0x6c>
 8001c3a:	2206      	movs	r2, #6
 8001c3c:	e73c      	b.n	8001ab8 <HAL_GPIO_Init+0x6c>
      }
    }
  }
}
 8001c3e:	b002      	add	sp, #8
 8001c40:	bd70      	pop	{r4, r5, r6, pc}
 8001c42:	bf00      	nop
 8001c44:	40013800 	.word	0x40013800
 8001c48:	40013c00 	.word	0x40013c00
 8001c4c:	40023800 	.word	0x40023800
 8001c50:	40020000 	.word	0x40020000

08001c54 <HAL_GPIO_WritePin>:
{
  /* Check the parameters */
  assert_param(IS_GPIO_PIN(GPIO_Pin));
  assert_param(IS_GPIO_PIN_ACTION(PinState));

  if(PinState != GPIO_PIN_RESET)
 8001c54:	b10a      	cbz	r2, 8001c5a <HAL_GPIO_WritePin+0x6>
  {
    GPIOx->BSRR = GPIO_Pin;
 8001c56:	6181      	str	r1, [r0, #24]
 8001c58:	4770      	bx	lr
  }
  else
  {
    GPIOx->BSRR = (uint32_t)GPIO_Pin << 16U;
 8001c5a:	0409      	lsls	r1, r1, #16
 8001c5c:	6181      	str	r1, [r0, #24]
  }
}
 8001c5e:	4770      	bx	lr

08001c60 <HAL_GPIO_TogglePin>:

  /* Check the parameters */
  assert_param(IS_GPIO_PIN(GPIO_Pin));

  /* get current Output Data Register value */
  odr = GPIOx->ODR;
 8001c60:	6943      	ldr	r3, [r0, #20]

  /* Set selected pins that were at low level, and reset ones that were high */
  GPIOx->BSRR = ((odr & GPIO_Pin) << GPIO_NUMBER) | (~odr & GPIO_Pin);
 8001c62:	ea01 0203 	and.w	r2, r1, r3
 8001c66:	ea21 0103 	bic.w	r1, r1, r3
 8001c6a:	ea41 4102 	orr.w	r1, r1, r2, lsl #16
 8001c6e:	6181      	str	r1, [r0, #24]
}
 8001c70:	4770      	bx	lr
	...

08001c74 <HAL_I2C_Init>:
{
  uint32_t freqrange;
  uint32_t pclk1;

  /* Check the I2C handle allocation */
  if (hi2c == NULL)
 8001c74:	2800      	cmp	r0, #0
 8001c76:	f000 80da 	beq.w	8001e2e <HAL_I2C_Init+0x1ba>
{
 8001c7a:	b538      	push	{r3, r4, r5, lr}
 8001c7c:	4604      	mov	r4, r0
  assert_param(IS_I2C_DUAL_ADDRESS(hi2c->Init.DualAddressMode));
  assert_param(IS_I2C_OWN_ADDRESS2(hi2c->Init.OwnAddress2));
  assert_param(IS_I2C_GENERAL_CALL(hi2c->Init.GeneralCallMode));
  assert_param(IS_I2C_NO_STRETCH(hi2c->Init.NoStretchMode));

  if (hi2c->State == HAL_I2C_STATE_RESET)
 8001c7e:	f890 303d 	ldrb.w	r3, [r0, #61]	@ 0x3d
 8001c82:	2b00      	cmp	r3, #0
 8001c84:	d051      	beq.n	8001d2a <HAL_I2C_Init+0xb6>
    /* Init the low level hardware : GPIO, CLOCK, NVIC */
    HAL_I2C_MspInit(hi2c);
#endif /* USE_HAL_I2C_REGISTER_CALLBACKS */
  }

  hi2c->State = HAL_I2C_STATE_BUSY;
 8001c86:	2324      	movs	r3, #36	@ 0x24
 8001c88:	f884 303d 	strb.w	r3, [r4, #61]	@ 0x3d

  /* Disable the selected I2C peripheral */
  __HAL_I2C_DISABLE(hi2c);
 8001c8c:	6822      	ldr	r2, [r4, #0]
 8001c8e:	6813      	ldr	r3, [r2, #0]
 8001c90:	f023 0301 	bic.w	r3, r3, #1
 8001c94:	6013      	str	r3, [r2, #0]

  /*Reset I2C*/
  hi2c->Instance->CR1 |= I2C_CR1_SWRST;
 8001c96:	6822      	ldr	r2, [r4, #0]
 8001c98:	6813      	ldr	r3, [r2, #0]
 8001c9a:	f443 4300 	orr.w	r3, r3, #32768	@ 0x8000
 8001c9e:	6013      	str	r3, [r2, #0]
  hi2c->Instance->CR1 &= ~I2C_CR1_SWRST;
 8001ca0:	6822      	ldr	r2, [r4, #0]
 8001ca2:	6813      	ldr	r3, [r2, #0]
 8001ca4:	f423 4300 	bic.w	r3, r3, #32768	@ 0x8000
 8001ca8:	6013      	str	r3, [r2, #0]

  /* Get PCLK1 frequency */
  pclk1 = HAL_RCC_GetPCLK1Freq();
 8001caa:	f001 ff53 	bl	8003b54 <HAL_RCC_GetPCLK1Freq>

  /* Check the minimum allowed PCLK1 frequency */
  if (I2C_MIN_PCLK_FREQ(pclk1, hi2c->Init.ClockSpeed) == 1U)
 8001cae:	6862      	ldr	r2, [r4, #4]
 8001cb0:	4b61      	ldr	r3, [pc, #388]	@ (8001e38 <HAL_I2C_Init+0x1c4>)
 8001cb2:	429a      	cmp	r2, r3
 8001cb4:	d83e      	bhi.n	8001d34 <HAL_I2C_Init+0xc0>
 8001cb6:	4b61      	ldr	r3, [pc, #388]	@ (8001e3c <HAL_I2C_Init+0x1c8>)
 8001cb8:	4298      	cmp	r0, r3
 8001cba:	bf8c      	ite	hi
 8001cbc:	2300      	movhi	r3, #0
 8001cbe:	2301      	movls	r3, #1
 8001cc0:	2b00      	cmp	r3, #0
 8001cc2:	f040 80b6 	bne.w	8001e32 <HAL_I2C_Init+0x1be>
  {
    return HAL_ERROR;
  }

  /* Calculate frequency range */
  freqrange = I2C_FREQRANGE(pclk1);
 8001cc6:	495e      	ldr	r1, [pc, #376]	@ (8001e40 <HAL_I2C_Init+0x1cc>)
 8001cc8:	fba1 3100 	umull	r3, r1, r1, r0
 8001ccc:	0c8b      	lsrs	r3, r1, #18

  /*---------------------------- I2Cx CR2 Configuration ----------------------*/
  /* Configure I2Cx: Frequency range */
  MODIFY_REG(hi2c->Instance->CR2, I2C_CR2_FREQ, freqrange);
 8001cce:	f8d4 c000 	ldr.w	ip, [r4]
 8001cd2:	f8dc 2004 	ldr.w	r2, [ip, #4]
 8001cd6:	f022 023f 	bic.w	r2, r2, #63	@ 0x3f
 8001cda:	ea42 4291 	orr.w	r2, r2, r1, lsr #18
 8001cde:	f8cc 2004 	str.w	r2, [ip, #4]

  /*---------------------------- I2Cx TRISE Configuration --------------------*/
  /* Configure I2Cx: Rise Time */
  MODIFY_REG(hi2c->Instance->TRISE, I2C_TRISE_TRISE, I2C_RISE_TIME(freqrange, hi2c->Init.ClockSpeed));
 8001ce2:	6821      	ldr	r1, [r4, #0]
 8001ce4:	6a0a      	ldr	r2, [r1, #32]
 8001ce6:	f022 023f 	bic.w	r2, r2, #63	@ 0x3f
 8001cea:	f8df c14c 	ldr.w	ip, [pc, #332]	@ 8001e38 <HAL_I2C_Init+0x1c4>
 8001cee:	6865      	ldr	r5, [r4, #4]
 8001cf0:	4565      	cmp	r5, ip
 8001cf2:	d825      	bhi.n	8001d40 <HAL_I2C_Init+0xcc>
 8001cf4:	3301      	adds	r3, #1
 8001cf6:	4313      	orrs	r3, r2
 8001cf8:	620b      	str	r3, [r1, #32]

  /*---------------------------- I2Cx CCR Configuration ----------------------*/
  /* Configure I2Cx: Speed */
  MODIFY_REG(hi2c->Instance->CCR, (I2C_CCR_FS | I2C_CCR_DUTY | I2C_CCR_CCR), I2C_SPEED(pclk1, hi2c->Init.ClockSpeed, hi2c->Init.DutyCycle));
 8001cfa:	6821      	ldr	r1, [r4, #0]
 8001cfc:	69ca      	ldr	r2, [r1, #28]
 8001cfe:	f422 424f 	bic.w	r2, r2, #52992	@ 0xcf00
 8001d02:	f022 02ff 	bic.w	r2, r2, #255	@ 0xff
 8001d06:	f8d4 c004 	ldr.w	ip, [r4, #4]
 8001d0a:	4b4b      	ldr	r3, [pc, #300]	@ (8001e38 <HAL_I2C_Init+0x1c4>)
 8001d0c:	459c      	cmp	ip, r3
 8001d0e:	d822      	bhi.n	8001d56 <HAL_I2C_Init+0xe2>
 8001d10:	1e43      	subs	r3, r0, #1
 8001d12:	ea4f 0c4c 	mov.w	ip, ip, lsl #1
 8001d16:	fbb3 f3fc 	udiv	r3, r3, ip
 8001d1a:	3301      	adds	r3, #1
 8001d1c:	f640 70fc 	movw	r0, #4092	@ 0xffc
 8001d20:	4203      	tst	r3, r0
 8001d22:	d054      	beq.n	8001dce <HAL_I2C_Init+0x15a>
 8001d24:	f3c3 030b 	ubfx	r3, r3, #0, #12
 8001d28:	e052      	b.n	8001dd0 <HAL_I2C_Init+0x15c>
    hi2c->Lock = HAL_UNLOCKED;
 8001d2a:	f880 303c 	strb.w	r3, [r0, #60]	@ 0x3c
    HAL_I2C_MspInit(hi2c);
 8001d2e:	f000 fdd1 	bl	80028d4 <HAL_I2C_MspInit>
 8001d32:	e7a8      	b.n	8001c86 <HAL_I2C_Init+0x12>
  if (I2C_MIN_PCLK_FREQ(pclk1, hi2c->Init.ClockSpeed) == 1U)
 8001d34:	4b43      	ldr	r3, [pc, #268]	@ (8001e44 <HAL_I2C_Init+0x1d0>)
 8001d36:	4298      	cmp	r0, r3
 8001d38:	bf8c      	ite	hi
 8001d3a:	2300      	movhi	r3, #0
 8001d3c:	2301      	movls	r3, #1
 8001d3e:	e7bf      	b.n	8001cc0 <HAL_I2C_Init+0x4c>
  MODIFY_REG(hi2c->Instance->TRISE, I2C_TRISE_TRISE, I2C_RISE_TIME(freqrange, hi2c->Init.ClockSpeed));
 8001d40:	f44f 7c96 	mov.w	ip, #300	@ 0x12c
 8001d44:	fb0c f303 	mul.w	r3, ip, r3
 8001d48:	f8df c0fc 	ldr.w	ip, [pc, #252]	@ 8001e48 <HAL_I2C_Init+0x1d4>
 8001d4c:	fbac c303 	umull	ip, r3, ip, r3
 8001d50:	099b      	lsrs	r3, r3, #6
 8001d52:	3301      	adds	r3, #1
 8001d54:	e7cf      	b.n	8001cf6 <HAL_I2C_Init+0x82>
  MODIFY_REG(hi2c->Instance->CCR, (I2C_CCR_FS | I2C_CCR_DUTY | I2C_CCR_CCR), I2C_SPEED(pclk1, hi2c->Init.ClockSpeed, hi2c->Init.DutyCycle));
 8001d56:	f8d4 e008 	ldr.w	lr, [r4, #8]
 8001d5a:	f1be 0f00 	cmp.w	lr, #0
 8001d5e:	d11a      	bne.n	8001d96 <HAL_I2C_Init+0x122>
 8001d60:	1e43      	subs	r3, r0, #1
 8001d62:	eb0c 054c 	add.w	r5, ip, ip, lsl #1
 8001d66:	fbb3 f3f5 	udiv	r3, r3, r5
 8001d6a:	3301      	adds	r3, #1
 8001d6c:	f3c3 030b 	ubfx	r3, r3, #0, #12
 8001d70:	fab3 f383 	clz	r3, r3
 8001d74:	095b      	lsrs	r3, r3, #5
 8001d76:	2b00      	cmp	r3, #0
 8001d78:	d157      	bne.n	8001e2a <HAL_I2C_Init+0x1b6>
 8001d7a:	f1be 0f00 	cmp.w	lr, #0
 8001d7e:	d119      	bne.n	8001db4 <HAL_I2C_Init+0x140>
 8001d80:	1e43      	subs	r3, r0, #1
 8001d82:	eb0c 0c4c 	add.w	ip, ip, ip, lsl #1
 8001d86:	fbb3 f3fc 	udiv	r3, r3, ip
 8001d8a:	3301      	adds	r3, #1
 8001d8c:	f3c3 030b 	ubfx	r3, r3, #0, #12
 8001d90:	f443 4300 	orr.w	r3, r3, #32768	@ 0x8000
 8001d94:	e01c      	b.n	8001dd0 <HAL_I2C_Init+0x15c>
 8001d96:	eb0c 038c 	add.w	r3, ip, ip, lsl #2
 8001d9a:	eb03 0383 	add.w	r3, r3, r3, lsl #2
 8001d9e:	461d      	mov	r5, r3
 8001da0:	1e43      	subs	r3, r0, #1
 8001da2:	fbb3 f3f5 	udiv	r3, r3, r5
 8001da6:	3301      	adds	r3, #1
 8001da8:	f3c3 030b 	ubfx	r3, r3, #0, #12
 8001dac:	fab3 f383 	clz	r3, r3
 8001db0:	095b      	lsrs	r3, r3, #5
 8001db2:	e7e0      	b.n	8001d76 <HAL_I2C_Init+0x102>
 8001db4:	1e43      	subs	r3, r0, #1
 8001db6:	eb0c 0c8c 	add.w	ip, ip, ip, lsl #2
 8001dba:	eb0c 0c8c 	add.w	ip, ip, ip, lsl #2
 8001dbe:	fbb3 f3fc 	udiv	r3, r3, ip
 8001dc2:	3301      	adds	r3, #1
 8001dc4:	f3c3 030b 	ubfx	r3, r3, #0, #12
 8001dc8:	f443 4340 	orr.w	r3, r3, #49152	@ 0xc000
 8001dcc:	e000      	b.n	8001dd0 <HAL_I2C_Init+0x15c>
 8001dce:	2304      	movs	r3, #4
 8001dd0:	431a      	orrs	r2, r3
 8001dd2:	61ca      	str	r2, [r1, #28]

  /*---------------------------- I2Cx CR1 Configuration ----------------------*/
  /* Configure I2Cx: Generalcall and NoStretch mode */
  MODIFY_REG(hi2c->Instance->CR1, (I2C_CR1_ENGC | I2C_CR1_NOSTRETCH), (hi2c->Init.GeneralCallMode | hi2c->Init.NoStretchMode));
 8001dd4:	6821      	ldr	r1, [r4, #0]
 8001dd6:	680b      	ldr	r3, [r1, #0]
 8001dd8:	f023 03c0 	bic.w	r3, r3, #192	@ 0xc0
 8001ddc:	69e2      	ldr	r2, [r4, #28]
 8001dde:	6a20      	ldr	r0, [r4, #32]
 8001de0:	4302      	orrs	r2, r0
 8001de2:	4313      	orrs	r3, r2
 8001de4:	600b      	str	r3, [r1, #0]

  /*---------------------------- I2Cx OAR1 Configuration ---------------------*/
  /* Configure I2Cx: Own Address1 and addressing mode */
  MODIFY_REG(hi2c->Instance->OAR1, (I2C_OAR1_ADDMODE | I2C_OAR1_ADD8_9 | I2C_OAR1_ADD1_7 | I2C_OAR1_ADD0), (hi2c->Init.AddressingMode | hi2c->Init.OwnAddress1));
 8001de6:	6821      	ldr	r1, [r4, #0]
 8001de8:	688b      	ldr	r3, [r1, #8]
 8001dea:	f423 4303 	bic.w	r3, r3, #33536	@ 0x8300
 8001dee:	f023 03ff 	bic.w	r3, r3, #255	@ 0xff
 8001df2:	6922      	ldr	r2, [r4, #16]
 8001df4:	68e0      	ldr	r0, [r4, #12]
 8001df6:	4302      	orrs	r2, r0
 8001df8:	4313      	orrs	r3, r2
 8001dfa:	608b      	str	r3, [r1, #8]

  /*---------------------------- I2Cx OAR2 Configuration ---------------------*/
  /* Configure I2Cx: Dual mode and Own Address2 */
  MODIFY_REG(hi2c->Instance->OAR2, (I2C_OAR2_ENDUAL | I2C_OAR2_ADD2), (hi2c->Init.DualAddressMode | hi2c->Init.OwnAddress2));
 8001dfc:	6821      	ldr	r1, [r4, #0]
 8001dfe:	68cb      	ldr	r3, [r1, #12]
 8001e00:	f023 03ff 	bic.w	r3, r3, #255	@ 0xff
 8001e04:	6962      	ldr	r2, [r4, #20]
 8001e06:	69a0      	ldr	r0, [r4, #24]
 8001e08:	4302      	orrs	r2, r0
 8001e0a:	4313      	orrs	r3, r2
 8001e0c:	60cb      	str	r3, [r1, #12]

  /* Enable the selected I2C peripheral */
  __HAL_I2C_ENABLE(hi2c);
 8001e0e:	6822      	ldr	r2, [r4, #0]
 8001e10:	6813      	ldr	r3, [r2, #0]
 8001e12:	f043 0301 	orr.w	r3, r3, #1
 8001e16:	6013      	str	r3, [r2, #0]

  hi2c->ErrorCode = HAL_I2C_ERROR_NONE;
 8001e18:	2000      	movs	r0, #0
 8001e1a:	6420      	str	r0, [r4, #64]	@ 0x40
  hi2c->State = HAL_I2C_STATE_READY;
 8001e1c:	2320      	movs	r3, #32
 8001e1e:	f884 303d 	strb.w	r3, [r4, #61]	@ 0x3d
  hi2c->PreviousState = I2C_STATE_NONE;
 8001e22:	6320      	str	r0, [r4, #48]	@ 0x30
  hi2c->Mode = HAL_I2C_MODE_NONE;
 8001e24:	f884 003e 	strb.w	r0, [r4, #62]	@ 0x3e

  return HAL_OK;
}
 8001e28:	bd38      	pop	{r3, r4, r5, pc}
  MODIFY_REG(hi2c->Instance->CCR, (I2C_CCR_FS | I2C_CCR_DUTY | I2C_CCR_CCR), I2C_SPEED(pclk1, hi2c->Init.ClockSpeed, hi2c->Init.DutyCycle));
 8001e2a:	2301      	movs	r3, #1
 8001e2c:	e7d0      	b.n	8001dd0 <HAL_I2C_Init+0x15c>
    return HAL_ERROR;
 8001e2e:	2001      	movs	r0, #1
}
 8001e30:	4770      	bx	lr
    return HAL_ERROR;
 8001e32:	2001      	movs	r0, #1
 8001e34:	e7f8      	b.n	8001e28 <HAL_I2C_Init+0x1b4>
 8001e36:	bf00      	nop
 8001e38:	000186a0 	.word	0x000186a0
 8001e3c:	001e847f 	.word	0x001e847f
 8001e40:	431bde83 	.word	0x431bde83
 8001e44:	003d08ff 	.word	0x003d08ff
 8001e48:	10624dd3 	.word	0x10624dd3

08001e4c <HAL_I2S_Init>:
#if defined (SPI_I2S_FULLDUPLEX_SUPPORT)
  uint16_t tmpreg;
#endif

  /* Check the I2S handle allocation */
  if (hi2s == NULL)
 8001e4c:	2800      	cmp	r0, #0
 8001e4e:	f000 80c4 	beq.w	8001fda <HAL_I2S_Init+0x18e>
{
 8001e52:	b538      	push	{r3, r4, r5, lr}
 8001e54:	4604      	mov	r4, r0
  assert_param(IS_I2S_MCLK_OUTPUT(hi2s->Init.MCLKOutput));
  assert_param(IS_I2S_AUDIO_FREQ(hi2s->Init.AudioFreq));
  assert_param(IS_I2S_CPOL(hi2s->Init.CPOL));
  assert_param(IS_I2S_CLOCKSOURCE(hi2s->Init.ClockSource));

  if (hi2s->State == HAL_I2S_STATE_RESET)
 8001e56:	f890 3041 	ldrb.w	r3, [r0, #65]	@ 0x41
 8001e5a:	2b00      	cmp	r3, #0
 8001e5c:	d053      	beq.n	8001f06 <HAL_I2S_Init+0xba>
    /* Init the low level hardware : GPIO, CLOCK, CORTEX...etc */
    HAL_I2S_MspInit(hi2s);
#endif /* USE_HAL_I2S_REGISTER_CALLBACKS */
  }

  hi2s->State = HAL_I2S_STATE_BUSY;
 8001e5e:	2202      	movs	r2, #2
 8001e60:	f884 2041 	strb.w	r2, [r4, #65]	@ 0x41

  /*----------------------- SPIx I2SCFGR & I2SPR Configuration ----------------*/
  /* Clear I2SMOD, I2SE, I2SCFG, PCMSYNC, I2SSTD, CKPOL, DATLEN and CHLEN bits */
  CLEAR_BIT(hi2s->Instance->I2SCFGR, (SPI_I2SCFGR_CHLEN | SPI_I2SCFGR_DATLEN | SPI_I2SCFGR_CKPOL | \
 8001e64:	6821      	ldr	r1, [r4, #0]
 8001e66:	69cb      	ldr	r3, [r1, #28]
 8001e68:	f423 637b 	bic.w	r3, r3, #4016	@ 0xfb0
 8001e6c:	f023 030f 	bic.w	r3, r3, #15
 8001e70:	61cb      	str	r3, [r1, #28]
                                      SPI_I2SCFGR_I2SSTD | SPI_I2SCFGR_PCMSYNC | SPI_I2SCFGR_I2SCFG | \
                                      SPI_I2SCFGR_I2SE | SPI_I2SCFGR_I2SMOD));
  hi2s->Instance->I2SPR = 0x0002U;
 8001e72:	6823      	ldr	r3, [r4, #0]
 8001e74:	621a      	str	r2, [r3, #32]

  /*----------------------- I2SPR: I2SDIV and ODD Calculation -----------------*/
  /* If the requested audio frequency is not the default, compute the prescaler */
  if (hi2s->Init.AudioFreq != I2S_AUDIOFREQ_DEFAULT)
 8001e76:	6963      	ldr	r3, [r4, #20]
 8001e78:	4293      	cmp	r3, r2
 8001e7a:	d06c      	beq.n	8001f56 <HAL_I2S_Init+0x10a>
  {
    /* Check the frame length (For the Prescaler computing) ********************/
    if (hi2s->Init.DataFormat == I2S_DATAFORMAT_16B)
 8001e7c:	68e3      	ldr	r3, [r4, #12]
 8001e7e:	2b00      	cmp	r3, #0
 8001e80:	d148      	bne.n	8001f14 <HAL_I2S_Init+0xc8>
    {
      /* Packet length is 16 bits */
      packetlength = 16U;
 8001e82:	2310      	movs	r3, #16
 8001e84:	461d      	mov	r5, r3
      /* Packet length is 32 bits */
      packetlength = 32U;
    }

    /* I2S standard */
    if (hi2s->Init.Standard <= I2S_STANDARD_LSB)
 8001e86:	68a3      	ldr	r3, [r4, #8]
 8001e88:	2b20      	cmp	r3, #32
 8001e8a:	d801      	bhi.n	8001e90 <HAL_I2S_Init+0x44>
    {
      /* In I2S standard packet length is multiplied by 2 */
      packetlength = packetlength * 2U;
 8001e8c:	006b      	lsls	r3, r5, #1
 8001e8e:	461d      	mov	r5, r3
    else
    {
      i2sclk = HAL_RCCEx_GetPeriphCLKFreq(RCC_PERIPHCLK_I2S_APB2);
    }
#else
    i2sclk = HAL_RCCEx_GetPeriphCLKFreq(RCC_PERIPHCLK_I2S);
 8001e90:	2001      	movs	r0, #1
 8001e92:	f001 ff4b 	bl	8003d2c <HAL_RCCEx_GetPeriphCLKFreq>
#endif /* I2S_APB1_APB2_FEATURE */

    /* Compute the Real divider depending on the MCLK output state, with a floating point */
    if (hi2s->Init.MCLKOutput == I2S_MCLKOUTPUT_ENABLE)
 8001e96:	6923      	ldr	r3, [r4, #16]
 8001e98:	f5b3 7f00 	cmp.w	r3, #512	@ 0x200
 8001e9c:	d03d      	beq.n	8001f1a <HAL_I2S_Init+0xce>
      }
    }
    else
    {
      /* MCLK output is disabled */
      tmp = (uint32_t)(((((i2sclk / packetlength) * 10U) / hi2s->Init.AudioFreq)) + 5U);
 8001e9e:	fbb0 f0f5 	udiv	r0, r0, r5
 8001ea2:	eb00 0080 	add.w	r0, r0, r0, lsl #2
 8001ea6:	0043      	lsls	r3, r0, #1
 8001ea8:	6962      	ldr	r2, [r4, #20]
 8001eaa:	fbb3 f3f2 	udiv	r3, r3, r2
 8001eae:	3305      	adds	r3, #5
    }

    /* Remove the flatting point */
    tmp = tmp / 10U;
 8001eb0:	4a4b      	ldr	r2, [pc, #300]	@ (8001fe0 <HAL_I2S_Init+0x194>)
 8001eb2:	fba2 2303 	umull	r2, r3, r2, r3

    /* Check the parity of the divider */
    i2sodd = (uint32_t)(tmp & (uint32_t)1U);
 8001eb6:	f3c3 02c0 	ubfx	r2, r3, #3, #1

    /* Compute the i2sdiv prescaler */
    i2sdiv = (uint32_t)((tmp - i2sodd) / 2U);
 8001eba:	ebc2 03d3 	rsb	r3, r2, r3, lsr #3
 8001ebe:	085b      	lsrs	r3, r3, #1

    /* Get the Mask for the Odd bit (SPI_I2SPR[8]) register */
    i2sodd = (uint32_t)(i2sodd << 8U);
 8001ec0:	0211      	lsls	r1, r2, #8
    i2sdiv = 2U;
    i2sodd = 0U;
  }

  /* Test if the divider is 1 or 0 or greater than 0xFF */
  if ((i2sdiv < 2U) || (i2sdiv > 0xFFU))
 8001ec2:	1e9a      	subs	r2, r3, #2
 8001ec4:	2afd      	cmp	r2, #253	@ 0xfd
 8001ec6:	d840      	bhi.n	8001f4a <HAL_I2S_Init+0xfe>
  }

  /*----------------------- SPIx I2SCFGR & I2SPR Configuration ----------------*/

  /* Write to SPIx I2SPR register the computed value */
  hi2s->Instance->I2SPR = (uint32_t)((uint32_t)i2sdiv | (uint32_t)(i2sodd | (uint32_t)hi2s->Init.MCLKOutput));
 8001ec8:	6922      	ldr	r2, [r4, #16]
 8001eca:	430a      	orrs	r2, r1
 8001ecc:	6821      	ldr	r1, [r4, #0]
 8001ece:	431a      	orrs	r2, r3
 8001ed0:	620a      	str	r2, [r1, #32]

  /* Clear I2SMOD, I2SE, I2SCFG, PCMSYNC, I2SSTD, CKPOL, DATLEN and CHLEN bits */
  /* And configure the I2S with the I2S_InitStruct values                      */
  MODIFY_REG(hi2s->Instance->I2SCFGR, (SPI_I2SCFGR_CHLEN | SPI_I2SCFGR_DATLEN | \
 8001ed2:	6821      	ldr	r1, [r4, #0]
 8001ed4:	69cb      	ldr	r3, [r1, #28]
 8001ed6:	f423 637b 	bic.w	r3, r3, #4016	@ 0xfb0
 8001eda:	f023 030f 	bic.w	r3, r3, #15
 8001ede:	6862      	ldr	r2, [r4, #4]
 8001ee0:	68a0      	ldr	r0, [r4, #8]
 8001ee2:	4302      	orrs	r2, r0
 8001ee4:	68e0      	ldr	r0, [r4, #12]
 8001ee6:	4302      	orrs	r2, r0
 8001ee8:	69a0      	ldr	r0, [r4, #24]
 8001eea:	4302      	orrs	r2, r0
 8001eec:	4313      	orrs	r3, r2
 8001eee:	f443 6300 	orr.w	r3, r3, #2048	@ 0x800
 8001ef2:	61cb      	str	r3, [r1, #28]
#if defined (SPI_I2S_FULLDUPLEX_SUPPORT)

  /* Configure the I2S extended if the full duplex mode is enabled */
  assert_param(IS_I2S_FULLDUPLEX_MODE(hi2s->Init.FullDuplexMode));

  if (hi2s->Init.FullDuplexMode == I2S_FULLDUPLEXMODE_ENABLE)
 8001ef4:	6a23      	ldr	r3, [r4, #32]
 8001ef6:	2b01      	cmp	r3, #1
 8001ef8:	d02f      	beq.n	8001f5a <HAL_I2S_Init+0x10e>
    /* Write to SPIx I2SCFGR */
    WRITE_REG(I2SxEXT(hi2s->Instance)->I2SCFGR, tmpreg);
  }
#endif /* SPI_I2S_FULLDUPLEX_SUPPORT */

  hi2s->ErrorCode = HAL_I2S_ERROR_NONE;
 8001efa:	2000      	movs	r0, #0
 8001efc:	6460      	str	r0, [r4, #68]	@ 0x44
  hi2s->State     = HAL_I2S_STATE_READY;
 8001efe:	2301      	movs	r3, #1
 8001f00:	f884 3041 	strb.w	r3, [r4, #65]	@ 0x41

  return HAL_OK;
}
 8001f04:	bd38      	pop	{r3, r4, r5, pc}
    hi2s->Lock = HAL_UNLOCKED;
 8001f06:	f880 3040 	strb.w	r3, [r0, #64]	@ 0x40
    hi2s->IrqHandlerISR = I2S_IRQHandler;
 8001f0a:	4b36      	ldr	r3, [pc, #216]	@ (8001fe4 <HAL_I2S_Init+0x198>)
 8001f0c:	6343      	str	r3, [r0, #52]	@ 0x34
    HAL_I2S_MspInit(hi2s);
 8001f0e:	f000 fd19 	bl	8002944 <HAL_I2S_MspInit>
 8001f12:	e7a4      	b.n	8001e5e <HAL_I2S_Init+0x12>
      packetlength = 32U;
 8001f14:	2320      	movs	r3, #32
 8001f16:	461d      	mov	r5, r3
 8001f18:	e7b5      	b.n	8001e86 <HAL_I2S_Init+0x3a>
      if (hi2s->Init.DataFormat != I2S_DATAFORMAT_16B)
 8001f1a:	68e3      	ldr	r3, [r4, #12]
 8001f1c:	b153      	cbz	r3, 8001f34 <HAL_I2S_Init+0xe8>
        tmp = (uint32_t)(((((i2sclk / (packetlength * 4U)) * 10U) / hi2s->Init.AudioFreq)) + 5U);
 8001f1e:	00ab      	lsls	r3, r5, #2
 8001f20:	fbb0 f0f3 	udiv	r0, r0, r3
 8001f24:	eb00 0080 	add.w	r0, r0, r0, lsl #2
 8001f28:	0043      	lsls	r3, r0, #1
 8001f2a:	6962      	ldr	r2, [r4, #20]
 8001f2c:	fbb3 f3f2 	udiv	r3, r3, r2
 8001f30:	3305      	adds	r3, #5
 8001f32:	e7bd      	b.n	8001eb0 <HAL_I2S_Init+0x64>
        tmp = (uint32_t)(((((i2sclk / (packetlength * 8U)) * 10U) / hi2s->Init.AudioFreq)) + 5U);
 8001f34:	00eb      	lsls	r3, r5, #3
 8001f36:	fbb0 f0f3 	udiv	r0, r0, r3
 8001f3a:	eb00 0080 	add.w	r0, r0, r0, lsl #2
 8001f3e:	0043      	lsls	r3, r0, #1
 8001f40:	6962      	ldr	r2, [r4, #20]
 8001f42:	fbb3 f3f2 	udiv	r3, r3, r2
 8001f46:	3305      	adds	r3, #5
 8001f48:	e7b2      	b.n	8001eb0 <HAL_I2S_Init+0x64>
    SET_BIT(hi2s->ErrorCode, HAL_I2S_ERROR_PRESCALER);
 8001f4a:	6c63      	ldr	r3, [r4, #68]	@ 0x44
 8001f4c:	f043 0310 	orr.w	r3, r3, #16
 8001f50:	6463      	str	r3, [r4, #68]	@ 0x44
    return  HAL_ERROR;
 8001f52:	2001      	movs	r0, #1
 8001f54:	e7d6      	b.n	8001f04 <HAL_I2S_Init+0xb8>
    i2sodd = 0U;
 8001f56:	2100      	movs	r1, #0
 8001f58:	e7b6      	b.n	8001ec8 <HAL_I2S_Init+0x7c>
    hi2s->IrqHandlerISR = HAL_I2SEx_FullDuplex_IRQHandler;
 8001f5a:	4b23      	ldr	r3, [pc, #140]	@ (8001fe8 <HAL_I2S_Init+0x19c>)
 8001f5c:	6363      	str	r3, [r4, #52]	@ 0x34
    CLEAR_BIT(I2SxEXT(hi2s->Instance)->I2SCFGR, (SPI_I2SCFGR_CHLEN | SPI_I2SCFGR_DATLEN | SPI_I2SCFGR_CKPOL | \
 8001f5e:	6822      	ldr	r2, [r4, #0]
 8001f60:	4b22      	ldr	r3, [pc, #136]	@ (8001fec <HAL_I2S_Init+0x1a0>)
 8001f62:	429a      	cmp	r2, r3
 8001f64:	d020      	beq.n	8001fa8 <HAL_I2S_Init+0x15c>
 8001f66:	f04f 2240 	mov.w	r2, #1073758208	@ 0x40004000
 8001f6a:	69d3      	ldr	r3, [r2, #28]
 8001f6c:	f423 637b 	bic.w	r3, r3, #4016	@ 0xfb0
 8001f70:	f023 030f 	bic.w	r3, r3, #15
 8001f74:	61d3      	str	r3, [r2, #28]
    I2SxEXT(hi2s->Instance)->I2SPR = 2U;
 8001f76:	6822      	ldr	r2, [r4, #0]
 8001f78:	4b1c      	ldr	r3, [pc, #112]	@ (8001fec <HAL_I2S_Init+0x1a0>)
 8001f7a:	429a      	cmp	r2, r3
 8001f7c:	d016      	beq.n	8001fac <HAL_I2S_Init+0x160>
 8001f7e:	f04f 2240 	mov.w	r2, #1073758208	@ 0x40004000
 8001f82:	2302      	movs	r3, #2
 8001f84:	6213      	str	r3, [r2, #32]
    tmpreg = I2SxEXT(hi2s->Instance)->I2SCFGR;
 8001f86:	6822      	ldr	r2, [r4, #0]
 8001f88:	4b18      	ldr	r3, [pc, #96]	@ (8001fec <HAL_I2S_Init+0x1a0>)
 8001f8a:	429a      	cmp	r2, r3
 8001f8c:	d010      	beq.n	8001fb0 <HAL_I2S_Init+0x164>
 8001f8e:	f04f 2c40 	mov.w	ip, #1073758208	@ 0x40004000
 8001f92:	f8dc 301c 	ldr.w	r3, [ip, #28]
 8001f96:	b29b      	uxth	r3, r3
    if ((hi2s->Init.Mode == I2S_MODE_MASTER_TX) || (hi2s->Init.Mode == I2S_MODE_SLAVE_TX))
 8001f98:	6862      	ldr	r2, [r4, #4]
 8001f9a:	f5b2 7f00 	cmp.w	r2, #512	@ 0x200
 8001f9e:	d00a      	beq.n	8001fb6 <HAL_I2S_Init+0x16a>
 8001fa0:	b9ca      	cbnz	r2, 8001fd6 <HAL_I2S_Init+0x18a>
      tmp = I2S_MODE_SLAVE_RX;
 8001fa2:	f44f 7080 	mov.w	r0, #256	@ 0x100
 8001fa6:	e008      	b.n	8001fba <HAL_I2S_Init+0x16e>
    CLEAR_BIT(I2SxEXT(hi2s->Instance)->I2SCFGR, (SPI_I2SCFGR_CHLEN | SPI_I2SCFGR_DATLEN | SPI_I2SCFGR_CKPOL | \
 8001fa8:	4a11      	ldr	r2, [pc, #68]	@ (8001ff0 <HAL_I2S_Init+0x1a4>)
 8001faa:	e7de      	b.n	8001f6a <HAL_I2S_Init+0x11e>
    I2SxEXT(hi2s->Instance)->I2SPR = 2U;
 8001fac:	4a10      	ldr	r2, [pc, #64]	@ (8001ff0 <HAL_I2S_Init+0x1a4>)
 8001fae:	e7e8      	b.n	8001f82 <HAL_I2S_Init+0x136>
    tmpreg = I2SxEXT(hi2s->Instance)->I2SCFGR;
 8001fb0:	f8df c03c 	ldr.w	ip, [pc, #60]	@ 8001ff0 <HAL_I2S_Init+0x1a4>
 8001fb4:	e7ed      	b.n	8001f92 <HAL_I2S_Init+0x146>
      tmp = I2S_MODE_SLAVE_RX;
 8001fb6:	f44f 7080 	mov.w	r0, #256	@ 0x100
                         (uint16_t)hi2s->Init.Standard   | \
 8001fba:	f8b4 e008 	ldrh.w	lr, [r4, #8]
                         (uint16_t)hi2s->Init.DataFormat | \
 8001fbe:	89a1      	ldrh	r1, [r4, #12]
                         (uint16_t)hi2s->Init.CPOL);
 8001fc0:	8b22      	ldrh	r2, [r4, #24]
    tmpreg |= (uint16_t)((uint16_t)SPI_I2SCFGR_I2SMOD    | \
 8001fc2:	ea40 000e 	orr.w	r0, r0, lr
 8001fc6:	4301      	orrs	r1, r0
 8001fc8:	430a      	orrs	r2, r1
 8001fca:	4313      	orrs	r3, r2
 8001fcc:	f443 6300 	orr.w	r3, r3, #2048	@ 0x800
    WRITE_REG(I2SxEXT(hi2s->Instance)->I2SCFGR, tmpreg);
 8001fd0:	f8cc 301c 	str.w	r3, [ip, #28]
 8001fd4:	e791      	b.n	8001efa <HAL_I2S_Init+0xae>
      tmp = I2S_MODE_SLAVE_TX;
 8001fd6:	2000      	movs	r0, #0
 8001fd8:	e7ef      	b.n	8001fba <HAL_I2S_Init+0x16e>
    return HAL_ERROR;
 8001fda:	2001      	movs	r0, #1
}
 8001fdc:	4770      	bx	lr
 8001fde:	bf00      	nop
 8001fe0:	cccccccd 	.word	0xcccccccd
 8001fe4:	0800206b 	.word	0x0800206b
 8001fe8:	080026b9 	.word	0x080026b9
 8001fec:	40003800 	.word	0x40003800
 8001ff0:	40003400 	.word	0x40003400

08001ff4 <HAL_I2S_TxCpltCallback>:
  UNUSED(hi2s);

  /* NOTE : This function Should not be modified, when the callback is needed,
            the HAL_I2S_TxCpltCallback could be implemented in the user file
   */
}
 8001ff4:	4770      	bx	lr

08001ff6 <I2S_Transmit_IT>:
  * @param  hi2s pointer to a I2S_HandleTypeDef structure that contains
  *         the configuration information for I2S module
  * @retval None
  */
static void I2S_Transmit_IT(I2S_HandleTypeDef *hi2s)
{
 8001ff6:	b508      	push	{r3, lr}
  /* Transmit data */
  hi2s->Instance->DR = (*hi2s->pTxBuffPtr);
 8001ff8:	6a42      	ldr	r2, [r0, #36]	@ 0x24
 8001ffa:	6803      	ldr	r3, [r0, #0]
 8001ffc:	8812      	ldrh	r2, [r2, #0]
 8001ffe:	60da      	str	r2, [r3, #12]
  hi2s->pTxBuffPtr++;
 8002000:	6a43      	ldr	r3, [r0, #36]	@ 0x24
 8002002:	3302      	adds	r3, #2
 8002004:	6243      	str	r3, [r0, #36]	@ 0x24
  hi2s->TxXferCount--;
 8002006:	8d43      	ldrh	r3, [r0, #42]	@ 0x2a
 8002008:	b29b      	uxth	r3, r3
 800200a:	3b01      	subs	r3, #1
 800200c:	b29b      	uxth	r3, r3
 800200e:	8543      	strh	r3, [r0, #42]	@ 0x2a

  if (hi2s->TxXferCount == 0U)
 8002010:	8d43      	ldrh	r3, [r0, #42]	@ 0x2a
 8002012:	b29b      	uxth	r3, r3
 8002014:	b103      	cbz	r3, 8002018 <I2S_Transmit_IT+0x22>
    hi2s->TxCpltCallback(hi2s);
#else
    HAL_I2S_TxCpltCallback(hi2s);
#endif /* USE_HAL_I2S_REGISTER_CALLBACKS */
  }
}
 8002016:	bd08      	pop	{r3, pc}
    __HAL_I2S_DISABLE_IT(hi2s, (I2S_IT_TXE | I2S_IT_ERR));
 8002018:	6802      	ldr	r2, [r0, #0]
 800201a:	6853      	ldr	r3, [r2, #4]
 800201c:	f023 03a0 	bic.w	r3, r3, #160	@ 0xa0
 8002020:	6053      	str	r3, [r2, #4]
    hi2s->State = HAL_I2S_STATE_READY;
 8002022:	2301      	movs	r3, #1
 8002024:	f880 3041 	strb.w	r3, [r0, #65]	@ 0x41
    HAL_I2S_TxCpltCallback(hi2s);
 8002028:	f7ff ffe4 	bl	8001ff4 <HAL_I2S_TxCpltCallback>
}
 800202c:	e7f3      	b.n	8002016 <I2S_Transmit_IT+0x20>

0800202e <HAL_I2S_RxCpltCallback>:
}
 800202e:	4770      	bx	lr

08002030 <I2S_Receive_IT>:
  * @param  hi2s pointer to a I2S_HandleTypeDef structure that contains
  *         the configuration information for I2S module
  * @retval None
  */
static void I2S_Receive_IT(I2S_HandleTypeDef *hi2s)
{
 8002030:	b508      	push	{r3, lr}
  /* Receive data */
  (*hi2s->pRxBuffPtr) = (uint16_t)hi2s->Instance->DR;
 8002032:	6803      	ldr	r3, [r0, #0]
 8002034:	68da      	ldr	r2, [r3, #12]
 8002036:	6ac3      	ldr	r3, [r0, #44]	@ 0x2c
 8002038:	801a      	strh	r2, [r3, #0]
  hi2s->pRxBuffPtr++;
 800203a:	6ac3      	ldr	r3, [r0, #44]	@ 0x2c
 800203c:	3302      	adds	r3, #2
 800203e:	62c3      	str	r3, [r0, #44]	@ 0x2c
  hi2s->RxXferCount--;
 8002040:	8e43      	ldrh	r3, [r0, #50]	@ 0x32
 8002042:	b29b      	uxth	r3, r3
 8002044:	3b01      	subs	r3, #1
 8002046:	b29b      	uxth	r3, r3
 8002048:	8643      	strh	r3, [r0, #50]	@ 0x32

  if (hi2s->RxXferCount == 0U)
 800204a:	8e43      	ldrh	r3, [r0, #50]	@ 0x32
 800204c:	b29b      	uxth	r3, r3
 800204e:	b103      	cbz	r3, 8002052 <I2S_Receive_IT+0x22>
    hi2s->RxCpltCallback(hi2s);
#else
    HAL_I2S_RxCpltCallback(hi2s);
#endif /* USE_HAL_I2S_REGISTER_CALLBACKS */
  }
}
 8002050:	bd08      	pop	{r3, pc}
    __HAL_I2S_DISABLE_IT(hi2s, (I2S_IT_RXNE | I2S_IT_ERR));
 8002052:	6802      	ldr	r2, [r0, #0]
 8002054:	6853      	ldr	r3, [r2, #4]
 8002056:	f023 0360 	bic.w	r3, r3, #96	@ 0x60
 800205a:	6053      	str	r3, [r2, #4]
    hi2s->State = HAL_I2S_STATE_READY;
 800205c:	2301      	movs	r3, #1
 800205e:	f880 3041 	strb.w	r3, [r0, #65]	@ 0x41
    HAL_I2S_RxCpltCallback(hi2s);
 8002062:	f7ff ffe4 	bl	800202e <HAL_I2S_RxCpltCallback>
}
 8002066:	e7f3      	b.n	8002050 <I2S_Receive_IT+0x20>

08002068 <HAL_I2S_ErrorCallback>:
}
 8002068:	4770      	bx	lr

0800206a <I2S_IRQHandler>:
  * @param  hi2s: pointer to a I2S_HandleTypeDef structure that contains
  *         the configuration information for I2S module
  * @retval None
  */
static void I2S_IRQHandler(I2S_HandleTypeDef *hi2s)
{
 800206a:	b510      	push	{r4, lr}
 800206c:	b084      	sub	sp, #16
 800206e:	4604      	mov	r4, r0
  __IO uint32_t i2ssr = hi2s->Instance->SR;
 8002070:	6803      	ldr	r3, [r0, #0]
 8002072:	689a      	ldr	r2, [r3, #8]
 8002074:	9203      	str	r2, [sp, #12]

  if (hi2s->State == HAL_I2S_STATE_BUSY_RX)
 8002076:	f890 2041 	ldrb.w	r2, [r0, #65]	@ 0x41
 800207a:	2a04      	cmp	r2, #4
 800207c:	d005      	beq.n	800208a <I2S_IRQHandler+0x20>
      HAL_I2S_ErrorCallback(hi2s);
#endif /* USE_HAL_I2S_REGISTER_CALLBACKS */
    }
  }

  if (hi2s->State == HAL_I2S_STATE_BUSY_TX)
 800207e:	f894 3041 	ldrb.w	r3, [r4, #65]	@ 0x41
 8002082:	2b03      	cmp	r3, #3
 8002084:	d02c      	beq.n	80020e0 <I2S_IRQHandler+0x76>
#else
      HAL_I2S_ErrorCallback(hi2s);
#endif /* USE_HAL_I2S_REGISTER_CALLBACKS */
    }
  }
}
 8002086:	b004      	add	sp, #16
 8002088:	bd10      	pop	{r4, pc}
    if (((i2ssr & I2S_FLAG_RXNE) == I2S_FLAG_RXNE) && (__HAL_I2S_GET_IT_SOURCE(hi2s, I2S_IT_RXNE) != RESET))
 800208a:	9a03      	ldr	r2, [sp, #12]
 800208c:	f012 0f01 	tst.w	r2, #1
 8002090:	d003      	beq.n	800209a <I2S_IRQHandler+0x30>
 8002092:	685b      	ldr	r3, [r3, #4]
 8002094:	f013 0f40 	tst.w	r3, #64	@ 0x40
 8002098:	d11f      	bne.n	80020da <I2S_IRQHandler+0x70>
    if (((i2ssr & I2S_FLAG_OVR) == I2S_FLAG_OVR) && (__HAL_I2S_GET_IT_SOURCE(hi2s, I2S_IT_ERR) != RESET))
 800209a:	9b03      	ldr	r3, [sp, #12]
 800209c:	f013 0f40 	tst.w	r3, #64	@ 0x40
 80020a0:	d0ed      	beq.n	800207e <I2S_IRQHandler+0x14>
 80020a2:	6823      	ldr	r3, [r4, #0]
 80020a4:	685a      	ldr	r2, [r3, #4]
 80020a6:	f012 0f20 	tst.w	r2, #32
 80020aa:	d0e8      	beq.n	800207e <I2S_IRQHandler+0x14>
      __HAL_I2S_DISABLE_IT(hi2s, (I2S_IT_RXNE | I2S_IT_ERR));
 80020ac:	685a      	ldr	r2, [r3, #4]
 80020ae:	f022 0260 	bic.w	r2, r2, #96	@ 0x60
 80020b2:	605a      	str	r2, [r3, #4]
      __HAL_I2S_CLEAR_OVRFLAG(hi2s);
 80020b4:	2300      	movs	r3, #0
 80020b6:	9301      	str	r3, [sp, #4]
 80020b8:	6823      	ldr	r3, [r4, #0]
 80020ba:	68da      	ldr	r2, [r3, #12]
 80020bc:	9201      	str	r2, [sp, #4]
 80020be:	689b      	ldr	r3, [r3, #8]
 80020c0:	9301      	str	r3, [sp, #4]
 80020c2:	9b01      	ldr	r3, [sp, #4]
      hi2s->State = HAL_I2S_STATE_READY;
 80020c4:	2301      	movs	r3, #1
 80020c6:	f884 3041 	strb.w	r3, [r4, #65]	@ 0x41
      SET_BIT(hi2s->ErrorCode, HAL_I2S_ERROR_OVR);
 80020ca:	6c63      	ldr	r3, [r4, #68]	@ 0x44
 80020cc:	f043 0302 	orr.w	r3, r3, #2
 80020d0:	6463      	str	r3, [r4, #68]	@ 0x44
      HAL_I2S_ErrorCallback(hi2s);
 80020d2:	4620      	mov	r0, r4
 80020d4:	f7ff ffc8 	bl	8002068 <HAL_I2S_ErrorCallback>
 80020d8:	e7d1      	b.n	800207e <I2S_IRQHandler+0x14>
      I2S_Receive_IT(hi2s);
 80020da:	f7ff ffa9 	bl	8002030 <I2S_Receive_IT>
 80020de:	e7dc      	b.n	800209a <I2S_IRQHandler+0x30>
    if (((i2ssr & I2S_FLAG_TXE) == I2S_FLAG_TXE) && (__HAL_I2S_GET_IT_SOURCE(hi2s, I2S_IT_TXE) != RESET))
 80020e0:	9b03      	ldr	r3, [sp, #12]
 80020e2:	f013 0f02 	tst.w	r3, #2
 80020e6:	d004      	beq.n	80020f2 <I2S_IRQHandler+0x88>
 80020e8:	6823      	ldr	r3, [r4, #0]
 80020ea:	685b      	ldr	r3, [r3, #4]
 80020ec:	f013 0f80 	tst.w	r3, #128	@ 0x80
 80020f0:	d11d      	bne.n	800212e <I2S_IRQHandler+0xc4>
    if (((i2ssr & I2S_FLAG_UDR) == I2S_FLAG_UDR) && (__HAL_I2S_GET_IT_SOURCE(hi2s, I2S_IT_ERR) != RESET))
 80020f2:	9b03      	ldr	r3, [sp, #12]
 80020f4:	f013 0f08 	tst.w	r3, #8
 80020f8:	d0c5      	beq.n	8002086 <I2S_IRQHandler+0x1c>
 80020fa:	6823      	ldr	r3, [r4, #0]
 80020fc:	685a      	ldr	r2, [r3, #4]
 80020fe:	f012 0f20 	tst.w	r2, #32
 8002102:	d0c0      	beq.n	8002086 <I2S_IRQHandler+0x1c>
      __HAL_I2S_DISABLE_IT(hi2s, (I2S_IT_TXE | I2S_IT_ERR));
 8002104:	685a      	ldr	r2, [r3, #4]
 8002106:	f022 02a0 	bic.w	r2, r2, #160	@ 0xa0
 800210a:	605a      	str	r2, [r3, #4]
      __HAL_I2S_CLEAR_UDRFLAG(hi2s);
 800210c:	2300      	movs	r3, #0
 800210e:	9302      	str	r3, [sp, #8]
 8002110:	6823      	ldr	r3, [r4, #0]
 8002112:	689b      	ldr	r3, [r3, #8]
 8002114:	9302      	str	r3, [sp, #8]
 8002116:	9b02      	ldr	r3, [sp, #8]
      hi2s->State = HAL_I2S_STATE_READY;
 8002118:	2301      	movs	r3, #1
 800211a:	f884 3041 	strb.w	r3, [r4, #65]	@ 0x41
      SET_BIT(hi2s->ErrorCode, HAL_I2S_ERROR_UDR);
 800211e:	6c63      	ldr	r3, [r4, #68]	@ 0x44
 8002120:	f043 0304 	orr.w	r3, r3, #4
 8002124:	6463      	str	r3, [r4, #68]	@ 0x44
      HAL_I2S_ErrorCallback(hi2s);
 8002126:	4620      	mov	r0, r4
 8002128:	f7ff ff9e 	bl	8002068 <HAL_I2S_ErrorCallback>
}
 800212c:	e7ab      	b.n	8002086 <I2S_IRQHandler+0x1c>
      I2S_Transmit_IT(hi2s);
 800212e:	4620      	mov	r0, r4
 8002130:	f7ff ff61 	bl	8001ff6 <I2S_Transmit_IT>
 8002134:	e7dd      	b.n	80020f2 <I2S_IRQHandler+0x88>
	...

08002138 <I2SEx_FullDuplexWaitFlagStateUntilTimeout>:
static HAL_StatusTypeDef I2SEx_FullDuplexWaitFlagStateUntilTimeout(I2S_HandleTypeDef *hi2s,
                                                                   uint32_t Flag,
                                                                   uint32_t State,
                                                                   uint32_t Timeout,
                                                                   I2S_UseTypeDef i2sUsed)
{
 8002138:	e92d 41f0 	stmdb	sp!, {r4, r5, r6, r7, r8, lr}
 800213c:	b082      	sub	sp, #8
 800213e:	4605      	mov	r5, r0
 8002140:	460e      	mov	r6, r1
 8002142:	4617      	mov	r7, r2
 8002144:	461c      	mov	r4, r3
 8002146:	f89d 3020 	ldrb.w	r3, [sp, #32]
 800214a:	9301      	str	r3, [sp, #4]
  uint32_t tickstart = HAL_GetTick();
 800214c:	f7ff fbf8 	bl	8001940 <HAL_GetTick>
 8002150:	4680      	mov	r8, r0

  if (i2sUsed == I2S_USE_I2S)
 8002152:	9b01      	ldr	r3, [sp, #4]
 8002154:	b1ab      	cbz	r3, 8002182 <I2SEx_FullDuplexWaitFlagStateUntilTimeout+0x4a>
 8002156:	e037      	b.n	80021c8 <I2SEx_FullDuplexWaitFlagStateUntilTimeout+0x90>
    /* Wait until flag is reset */
    while (((__HAL_I2S_GET_FLAG(hi2s, Flag)) ? SET : RESET) != State)
    {
      if (Timeout != HAL_MAX_DELAY)
      {
        if ((Timeout == 0U) || ((HAL_GetTick() - tickstart) > Timeout))
 8002158:	b12c      	cbz	r4, 8002166 <I2SEx_FullDuplexWaitFlagStateUntilTimeout+0x2e>
 800215a:	f7ff fbf1 	bl	8001940 <HAL_GetTick>
 800215e:	4643      	mov	r3, r8
 8002160:	1ac0      	subs	r0, r0, r3
 8002162:	42a0      	cmp	r0, r4
 8002164:	d90d      	bls.n	8002182 <I2SEx_FullDuplexWaitFlagStateUntilTimeout+0x4a>
        {
          /* Set the I2S State ready */
          hi2s->State = HAL_I2S_STATE_READY;
 8002166:	2301      	movs	r3, #1
 8002168:	f885 3041 	strb.w	r3, [r5, #65]	@ 0x41

          /* Process Unlocked */
          __HAL_UNLOCK(hi2s);
 800216c:	2300      	movs	r3, #0
 800216e:	f885 3040 	strb.w	r3, [r5, #64]	@ 0x40

          return HAL_TIMEOUT;
 8002172:	2003      	movs	r0, #3
 8002174:	e00d      	b.n	8002192 <I2SEx_FullDuplexWaitFlagStateUntilTimeout+0x5a>
    while (((__HAL_I2S_GET_FLAG(hi2s, Flag)) ? SET : RESET) != State)
 8002176:	2301      	movs	r3, #1
 8002178:	42bb      	cmp	r3, r7
 800217a:	d009      	beq.n	8002190 <I2SEx_FullDuplexWaitFlagStateUntilTimeout+0x58>
      if (Timeout != HAL_MAX_DELAY)
 800217c:	f1b4 3fff 	cmp.w	r4, #4294967295
 8002180:	d1ea      	bne.n	8002158 <I2SEx_FullDuplexWaitFlagStateUntilTimeout+0x20>
    while (((__HAL_I2S_GET_FLAG(hi2s, Flag)) ? SET : RESET) != State)
 8002182:	682b      	ldr	r3, [r5, #0]
 8002184:	689b      	ldr	r3, [r3, #8]
 8002186:	ea36 0303 	bics.w	r3, r6, r3
 800218a:	d0f4      	beq.n	8002176 <I2SEx_FullDuplexWaitFlagStateUntilTimeout+0x3e>
 800218c:	2300      	movs	r3, #0
 800218e:	e7f3      	b.n	8002178 <I2SEx_FullDuplexWaitFlagStateUntilTimeout+0x40>
          return HAL_TIMEOUT;
        }
      }
    }
  }
  return HAL_OK;
 8002190:	9801      	ldr	r0, [sp, #4]
}
 8002192:	b002      	add	sp, #8
 8002194:	e8bd 81f0 	ldmia.w	sp!, {r4, r5, r6, r7, r8, pc}
        if ((Timeout == 0U) || ((HAL_GetTick() - tickstart) > Timeout))
 8002198:	b12c      	cbz	r4, 80021a6 <I2SEx_FullDuplexWaitFlagStateUntilTimeout+0x6e>
 800219a:	f7ff fbd1 	bl	8001940 <HAL_GetTick>
 800219e:	4643      	mov	r3, r8
 80021a0:	1ac0      	subs	r0, r0, r3
 80021a2:	42a0      	cmp	r0, r4
 80021a4:	d910      	bls.n	80021c8 <I2SEx_FullDuplexWaitFlagStateUntilTimeout+0x90>
          hi2s->State = HAL_I2S_STATE_READY;
 80021a6:	2301      	movs	r3, #1
 80021a8:	f885 3041 	strb.w	r3, [r5, #65]	@ 0x41
          __HAL_UNLOCK(hi2s);
 80021ac:	2300      	movs	r3, #0
 80021ae:	f885 3040 	strb.w	r3, [r5, #64]	@ 0x40
          return HAL_TIMEOUT;
 80021b2:	2003      	movs	r0, #3
 80021b4:	e7ed      	b.n	8002192 <I2SEx_FullDuplexWaitFlagStateUntilTimeout+0x5a>
    while (((__HAL_I2SEXT_GET_FLAG(hi2s, Flag)) ? SET : RESET) != State)
 80021b6:	f5a3 6380 	sub.w	r3, r3, #1024	@ 0x400
 80021ba:	e00b      	b.n	80021d4 <I2SEx_FullDuplexWaitFlagStateUntilTimeout+0x9c>
 80021bc:	2301      	movs	r3, #1
 80021be:	42bb      	cmp	r3, r7
 80021c0:	d00e      	beq.n	80021e0 <I2SEx_FullDuplexWaitFlagStateUntilTimeout+0xa8>
      if (Timeout != HAL_MAX_DELAY)
 80021c2:	f1b4 3fff 	cmp.w	r4, #4294967295
 80021c6:	d1e7      	bne.n	8002198 <I2SEx_FullDuplexWaitFlagStateUntilTimeout+0x60>
    while (((__HAL_I2SEXT_GET_FLAG(hi2s, Flag)) ? SET : RESET) != State)
 80021c8:	682a      	ldr	r2, [r5, #0]
 80021ca:	4b06      	ldr	r3, [pc, #24]	@ (80021e4 <I2SEx_FullDuplexWaitFlagStateUntilTimeout+0xac>)
 80021cc:	429a      	cmp	r2, r3
 80021ce:	d0f2      	beq.n	80021b6 <I2SEx_FullDuplexWaitFlagStateUntilTimeout+0x7e>
 80021d0:	f04f 2340 	mov.w	r3, #1073758208	@ 0x40004000
 80021d4:	689b      	ldr	r3, [r3, #8]
 80021d6:	ea36 0303 	bics.w	r3, r6, r3
 80021da:	d0ef      	beq.n	80021bc <I2SEx_FullDuplexWaitFlagStateUntilTimeout+0x84>
 80021dc:	2300      	movs	r3, #0
 80021de:	e7ee      	b.n	80021be <I2SEx_FullDuplexWaitFlagStateUntilTimeout+0x86>
  return HAL_OK;
 80021e0:	2000      	movs	r0, #0
 80021e2:	e7d6      	b.n	8002192 <I2SEx_FullDuplexWaitFlagStateUntilTimeout+0x5a>
 80021e4:	40003800 	.word	0x40003800

080021e8 <HAL_I2SEx_TransmitReceive>:
{
 80021e8:	e92d 43f0 	stmdb	sp!, {r4, r5, r6, r7, r8, r9, lr}
 80021ec:	b089      	sub	sp, #36	@ 0x24
 80021ee:	4604      	mov	r4, r0
 80021f0:	4610      	mov	r0, r2
 80021f2:	4617      	mov	r7, r2
 80021f4:	9d10      	ldr	r5, [sp, #64]	@ 0x40
  if (hi2s->State != HAL_I2S_STATE_READY)
 80021f6:	f894 2041 	ldrb.w	r2, [r4, #65]	@ 0x41
 80021fa:	2a01      	cmp	r2, #1
 80021fc:	f040 81b2 	bne.w	8002564 <HAL_I2SEx_TransmitReceive+0x37c>
 8002200:	b2d6      	uxtb	r6, r2
  if ((pTxData == NULL) || (pRxData == NULL) || (Size == 0U))
 8002202:	2900      	cmp	r1, #0
 8002204:	f000 81af 	beq.w	8002566 <HAL_I2SEx_TransmitReceive+0x37e>
 8002208:	2800      	cmp	r0, #0
 800220a:	f000 81ac 	beq.w	8002566 <HAL_I2SEx_TransmitReceive+0x37e>
 800220e:	2b00      	cmp	r3, #0
 8002210:	f000 81a9 	beq.w	8002566 <HAL_I2SEx_TransmitReceive+0x37e>
  __HAL_LOCK(hi2s);
 8002214:	f894 2040 	ldrb.w	r2, [r4, #64]	@ 0x40
 8002218:	2a01      	cmp	r2, #1
 800221a:	f000 81a8 	beq.w	800256e <HAL_I2SEx_TransmitReceive+0x386>
 800221e:	2201      	movs	r2, #1
 8002220:	f884 2040 	strb.w	r2, [r4, #64]	@ 0x40
  tmp1 = hi2s->Instance->I2SCFGR & (SPI_I2SCFGR_DATLEN | SPI_I2SCFGR_CHLEN);
 8002224:	6820      	ldr	r0, [r4, #0]
 8002226:	69c2      	ldr	r2, [r0, #28]
 8002228:	f002 0207 	and.w	r2, r2, #7
  if ((tmp1 == I2S_DATAFORMAT_24B) || (tmp1 == I2S_DATAFORMAT_32B))
 800222c:	2a03      	cmp	r2, #3
 800222e:	d006      	beq.n	800223e <HAL_I2SEx_TransmitReceive+0x56>
 8002230:	2a05      	cmp	r2, #5
 8002232:	d004      	beq.n	800223e <HAL_I2SEx_TransmitReceive+0x56>
    hi2s->TxXferSize  = Size;
 8002234:	8523      	strh	r3, [r4, #40]	@ 0x28
    hi2s->TxXferCount = Size;
 8002236:	8563      	strh	r3, [r4, #42]	@ 0x2a
    hi2s->RxXferSize  = Size;
 8002238:	8623      	strh	r3, [r4, #48]	@ 0x30
    hi2s->RxXferCount = Size;
 800223a:	8663      	strh	r3, [r4, #50]	@ 0x32
 800223c:	e005      	b.n	800224a <HAL_I2SEx_TransmitReceive+0x62>
    hi2s->TxXferSize  = (Size << 1U);
 800223e:	005b      	lsls	r3, r3, #1
 8002240:	b29b      	uxth	r3, r3
 8002242:	8523      	strh	r3, [r4, #40]	@ 0x28
    hi2s->TxXferCount = (Size << 1U);
 8002244:	8563      	strh	r3, [r4, #42]	@ 0x2a
    hi2s->RxXferSize  = (Size << 1U);
 8002246:	8623      	strh	r3, [r4, #48]	@ 0x30
    hi2s->RxXferCount = (Size << 1U);
 8002248:	8663      	strh	r3, [r4, #50]	@ 0x32
  hi2s->ErrorCode = HAL_I2S_ERROR_NONE;
 800224a:	2300      	movs	r3, #0
 800224c:	6463      	str	r3, [r4, #68]	@ 0x44
  hi2s->State = HAL_I2S_STATE_BUSY_TX_RX;
 800224e:	2305      	movs	r3, #5
 8002250:	f884 3041 	strb.w	r3, [r4, #65]	@ 0x41
  tmp1 = hi2s->Instance->I2SCFGR & SPI_I2SCFGR_I2SCFG;
 8002254:	69c3      	ldr	r3, [r0, #28]
 8002256:	f403 7340 	and.w	r3, r3, #768	@ 0x300
 800225a:	4699      	mov	r9, r3
  if ((tmp1 == I2S_MODE_MASTER_TX) || (tmp1 == I2S_MODE_SLAVE_TX))
 800225c:	f5b3 7f00 	cmp.w	r3, #512	@ 0x200
 8002260:	d002      	beq.n	8002268 <HAL_I2SEx_TransmitReceive+0x80>
 8002262:	2b00      	cmp	r3, #0
 8002264:	f040 80c2 	bne.w	80023ec <HAL_I2SEx_TransmitReceive+0x204>
    hi2s->Instance->DR = (*pTxData++);
 8002268:	460a      	mov	r2, r1
 800226a:	f832 3b02 	ldrh.w	r3, [r2], #2
 800226e:	4690      	mov	r8, r2
 8002270:	60c3      	str	r3, [r0, #12]
    hi2s->TxXferCount--;
 8002272:	8d63      	ldrh	r3, [r4, #42]	@ 0x2a
 8002274:	b29b      	uxth	r3, r3
 8002276:	3b01      	subs	r3, #1
 8002278:	b29b      	uxth	r3, r3
 800227a:	8563      	strh	r3, [r4, #42]	@ 0x2a
    __HAL_I2SEXT_ENABLE(hi2s);
 800227c:	6822      	ldr	r2, [r4, #0]
 800227e:	4b98      	ldr	r3, [pc, #608]	@ (80024e0 <HAL_I2SEx_TransmitReceive+0x2f8>)
 8002280:	429a      	cmp	r2, r3
 8002282:	d01e      	beq.n	80022c2 <HAL_I2SEx_TransmitReceive+0xda>
 8002284:	f04f 2240 	mov.w	r2, #1073758208	@ 0x40004000
 8002288:	69d3      	ldr	r3, [r2, #28]
 800228a:	f443 6380 	orr.w	r3, r3, #1024	@ 0x400
 800228e:	61d3      	str	r3, [r2, #28]
    __HAL_I2S_ENABLE(hi2s);
 8002290:	6822      	ldr	r2, [r4, #0]
 8002292:	69d3      	ldr	r3, [r2, #28]
 8002294:	f443 6380 	orr.w	r3, r3, #1024	@ 0x400
 8002298:	61d3      	str	r3, [r2, #28]
    if ((hi2s->Instance->I2SCFGR & SPI_I2SCFGR_I2SCFG) == I2S_MODE_MASTER_TX)
 800229a:	6822      	ldr	r2, [r4, #0]
 800229c:	69d3      	ldr	r3, [r2, #28]
 800229e:	f403 7340 	and.w	r3, r3, #768	@ 0x300
 80022a2:	f5b3 7f00 	cmp.w	r3, #512	@ 0x200
 80022a6:	d118      	bne.n	80022da <HAL_I2SEx_TransmitReceive+0xf2>
      __HAL_I2SEXT_CLEAR_OVRFLAG(hi2s);
 80022a8:	2300      	movs	r3, #0
 80022aa:	9302      	str	r3, [sp, #8]
 80022ac:	4b8c      	ldr	r3, [pc, #560]	@ (80024e0 <HAL_I2SEx_TransmitReceive+0x2f8>)
 80022ae:	429a      	cmp	r2, r3
 80022b0:	d009      	beq.n	80022c6 <HAL_I2SEx_TransmitReceive+0xde>
 80022b2:	f04f 2340 	mov.w	r3, #1073758208	@ 0x40004000
 80022b6:	68da      	ldr	r2, [r3, #12]
 80022b8:	9202      	str	r2, [sp, #8]
 80022ba:	689b      	ldr	r3, [r3, #8]
 80022bc:	9302      	str	r3, [sp, #8]
 80022be:	9b02      	ldr	r3, [sp, #8]
 80022c0:	e00b      	b.n	80022da <HAL_I2SEx_TransmitReceive+0xf2>
    __HAL_I2SEXT_ENABLE(hi2s);
 80022c2:	4a88      	ldr	r2, [pc, #544]	@ (80024e4 <HAL_I2SEx_TransmitReceive+0x2fc>)
 80022c4:	e7e0      	b.n	8002288 <HAL_I2SEx_TransmitReceive+0xa0>
      __HAL_I2SEXT_CLEAR_OVRFLAG(hi2s);
 80022c6:	f5a3 6380 	sub.w	r3, r3, #1024	@ 0x400
 80022ca:	e7f4      	b.n	80022b6 <HAL_I2SEx_TransmitReceive+0xce>
      if (hi2s->TxXferCount > 0U)
 80022cc:	8d63      	ldrh	r3, [r4, #42]	@ 0x2a
 80022ce:	b29b      	uxth	r3, r3
 80022d0:	b9bb      	cbnz	r3, 8002302 <HAL_I2SEx_TransmitReceive+0x11a>
      if (hi2s->RxXferCount > 0U)
 80022d2:	8e63      	ldrh	r3, [r4, #50]	@ 0x32
 80022d4:	b29b      	uxth	r3, r3
 80022d6:	2b00      	cmp	r3, #0
 80022d8:	d147      	bne.n	800236a <HAL_I2SEx_TransmitReceive+0x182>
    while ((hi2s->RxXferCount > 0U) || (hi2s->TxXferCount > 0U))
 80022da:	8e63      	ldrh	r3, [r4, #50]	@ 0x32
 80022dc:	b29b      	uxth	r3, r3
 80022de:	2b00      	cmp	r3, #0
 80022e0:	d1f4      	bne.n	80022cc <HAL_I2SEx_TransmitReceive+0xe4>
 80022e2:	8d63      	ldrh	r3, [r4, #42]	@ 0x2a
 80022e4:	b29b      	uxth	r3, r3
 80022e6:	2b00      	cmp	r3, #0
 80022e8:	d1f0      	bne.n	80022cc <HAL_I2SEx_TransmitReceive+0xe4>
  hi2s->State = HAL_I2S_STATE_READY;
 80022ea:	2301      	movs	r3, #1
 80022ec:	f884 3041 	strb.w	r3, [r4, #65]	@ 0x41
  __HAL_UNLOCK(hi2s);
 80022f0:	2300      	movs	r3, #0
 80022f2:	f884 3040 	strb.w	r3, [r4, #64]	@ 0x40
  if (hi2s->ErrorCode != HAL_I2S_ERROR_NONE)
 80022f6:	6c63      	ldr	r3, [r4, #68]	@ 0x44
 80022f8:	2b00      	cmp	r3, #0
 80022fa:	f040 8134 	bne.w	8002566 <HAL_I2SEx_TransmitReceive+0x37e>
    return HAL_OK;
 80022fe:	461e      	mov	r6, r3
 8002300:	e131      	b.n	8002566 <HAL_I2SEx_TransmitReceive+0x37e>
        if (I2SEx_FullDuplexWaitFlagStateUntilTimeout(hi2s, I2S_FLAG_TXE, SET, Timeout, I2S_USE_I2S) != HAL_OK)
 8002302:	2300      	movs	r3, #0
 8002304:	9300      	str	r3, [sp, #0]
 8002306:	462b      	mov	r3, r5
 8002308:	2201      	movs	r2, #1
 800230a:	2102      	movs	r1, #2
 800230c:	4620      	mov	r0, r4
 800230e:	f7ff ff13 	bl	8002138 <I2SEx_FullDuplexWaitFlagStateUntilTimeout>
 8002312:	b9d8      	cbnz	r0, 800234c <HAL_I2SEx_TransmitReceive+0x164>
        hi2s->Instance->DR = (*pTxData++);
 8002314:	4642      	mov	r2, r8
 8002316:	6823      	ldr	r3, [r4, #0]
 8002318:	f832 1b02 	ldrh.w	r1, [r2], #2
 800231c:	60d9      	str	r1, [r3, #12]
        hi2s->TxXferCount--;
 800231e:	8d63      	ldrh	r3, [r4, #42]	@ 0x2a
 8002320:	b29b      	uxth	r3, r3
 8002322:	3b01      	subs	r3, #1
 8002324:	b29b      	uxth	r3, r3
 8002326:	8563      	strh	r3, [r4, #42]	@ 0x2a
        if ((__HAL_I2S_GET_FLAG(hi2s, I2S_FLAG_UDR) == SET) && (tmp1 == I2S_MODE_SLAVE_TX))
 8002328:	6823      	ldr	r3, [r4, #0]
 800232a:	6899      	ldr	r1, [r3, #8]
 800232c:	f011 0f08 	tst.w	r1, #8
 8002330:	d017      	beq.n	8002362 <HAL_I2SEx_TransmitReceive+0x17a>
 8002332:	4649      	mov	r1, r9
 8002334:	b9b9      	cbnz	r1, 8002366 <HAL_I2SEx_TransmitReceive+0x17e>
          __HAL_I2S_CLEAR_UDRFLAG(hi2s);
 8002336:	f8cd 900c 	str.w	r9, [sp, #12]
 800233a:	689b      	ldr	r3, [r3, #8]
 800233c:	9303      	str	r3, [sp, #12]
 800233e:	9b03      	ldr	r3, [sp, #12]
          SET_BIT(hi2s->ErrorCode, HAL_I2S_ERROR_UDR);
 8002340:	6c63      	ldr	r3, [r4, #68]	@ 0x44
 8002342:	f043 0304 	orr.w	r3, r3, #4
 8002346:	6463      	str	r3, [r4, #68]	@ 0x44
        hi2s->Instance->DR = (*pTxData++);
 8002348:	4690      	mov	r8, r2
 800234a:	e7c2      	b.n	80022d2 <HAL_I2SEx_TransmitReceive+0xea>
          SET_BIT(hi2s->ErrorCode, HAL_I2S_ERROR_TIMEOUT);
 800234c:	6c63      	ldr	r3, [r4, #68]	@ 0x44
 800234e:	f043 0301 	orr.w	r3, r3, #1
 8002352:	6463      	str	r3, [r4, #68]	@ 0x44
          hi2s->State = HAL_I2S_STATE_READY;
 8002354:	2301      	movs	r3, #1
 8002356:	f884 3041 	strb.w	r3, [r4, #65]	@ 0x41
          __HAL_UNLOCK(hi2s);
 800235a:	2300      	movs	r3, #0
 800235c:	f884 3040 	strb.w	r3, [r4, #64]	@ 0x40
          return HAL_ERROR;
 8002360:	e101      	b.n	8002566 <HAL_I2SEx_TransmitReceive+0x37e>
        hi2s->Instance->DR = (*pTxData++);
 8002362:	4690      	mov	r8, r2
 8002364:	e7b5      	b.n	80022d2 <HAL_I2SEx_TransmitReceive+0xea>
 8002366:	4690      	mov	r8, r2
 8002368:	e7b3      	b.n	80022d2 <HAL_I2SEx_TransmitReceive+0xea>
        if (I2SEx_FullDuplexWaitFlagStateUntilTimeout(hi2s, I2S_FLAG_RXNE, SET, Timeout, I2S_USE_I2SEXT) != HAL_OK)
 800236a:	2101      	movs	r1, #1
 800236c:	9100      	str	r1, [sp, #0]
 800236e:	462b      	mov	r3, r5
 8002370:	460a      	mov	r2, r1
 8002372:	4620      	mov	r0, r4
 8002374:	f7ff fee0 	bl	8002138 <I2SEx_FullDuplexWaitFlagStateUntilTimeout>
 8002378:	bb28      	cbnz	r0, 80023c6 <HAL_I2SEx_TransmitReceive+0x1de>
        (*pRxData++) = I2SxEXT(hi2s->Instance)->DR;
 800237a:	6822      	ldr	r2, [r4, #0]
 800237c:	4b58      	ldr	r3, [pc, #352]	@ (80024e0 <HAL_I2SEx_TransmitReceive+0x2f8>)
 800237e:	429a      	cmp	r2, r3
 8002380:	d02c      	beq.n	80023dc <HAL_I2SEx_TransmitReceive+0x1f4>
 8002382:	f04f 2340 	mov.w	r3, #1073758208	@ 0x40004000
 8002386:	68db      	ldr	r3, [r3, #12]
 8002388:	463a      	mov	r2, r7
 800238a:	f822 3b02 	strh.w	r3, [r2], #2
        hi2s->RxXferCount--;
 800238e:	8e63      	ldrh	r3, [r4, #50]	@ 0x32
 8002390:	b29b      	uxth	r3, r3
 8002392:	3b01      	subs	r3, #1
 8002394:	b29b      	uxth	r3, r3
 8002396:	8663      	strh	r3, [r4, #50]	@ 0x32
        if (__HAL_I2SEXT_GET_FLAG(hi2s, I2S_FLAG_OVR) == SET)
 8002398:	6823      	ldr	r3, [r4, #0]
 800239a:	4951      	ldr	r1, [pc, #324]	@ (80024e0 <HAL_I2SEx_TransmitReceive+0x2f8>)
 800239c:	428b      	cmp	r3, r1
 800239e:	d020      	beq.n	80023e2 <HAL_I2SEx_TransmitReceive+0x1fa>
 80023a0:	f04f 2140 	mov.w	r1, #1073758208	@ 0x40004000
 80023a4:	6889      	ldr	r1, [r1, #8]
 80023a6:	f011 0f40 	tst.w	r1, #64	@ 0x40
 80023aa:	d01d      	beq.n	80023e8 <HAL_I2SEx_TransmitReceive+0x200>
          __HAL_I2S_CLEAR_OVRFLAG(hi2s);
 80023ac:	2100      	movs	r1, #0
 80023ae:	9104      	str	r1, [sp, #16]
 80023b0:	68d9      	ldr	r1, [r3, #12]
 80023b2:	9104      	str	r1, [sp, #16]
 80023b4:	689b      	ldr	r3, [r3, #8]
 80023b6:	9304      	str	r3, [sp, #16]
 80023b8:	9b04      	ldr	r3, [sp, #16]
          SET_BIT(hi2s->ErrorCode, HAL_I2S_ERROR_OVR);
 80023ba:	6c63      	ldr	r3, [r4, #68]	@ 0x44
 80023bc:	f043 0302 	orr.w	r3, r3, #2
 80023c0:	6463      	str	r3, [r4, #68]	@ 0x44
        (*pRxData++) = I2SxEXT(hi2s->Instance)->DR;
 80023c2:	4617      	mov	r7, r2
 80023c4:	e789      	b.n	80022da <HAL_I2SEx_TransmitReceive+0xf2>
          SET_BIT(hi2s->ErrorCode, HAL_I2S_ERROR_TIMEOUT);
 80023c6:	6c63      	ldr	r3, [r4, #68]	@ 0x44
 80023c8:	f043 0301 	orr.w	r3, r3, #1
 80023cc:	6463      	str	r3, [r4, #68]	@ 0x44
          hi2s->State = HAL_I2S_STATE_READY;
 80023ce:	2301      	movs	r3, #1
 80023d0:	f884 3041 	strb.w	r3, [r4, #65]	@ 0x41
          __HAL_UNLOCK(hi2s);
 80023d4:	2300      	movs	r3, #0
 80023d6:	f884 3040 	strb.w	r3, [r4, #64]	@ 0x40
          return HAL_ERROR;
 80023da:	e0c4      	b.n	8002566 <HAL_I2SEx_TransmitReceive+0x37e>
        (*pRxData++) = I2SxEXT(hi2s->Instance)->DR;
 80023dc:	f5a3 6380 	sub.w	r3, r3, #1024	@ 0x400
 80023e0:	e7d1      	b.n	8002386 <HAL_I2SEx_TransmitReceive+0x19e>
        if (__HAL_I2SEXT_GET_FLAG(hi2s, I2S_FLAG_OVR) == SET)
 80023e2:	f5a1 6180 	sub.w	r1, r1, #1024	@ 0x400
 80023e6:	e7dd      	b.n	80023a4 <HAL_I2SEx_TransmitReceive+0x1bc>
        (*pRxData++) = I2SxEXT(hi2s->Instance)->DR;
 80023e8:	4617      	mov	r7, r2
 80023ea:	e776      	b.n	80022da <HAL_I2SEx_TransmitReceive+0xf2>
    I2SxEXT(hi2s->Instance)->DR = (*pTxData++);
 80023ec:	460b      	mov	r3, r1
 80023ee:	f833 2b02 	ldrh.w	r2, [r3], #2
 80023f2:	4698      	mov	r8, r3
 80023f4:	4b3a      	ldr	r3, [pc, #232]	@ (80024e0 <HAL_I2SEx_TransmitReceive+0x2f8>)
 80023f6:	4298      	cmp	r0, r3
 80023f8:	d025      	beq.n	8002446 <HAL_I2SEx_TransmitReceive+0x25e>
 80023fa:	f04f 2340 	mov.w	r3, #1073758208	@ 0x40004000
 80023fe:	60da      	str	r2, [r3, #12]
    hi2s->TxXferCount--;
 8002400:	8d63      	ldrh	r3, [r4, #42]	@ 0x2a
 8002402:	b29b      	uxth	r3, r3
 8002404:	3b01      	subs	r3, #1
 8002406:	b29b      	uxth	r3, r3
 8002408:	8563      	strh	r3, [r4, #42]	@ 0x2a
    __HAL_I2SEXT_ENABLE(hi2s);
 800240a:	6822      	ldr	r2, [r4, #0]
 800240c:	4b34      	ldr	r3, [pc, #208]	@ (80024e0 <HAL_I2SEx_TransmitReceive+0x2f8>)
 800240e:	429a      	cmp	r2, r3
 8002410:	d01c      	beq.n	800244c <HAL_I2SEx_TransmitReceive+0x264>
 8002412:	f04f 2240 	mov.w	r2, #1073758208	@ 0x40004000
 8002416:	69d3      	ldr	r3, [r2, #28]
 8002418:	f443 6380 	orr.w	r3, r3, #1024	@ 0x400
 800241c:	61d3      	str	r3, [r2, #28]
    __HAL_I2S_ENABLE(hi2s);
 800241e:	6822      	ldr	r2, [r4, #0]
 8002420:	69d3      	ldr	r3, [r2, #28]
 8002422:	f443 6380 	orr.w	r3, r3, #1024	@ 0x400
 8002426:	61d3      	str	r3, [r2, #28]
    if ((hi2s->Instance->I2SCFGR & SPI_I2SCFGR_I2SCFG) == I2S_MODE_MASTER_RX)
 8002428:	6822      	ldr	r2, [r4, #0]
 800242a:	69d3      	ldr	r3, [r2, #28]
 800242c:	f403 7340 	and.w	r3, r3, #768	@ 0x300
 8002430:	f5b3 7f40 	cmp.w	r3, #768	@ 0x300
 8002434:	d113      	bne.n	800245e <HAL_I2SEx_TransmitReceive+0x276>
      __HAL_I2S_CLEAR_OVRFLAG(hi2s);
 8002436:	2300      	movs	r3, #0
 8002438:	9305      	str	r3, [sp, #20]
 800243a:	68d3      	ldr	r3, [r2, #12]
 800243c:	9305      	str	r3, [sp, #20]
 800243e:	6893      	ldr	r3, [r2, #8]
 8002440:	9305      	str	r3, [sp, #20]
 8002442:	9b05      	ldr	r3, [sp, #20]
 8002444:	e00b      	b.n	800245e <HAL_I2SEx_TransmitReceive+0x276>
    I2SxEXT(hi2s->Instance)->DR = (*pTxData++);
 8002446:	f5a3 6380 	sub.w	r3, r3, #1024	@ 0x400
 800244a:	e7d8      	b.n	80023fe <HAL_I2SEx_TransmitReceive+0x216>
    __HAL_I2SEXT_ENABLE(hi2s);
 800244c:	4a25      	ldr	r2, [pc, #148]	@ (80024e4 <HAL_I2SEx_TransmitReceive+0x2fc>)
 800244e:	e7e2      	b.n	8002416 <HAL_I2SEx_TransmitReceive+0x22e>
      if (hi2s->TxXferCount > 0U)
 8002450:	8d63      	ldrh	r3, [r4, #42]	@ 0x2a
 8002452:	b29b      	uxth	r3, r3
 8002454:	b963      	cbnz	r3, 8002470 <HAL_I2SEx_TransmitReceive+0x288>
      if (hi2s->RxXferCount > 0U)
 8002456:	8e63      	ldrh	r3, [r4, #50]	@ 0x32
 8002458:	b29b      	uxth	r3, r3
 800245a:	2b00      	cmp	r3, #0
 800245c:	d151      	bne.n	8002502 <HAL_I2SEx_TransmitReceive+0x31a>
    while ((hi2s->RxXferCount > 0U) || (hi2s->TxXferCount > 0U))
 800245e:	8e63      	ldrh	r3, [r4, #50]	@ 0x32
 8002460:	b29b      	uxth	r3, r3
 8002462:	2b00      	cmp	r3, #0
 8002464:	d1f4      	bne.n	8002450 <HAL_I2SEx_TransmitReceive+0x268>
 8002466:	8d63      	ldrh	r3, [r4, #42]	@ 0x2a
 8002468:	b29b      	uxth	r3, r3
 800246a:	2b00      	cmp	r3, #0
 800246c:	d1f0      	bne.n	8002450 <HAL_I2SEx_TransmitReceive+0x268>
 800246e:	e73c      	b.n	80022ea <HAL_I2SEx_TransmitReceive+0x102>
        if (I2SEx_FullDuplexWaitFlagStateUntilTimeout(hi2s, I2S_FLAG_TXE, SET, Timeout, I2S_USE_I2SEXT) != HAL_OK)
 8002470:	2201      	movs	r2, #1
 8002472:	9200      	str	r2, [sp, #0]
 8002474:	462b      	mov	r3, r5
 8002476:	2102      	movs	r1, #2
 8002478:	4620      	mov	r0, r4
 800247a:	f7ff fe5d 	bl	8002138 <I2SEx_FullDuplexWaitFlagStateUntilTimeout>
 800247e:	b9e8      	cbnz	r0, 80024bc <HAL_I2SEx_TransmitReceive+0x2d4>
        I2SxEXT(hi2s->Instance)->DR = (*pTxData++);
 8002480:	4642      	mov	r2, r8
 8002482:	f832 1b02 	ldrh.w	r1, [r2], #2
 8002486:	6820      	ldr	r0, [r4, #0]
 8002488:	4b15      	ldr	r3, [pc, #84]	@ (80024e0 <HAL_I2SEx_TransmitReceive+0x2f8>)
 800248a:	4298      	cmp	r0, r3
 800248c:	d021      	beq.n	80024d2 <HAL_I2SEx_TransmitReceive+0x2ea>
 800248e:	f04f 2340 	mov.w	r3, #1073758208	@ 0x40004000
 8002492:	60d9      	str	r1, [r3, #12]
        hi2s->TxXferCount--;
 8002494:	8d63      	ldrh	r3, [r4, #42]	@ 0x2a
 8002496:	b29b      	uxth	r3, r3
 8002498:	3b01      	subs	r3, #1
 800249a:	b29b      	uxth	r3, r3
 800249c:	8563      	strh	r3, [r4, #42]	@ 0x2a
        if ((__HAL_I2SEXT_GET_FLAG(hi2s, I2S_FLAG_UDR) == SET) && (tmp1 == I2S_MODE_SLAVE_RX))
 800249e:	6823      	ldr	r3, [r4, #0]
 80024a0:	490f      	ldr	r1, [pc, #60]	@ (80024e0 <HAL_I2SEx_TransmitReceive+0x2f8>)
 80024a2:	428b      	cmp	r3, r1
 80024a4:	d018      	beq.n	80024d8 <HAL_I2SEx_TransmitReceive+0x2f0>
 80024a6:	f04f 2140 	mov.w	r1, #1073758208	@ 0x40004000
 80024aa:	6889      	ldr	r1, [r1, #8]
 80024ac:	f011 0f08 	tst.w	r1, #8
 80024b0:	d025      	beq.n	80024fe <HAL_I2SEx_TransmitReceive+0x316>
 80024b2:	f5b9 7f80 	cmp.w	r9, #256	@ 0x100
 80024b6:	d017      	beq.n	80024e8 <HAL_I2SEx_TransmitReceive+0x300>
        I2SxEXT(hi2s->Instance)->DR = (*pTxData++);
 80024b8:	4690      	mov	r8, r2
 80024ba:	e7cc      	b.n	8002456 <HAL_I2SEx_TransmitReceive+0x26e>
          SET_BIT(hi2s->ErrorCode, HAL_I2S_ERROR_TIMEOUT);
 80024bc:	6c63      	ldr	r3, [r4, #68]	@ 0x44
 80024be:	f043 0301 	orr.w	r3, r3, #1
 80024c2:	6463      	str	r3, [r4, #68]	@ 0x44
          hi2s->State = HAL_I2S_STATE_READY;
 80024c4:	2301      	movs	r3, #1
 80024c6:	f884 3041 	strb.w	r3, [r4, #65]	@ 0x41
          __HAL_UNLOCK(hi2s);
 80024ca:	2300      	movs	r3, #0
 80024cc:	f884 3040 	strb.w	r3, [r4, #64]	@ 0x40
          return HAL_ERROR;
 80024d0:	e049      	b.n	8002566 <HAL_I2SEx_TransmitReceive+0x37e>
        I2SxEXT(hi2s->Instance)->DR = (*pTxData++);
 80024d2:	f5a3 6380 	sub.w	r3, r3, #1024	@ 0x400
 80024d6:	e7dc      	b.n	8002492 <HAL_I2SEx_TransmitReceive+0x2aa>
        if ((__HAL_I2SEXT_GET_FLAG(hi2s, I2S_FLAG_UDR) == SET) && (tmp1 == I2S_MODE_SLAVE_RX))
 80024d8:	f5a1 6180 	sub.w	r1, r1, #1024	@ 0x400
 80024dc:	e7e5      	b.n	80024aa <HAL_I2SEx_TransmitReceive+0x2c2>
 80024de:	bf00      	nop
 80024e0:	40003800 	.word	0x40003800
 80024e4:	40003400 	.word	0x40003400
          __HAL_I2S_CLEAR_UDRFLAG(hi2s);
 80024e8:	2100      	movs	r1, #0
 80024ea:	9106      	str	r1, [sp, #24]
 80024ec:	689b      	ldr	r3, [r3, #8]
 80024ee:	9306      	str	r3, [sp, #24]
 80024f0:	9b06      	ldr	r3, [sp, #24]
          SET_BIT(hi2s->ErrorCode, HAL_I2S_ERROR_UDR);
 80024f2:	6c63      	ldr	r3, [r4, #68]	@ 0x44
 80024f4:	f043 0304 	orr.w	r3, r3, #4
 80024f8:	6463      	str	r3, [r4, #68]	@ 0x44
        I2SxEXT(hi2s->Instance)->DR = (*pTxData++);
 80024fa:	4690      	mov	r8, r2
 80024fc:	e7ab      	b.n	8002456 <HAL_I2SEx_TransmitReceive+0x26e>
 80024fe:	4690      	mov	r8, r2
 8002500:	e7a9      	b.n	8002456 <HAL_I2SEx_TransmitReceive+0x26e>
        if (I2SEx_FullDuplexWaitFlagStateUntilTimeout(hi2s, I2S_FLAG_RXNE, SET, Timeout, I2S_USE_I2S) != HAL_OK)
 8002502:	2300      	movs	r3, #0
 8002504:	9300      	str	r3, [sp, #0]
 8002506:	462b      	mov	r3, r5
 8002508:	2201      	movs	r2, #1
 800250a:	4611      	mov	r1, r2
 800250c:	4620      	mov	r0, r4
 800250e:	f7ff fe13 	bl	8002138 <I2SEx_FullDuplexWaitFlagStateUntilTimeout>
 8002512:	b9d0      	cbnz	r0, 800254a <HAL_I2SEx_TransmitReceive+0x362>
        (*pRxData++) = hi2s->Instance->DR;
 8002514:	6823      	ldr	r3, [r4, #0]
 8002516:	68db      	ldr	r3, [r3, #12]
 8002518:	463a      	mov	r2, r7
 800251a:	f822 3b02 	strh.w	r3, [r2], #2
        hi2s->RxXferCount--;
 800251e:	8e63      	ldrh	r3, [r4, #50]	@ 0x32
 8002520:	b29b      	uxth	r3, r3
 8002522:	3b01      	subs	r3, #1
 8002524:	b29b      	uxth	r3, r3
 8002526:	8663      	strh	r3, [r4, #50]	@ 0x32
        if (__HAL_I2S_GET_FLAG(hi2s, I2S_FLAG_OVR) == SET)
 8002528:	6823      	ldr	r3, [r4, #0]
 800252a:	6899      	ldr	r1, [r3, #8]
 800252c:	f011 0f40 	tst.w	r1, #64	@ 0x40
 8002530:	d016      	beq.n	8002560 <HAL_I2SEx_TransmitReceive+0x378>
          __HAL_I2S_CLEAR_OVRFLAG(hi2s);
 8002532:	9007      	str	r0, [sp, #28]
 8002534:	68d9      	ldr	r1, [r3, #12]
 8002536:	9107      	str	r1, [sp, #28]
 8002538:	689b      	ldr	r3, [r3, #8]
 800253a:	9307      	str	r3, [sp, #28]
 800253c:	9b07      	ldr	r3, [sp, #28]
          SET_BIT(hi2s->ErrorCode, HAL_I2S_ERROR_OVR);
 800253e:	6c63      	ldr	r3, [r4, #68]	@ 0x44
 8002540:	f043 0302 	orr.w	r3, r3, #2
 8002544:	6463      	str	r3, [r4, #68]	@ 0x44
        (*pRxData++) = hi2s->Instance->DR;
 8002546:	4617      	mov	r7, r2
 8002548:	e789      	b.n	800245e <HAL_I2SEx_TransmitReceive+0x276>
          SET_BIT(hi2s->ErrorCode, HAL_I2S_ERROR_TIMEOUT);
 800254a:	6c63      	ldr	r3, [r4, #68]	@ 0x44
 800254c:	f043 0301 	orr.w	r3, r3, #1
 8002550:	6463      	str	r3, [r4, #68]	@ 0x44
          hi2s->State = HAL_I2S_STATE_READY;
 8002552:	2301      	movs	r3, #1
 8002554:	f884 3041 	strb.w	r3, [r4, #65]	@ 0x41
          __HAL_UNLOCK(hi2s);
 8002558:	2300      	movs	r3, #0
 800255a:	f884 3040 	strb.w	r3, [r4, #64]	@ 0x40
          return HAL_ERROR;
 800255e:	e002      	b.n	8002566 <HAL_I2SEx_TransmitReceive+0x37e>
        (*pRxData++) = hi2s->Instance->DR;
 8002560:	4617      	mov	r7, r2
 8002562:	e77c      	b.n	800245e <HAL_I2SEx_TransmitReceive+0x276>
    return HAL_BUSY;
 8002564:	2602      	movs	r6, #2
}
 8002566:	4630      	mov	r0, r6
 8002568:	b009      	add	sp, #36	@ 0x24
 800256a:	e8bd 83f0 	ldmia.w	sp!, {r4, r5, r6, r7, r8, r9, pc}
  __HAL_LOCK(hi2s);
 800256e:	2602      	movs	r6, #2
 8002570:	e7f9      	b.n	8002566 <HAL_I2SEx_TransmitReceive+0x37e>
 8002572:	bf00      	nop

08002574 <HAL_I2SEx_TxRxCpltCallback>:
}
 8002574:	4770      	bx	lr

08002576 <I2SEx_TxISR_I2S>:
{
 8002576:	b508      	push	{r3, lr}
  hi2s->Instance->DR = (*hi2s->pTxBuffPtr++);
 8002578:	6a43      	ldr	r3, [r0, #36]	@ 0x24
 800257a:	1c9a      	adds	r2, r3, #2
 800257c:	6242      	str	r2, [r0, #36]	@ 0x24
 800257e:	6802      	ldr	r2, [r0, #0]
 8002580:	881b      	ldrh	r3, [r3, #0]
 8002582:	60d3      	str	r3, [r2, #12]
  hi2s->TxXferCount--;
 8002584:	8d43      	ldrh	r3, [r0, #42]	@ 0x2a
 8002586:	b29b      	uxth	r3, r3
 8002588:	3b01      	subs	r3, #1
 800258a:	b29b      	uxth	r3, r3
 800258c:	8543      	strh	r3, [r0, #42]	@ 0x2a
  if (hi2s->TxXferCount == 0U)
 800258e:	8d43      	ldrh	r3, [r0, #42]	@ 0x2a
 8002590:	b29b      	uxth	r3, r3
 8002592:	b93b      	cbnz	r3, 80025a4 <I2SEx_TxISR_I2S+0x2e>
    __HAL_I2S_DISABLE_IT(hi2s, (I2S_IT_TXE | I2S_IT_ERR));
 8002594:	6802      	ldr	r2, [r0, #0]
 8002596:	6853      	ldr	r3, [r2, #4]
 8002598:	f023 03a0 	bic.w	r3, r3, #160	@ 0xa0
 800259c:	6053      	str	r3, [r2, #4]
    if (hi2s->RxXferCount == 0U)
 800259e:	8e43      	ldrh	r3, [r0, #50]	@ 0x32
 80025a0:	b29b      	uxth	r3, r3
 80025a2:	b103      	cbz	r3, 80025a6 <I2SEx_TxISR_I2S+0x30>
}
 80025a4:	bd08      	pop	{r3, pc}
      hi2s->State = HAL_I2S_STATE_READY;
 80025a6:	2301      	movs	r3, #1
 80025a8:	f880 3041 	strb.w	r3, [r0, #65]	@ 0x41
      HAL_I2SEx_TxRxCpltCallback(hi2s);
 80025ac:	f7ff ffe2 	bl	8002574 <HAL_I2SEx_TxRxCpltCallback>
}
 80025b0:	e7f8      	b.n	80025a4 <I2SEx_TxISR_I2S+0x2e>
	...

080025b4 <I2SEx_RxISR_I2SExt>:
{
 80025b4:	b508      	push	{r3, lr}
  (*hi2s->pRxBuffPtr++) = I2SxEXT(hi2s->Instance)->DR;
 80025b6:	6802      	ldr	r2, [r0, #0]
 80025b8:	4b15      	ldr	r3, [pc, #84]	@ (8002610 <I2SEx_RxISR_I2SExt+0x5c>)
 80025ba:	429a      	cmp	r2, r3
 80025bc:	d01c      	beq.n	80025f8 <I2SEx_RxISR_I2SExt+0x44>
 80025be:	f04f 2340 	mov.w	r3, #1073758208	@ 0x40004000
 80025c2:	68da      	ldr	r2, [r3, #12]
 80025c4:	6ac3      	ldr	r3, [r0, #44]	@ 0x2c
 80025c6:	1c99      	adds	r1, r3, #2
 80025c8:	62c1      	str	r1, [r0, #44]	@ 0x2c
 80025ca:	801a      	strh	r2, [r3, #0]
  hi2s->RxXferCount--;
 80025cc:	8e43      	ldrh	r3, [r0, #50]	@ 0x32
 80025ce:	b29b      	uxth	r3, r3
 80025d0:	3b01      	subs	r3, #1
 80025d2:	b29b      	uxth	r3, r3
 80025d4:	8643      	strh	r3, [r0, #50]	@ 0x32
  if (hi2s->RxXferCount == 0U)
 80025d6:	8e43      	ldrh	r3, [r0, #50]	@ 0x32
 80025d8:	b29b      	uxth	r3, r3
 80025da:	b963      	cbnz	r3, 80025f6 <I2SEx_RxISR_I2SExt+0x42>
    __HAL_I2SEXT_DISABLE_IT(hi2s, (I2S_IT_RXNE | I2S_IT_ERR));
 80025dc:	6802      	ldr	r2, [r0, #0]
 80025de:	4b0c      	ldr	r3, [pc, #48]	@ (8002610 <I2SEx_RxISR_I2SExt+0x5c>)
 80025e0:	429a      	cmp	r2, r3
 80025e2:	d00c      	beq.n	80025fe <I2SEx_RxISR_I2SExt+0x4a>
 80025e4:	f04f 2240 	mov.w	r2, #1073758208	@ 0x40004000
 80025e8:	6853      	ldr	r3, [r2, #4]
 80025ea:	f023 0360 	bic.w	r3, r3, #96	@ 0x60
 80025ee:	6053      	str	r3, [r2, #4]
    if (hi2s->TxXferCount == 0U)
 80025f0:	8d43      	ldrh	r3, [r0, #42]	@ 0x2a
 80025f2:	b29b      	uxth	r3, r3
 80025f4:	b12b      	cbz	r3, 8002602 <I2SEx_RxISR_I2SExt+0x4e>
}
 80025f6:	bd08      	pop	{r3, pc}
  (*hi2s->pRxBuffPtr++) = I2SxEXT(hi2s->Instance)->DR;
 80025f8:	f5a3 6380 	sub.w	r3, r3, #1024	@ 0x400
 80025fc:	e7e1      	b.n	80025c2 <I2SEx_RxISR_I2SExt+0xe>
    __HAL_I2SEXT_DISABLE_IT(hi2s, (I2S_IT_RXNE | I2S_IT_ERR));
 80025fe:	4a05      	ldr	r2, [pc, #20]	@ (8002614 <I2SEx_RxISR_I2SExt+0x60>)
 8002600:	e7f2      	b.n	80025e8 <I2SEx_RxISR_I2SExt+0x34>
      hi2s->State = HAL_I2S_STATE_READY;
 8002602:	2301      	movs	r3, #1
 8002604:	f880 3041 	strb.w	r3, [r0, #65]	@ 0x41
      HAL_I2SEx_TxRxCpltCallback(hi2s);
 8002608:	f7ff ffb4 	bl	8002574 <HAL_I2SEx_TxRxCpltCallback>
}
 800260c:	e7f3      	b.n	80025f6 <I2SEx_RxISR_I2SExt+0x42>
 800260e:	bf00      	nop
 8002610:	40003800 	.word	0x40003800
 8002614:	40003400 	.word	0x40003400

08002618 <I2SEx_TxISR_I2SExt>:
{
 8002618:	b508      	push	{r3, lr}
  I2SxEXT(hi2s->Instance)->DR = (*hi2s->pTxBuffPtr++);
 800261a:	6a43      	ldr	r3, [r0, #36]	@ 0x24
 800261c:	1c9a      	adds	r2, r3, #2
 800261e:	6242      	str	r2, [r0, #36]	@ 0x24
 8002620:	881a      	ldrh	r2, [r3, #0]
 8002622:	6801      	ldr	r1, [r0, #0]
 8002624:	4b13      	ldr	r3, [pc, #76]	@ (8002674 <I2SEx_TxISR_I2SExt+0x5c>)
 8002626:	4299      	cmp	r1, r3
 8002628:	d018      	beq.n	800265c <I2SEx_TxISR_I2SExt+0x44>
 800262a:	f04f 2340 	mov.w	r3, #1073758208	@ 0x40004000
 800262e:	60da      	str	r2, [r3, #12]
  hi2s->TxXferCount--;
 8002630:	8d43      	ldrh	r3, [r0, #42]	@ 0x2a
 8002632:	b29b      	uxth	r3, r3
 8002634:	3b01      	subs	r3, #1
 8002636:	b29b      	uxth	r3, r3
 8002638:	8543      	strh	r3, [r0, #42]	@ 0x2a
  if (hi2s->TxXferCount == 0U)
 800263a:	8d43      	ldrh	r3, [r0, #42]	@ 0x2a
 800263c:	b29b      	uxth	r3, r3
 800263e:	b963      	cbnz	r3, 800265a <I2SEx_TxISR_I2SExt+0x42>
    __HAL_I2SEXT_DISABLE_IT(hi2s, (I2S_IT_TXE | I2S_IT_ERR));
 8002640:	6802      	ldr	r2, [r0, #0]
 8002642:	4b0c      	ldr	r3, [pc, #48]	@ (8002674 <I2SEx_TxISR_I2SExt+0x5c>)
 8002644:	429a      	cmp	r2, r3
 8002646:	d00c      	beq.n	8002662 <I2SEx_TxISR_I2SExt+0x4a>
 8002648:	f04f 2240 	mov.w	r2, #1073758208	@ 0x40004000
 800264c:	6853      	ldr	r3, [r2, #4]
 800264e:	f023 03a0 	bic.w	r3, r3, #160	@ 0xa0
 8002652:	6053      	str	r3, [r2, #4]
    if (hi2s->RxXferCount == 0U)
 8002654:	8e43      	ldrh	r3, [r0, #50]	@ 0x32
 8002656:	b29b      	uxth	r3, r3
 8002658:	b12b      	cbz	r3, 8002666 <I2SEx_TxISR_I2SExt+0x4e>
}
 800265a:	bd08      	pop	{r3, pc}
  I2SxEXT(hi2s->Instance)->DR = (*hi2s->pTxBuffPtr++);
 800265c:	f5a3 6380 	sub.w	r3, r3, #1024	@ 0x400
 8002660:	e7e5      	b.n	800262e <I2SEx_TxISR_I2SExt+0x16>
    __HAL_I2SEXT_DISABLE_IT(hi2s, (I2S_IT_TXE | I2S_IT_ERR));
 8002662:	4a05      	ldr	r2, [pc, #20]	@ (8002678 <I2SEx_TxISR_I2SExt+0x60>)
 8002664:	e7f2      	b.n	800264c <I2SEx_TxISR_I2SExt+0x34>
      hi2s->State = HAL_I2S_STATE_READY;
 8002666:	2301      	movs	r3, #1
 8002668:	f880 3041 	strb.w	r3, [r0, #65]	@ 0x41
      HAL_I2SEx_TxRxCpltCallback(hi2s);
 800266c:	f7ff ff82 	bl	8002574 <HAL_I2SEx_TxRxCpltCallback>
}
 8002670:	e7f3      	b.n	800265a <I2SEx_TxISR_I2SExt+0x42>
 8002672:	bf00      	nop
 8002674:	40003800 	.word	0x40003800
 8002678:	40003400 	.word	0x40003400

0800267c <I2SEx_RxISR_I2S>:
{
 800267c:	b508      	push	{r3, lr}
  (*hi2s->pRxBuffPtr++) = hi2s->Instance->DR;
 800267e:	6803      	ldr	r3, [r0, #0]
 8002680:	68da      	ldr	r2, [r3, #12]
 8002682:	6ac3      	ldr	r3, [r0, #44]	@ 0x2c
 8002684:	1c99      	adds	r1, r3, #2
 8002686:	62c1      	str	r1, [r0, #44]	@ 0x2c
 8002688:	801a      	strh	r2, [r3, #0]
  hi2s->RxXferCount--;
 800268a:	8e43      	ldrh	r3, [r0, #50]	@ 0x32
 800268c:	b29b      	uxth	r3, r3
 800268e:	3b01      	subs	r3, #1
 8002690:	b29b      	uxth	r3, r3
 8002692:	8643      	strh	r3, [r0, #50]	@ 0x32
  if (hi2s->RxXferCount == 0U)
 8002694:	8e43      	ldrh	r3, [r0, #50]	@ 0x32
 8002696:	b29b      	uxth	r3, r3
 8002698:	b93b      	cbnz	r3, 80026aa <I2SEx_RxISR_I2S+0x2e>
    __HAL_I2S_DISABLE_IT(hi2s, (I2S_IT_RXNE | I2S_IT_ERR));
 800269a:	6802      	ldr	r2, [r0, #0]
 800269c:	6853      	ldr	r3, [r2, #4]
 800269e:	f023 0360 	bic.w	r3, r3, #96	@ 0x60
 80026a2:	6053      	str	r3, [r2, #4]
    if (hi2s->TxXferCount == 0U)
 80026a4:	8d43      	ldrh	r3, [r0, #42]	@ 0x2a
 80026a6:	b29b      	uxth	r3, r3
 80026a8:	b103      	cbz	r3, 80026ac <I2SEx_RxISR_I2S+0x30>
}
 80026aa:	bd08      	pop	{r3, pc}
      hi2s->State = HAL_I2S_STATE_READY;
 80026ac:	2301      	movs	r3, #1
 80026ae:	f880 3041 	strb.w	r3, [r0, #65]	@ 0x41
      HAL_I2SEx_TxRxCpltCallback(hi2s);
 80026b2:	f7ff ff5f 	bl	8002574 <HAL_I2SEx_TxRxCpltCallback>
}
 80026b6:	e7f8      	b.n	80026aa <I2SEx_RxISR_I2S+0x2e>

080026b8 <HAL_I2SEx_FullDuplex_IRQHandler>:
{
 80026b8:	b510      	push	{r4, lr}
 80026ba:	b086      	sub	sp, #24
 80026bc:	4604      	mov	r4, r0
  __IO uint32_t i2ssr     = hi2s->Instance->SR;
 80026be:	6803      	ldr	r3, [r0, #0]
 80026c0:	689a      	ldr	r2, [r3, #8]
 80026c2:	9205      	str	r2, [sp, #20]
  __IO uint32_t i2sextsr  = I2SxEXT(hi2s->Instance)->SR;
 80026c4:	4a70      	ldr	r2, [pc, #448]	@ (8002888 <HAL_I2SEx_FullDuplex_IRQHandler+0x1d0>)
 80026c6:	4293      	cmp	r3, r2
 80026c8:	d06f      	beq.n	80027aa <HAL_I2SEx_FullDuplex_IRQHandler+0xf2>
 80026ca:	f04f 2240 	mov.w	r2, #1073758208	@ 0x40004000
 80026ce:	6891      	ldr	r1, [r2, #8]
 80026d0:	9104      	str	r1, [sp, #16]
  __IO uint32_t i2scr2    = hi2s->Instance->CR2;
 80026d2:	685b      	ldr	r3, [r3, #4]
 80026d4:	9303      	str	r3, [sp, #12]
  __IO uint32_t i2sextcr2 = I2SxEXT(hi2s->Instance)->CR2;
 80026d6:	6853      	ldr	r3, [r2, #4]
 80026d8:	9302      	str	r3, [sp, #8]
  if ((hi2s->Init.Mode == I2S_MODE_MASTER_TX) || (hi2s->Init.Mode == I2S_MODE_SLAVE_TX))
 80026da:	6863      	ldr	r3, [r4, #4]
 80026dc:	f5b3 7f00 	cmp.w	r3, #512	@ 0x200
 80026e0:	d001      	beq.n	80026e6 <HAL_I2SEx_FullDuplex_IRQHandler+0x2e>
 80026e2:	2b00      	cmp	r3, #0
 80026e4:	d170      	bne.n	80027c8 <HAL_I2SEx_FullDuplex_IRQHandler+0x110>
    if (((i2ssr & I2S_FLAG_TXE) == I2S_FLAG_TXE) && ((i2scr2 & I2S_IT_TXE) != RESET))
 80026e6:	9b05      	ldr	r3, [sp, #20]
 80026e8:	f013 0f02 	tst.w	r3, #2
 80026ec:	d003      	beq.n	80026f6 <HAL_I2SEx_FullDuplex_IRQHandler+0x3e>
 80026ee:	9b03      	ldr	r3, [sp, #12]
 80026f0:	f013 0f80 	tst.w	r3, #128	@ 0x80
 80026f4:	d15c      	bne.n	80027b0 <HAL_I2SEx_FullDuplex_IRQHandler+0xf8>
    if (((i2sextsr & I2S_FLAG_RXNE) == I2S_FLAG_RXNE) && ((i2sextcr2 & I2S_IT_RXNE) != RESET))
 80026f6:	9b04      	ldr	r3, [sp, #16]
 80026f8:	f013 0f01 	tst.w	r3, #1
 80026fc:	d003      	beq.n	8002706 <HAL_I2SEx_FullDuplex_IRQHandler+0x4e>
 80026fe:	9b02      	ldr	r3, [sp, #8]
 8002700:	f013 0f40 	tst.w	r3, #64	@ 0x40
 8002704:	d158      	bne.n	80027b8 <HAL_I2SEx_FullDuplex_IRQHandler+0x100>
    if (((i2sextsr & I2S_FLAG_OVR) == I2S_FLAG_OVR) && ((i2sextcr2 & I2S_IT_ERR) != RESET))
 8002706:	9b04      	ldr	r3, [sp, #16]
 8002708:	f013 0f40 	tst.w	r3, #64	@ 0x40
 800270c:	d024      	beq.n	8002758 <HAL_I2SEx_FullDuplex_IRQHandler+0xa0>
 800270e:	9b02      	ldr	r3, [sp, #8]
 8002710:	f013 0f20 	tst.w	r3, #32
 8002714:	d020      	beq.n	8002758 <HAL_I2SEx_FullDuplex_IRQHandler+0xa0>
      __HAL_I2SEXT_DISABLE_IT(hi2s, (I2S_IT_RXNE | I2S_IT_ERR));
 8002716:	6822      	ldr	r2, [r4, #0]
 8002718:	4b5b      	ldr	r3, [pc, #364]	@ (8002888 <HAL_I2SEx_FullDuplex_IRQHandler+0x1d0>)
 800271a:	429a      	cmp	r2, r3
 800271c:	d050      	beq.n	80027c0 <HAL_I2SEx_FullDuplex_IRQHandler+0x108>
 800271e:	f04f 2240 	mov.w	r2, #1073758208	@ 0x40004000
 8002722:	6853      	ldr	r3, [r2, #4]
 8002724:	f023 0360 	bic.w	r3, r3, #96	@ 0x60
 8002728:	6053      	str	r3, [r2, #4]
      __HAL_I2S_DISABLE_IT(hi2s, (I2S_IT_TXE | I2S_IT_ERR));
 800272a:	6822      	ldr	r2, [r4, #0]
 800272c:	6853      	ldr	r3, [r2, #4]
 800272e:	f023 03a0 	bic.w	r3, r3, #160	@ 0xa0
 8002732:	6053      	str	r3, [r2, #4]
      __HAL_I2S_CLEAR_OVRFLAG(hi2s);
 8002734:	2300      	movs	r3, #0
 8002736:	9300      	str	r3, [sp, #0]
 8002738:	6823      	ldr	r3, [r4, #0]
 800273a:	68da      	ldr	r2, [r3, #12]
 800273c:	9200      	str	r2, [sp, #0]
 800273e:	689b      	ldr	r3, [r3, #8]
 8002740:	9300      	str	r3, [sp, #0]
 8002742:	9b00      	ldr	r3, [sp, #0]
      hi2s->State = HAL_I2S_STATE_READY;
 8002744:	2301      	movs	r3, #1
 8002746:	f884 3041 	strb.w	r3, [r4, #65]	@ 0x41
      SET_BIT(hi2s->ErrorCode, HAL_I2S_ERROR_OVR);
 800274a:	6c63      	ldr	r3, [r4, #68]	@ 0x44
 800274c:	f043 0302 	orr.w	r3, r3, #2
 8002750:	6463      	str	r3, [r4, #68]	@ 0x44
      HAL_I2S_ErrorCallback(hi2s);
 8002752:	4620      	mov	r0, r4
 8002754:	f7ff fc88 	bl	8002068 <HAL_I2S_ErrorCallback>
    if (((i2ssr & I2S_FLAG_UDR) == I2S_FLAG_UDR) && ((i2scr2 & I2S_IT_ERR) != RESET))
 8002758:	9b05      	ldr	r3, [sp, #20]
 800275a:	f013 0f08 	tst.w	r3, #8
 800275e:	d022      	beq.n	80027a6 <HAL_I2SEx_FullDuplex_IRQHandler+0xee>
 8002760:	9b03      	ldr	r3, [sp, #12]
 8002762:	f013 0f20 	tst.w	r3, #32
 8002766:	d01e      	beq.n	80027a6 <HAL_I2SEx_FullDuplex_IRQHandler+0xee>
      __HAL_I2S_DISABLE_IT(hi2s, (I2S_IT_TXE | I2S_IT_ERR));
 8002768:	6822      	ldr	r2, [r4, #0]
 800276a:	6853      	ldr	r3, [r2, #4]
 800276c:	f023 03a0 	bic.w	r3, r3, #160	@ 0xa0
 8002770:	6053      	str	r3, [r2, #4]
      __HAL_I2SEXT_DISABLE_IT(hi2s, (I2S_IT_RXNE | I2S_IT_ERR));
 8002772:	6822      	ldr	r2, [r4, #0]
 8002774:	4b44      	ldr	r3, [pc, #272]	@ (8002888 <HAL_I2SEx_FullDuplex_IRQHandler+0x1d0>)
 8002776:	429a      	cmp	r2, r3
 8002778:	d024      	beq.n	80027c4 <HAL_I2SEx_FullDuplex_IRQHandler+0x10c>
 800277a:	f04f 2240 	mov.w	r2, #1073758208	@ 0x40004000
 800277e:	6853      	ldr	r3, [r2, #4]
 8002780:	f023 0360 	bic.w	r3, r3, #96	@ 0x60
 8002784:	6053      	str	r3, [r2, #4]
      __HAL_I2S_CLEAR_UDRFLAG(hi2s);
 8002786:	2300      	movs	r3, #0
 8002788:	9301      	str	r3, [sp, #4]
 800278a:	6823      	ldr	r3, [r4, #0]
 800278c:	689b      	ldr	r3, [r3, #8]
 800278e:	9301      	str	r3, [sp, #4]
 8002790:	9b01      	ldr	r3, [sp, #4]
      hi2s->State = HAL_I2S_STATE_READY;
 8002792:	2301      	movs	r3, #1
 8002794:	f884 3041 	strb.w	r3, [r4, #65]	@ 0x41
      SET_BIT(hi2s->ErrorCode, HAL_I2S_ERROR_UDR);
 8002798:	6c63      	ldr	r3, [r4, #68]	@ 0x44
 800279a:	f043 0304 	orr.w	r3, r3, #4
 800279e:	6463      	str	r3, [r4, #68]	@ 0x44
      HAL_I2S_ErrorCallback(hi2s);
 80027a0:	4620      	mov	r0, r4
 80027a2:	f7ff fc61 	bl	8002068 <HAL_I2S_ErrorCallback>
}
 80027a6:	b006      	add	sp, #24
 80027a8:	bd10      	pop	{r4, pc}
  __IO uint32_t i2sextsr  = I2SxEXT(hi2s->Instance)->SR;
 80027aa:	f5a2 6280 	sub.w	r2, r2, #1024	@ 0x400
 80027ae:	e78e      	b.n	80026ce <HAL_I2SEx_FullDuplex_IRQHandler+0x16>
      I2SEx_TxISR_I2S(hi2s);
 80027b0:	4620      	mov	r0, r4
 80027b2:	f7ff fee0 	bl	8002576 <I2SEx_TxISR_I2S>
 80027b6:	e79e      	b.n	80026f6 <HAL_I2SEx_FullDuplex_IRQHandler+0x3e>
      I2SEx_RxISR_I2SExt(hi2s);
 80027b8:	4620      	mov	r0, r4
 80027ba:	f7ff fefb 	bl	80025b4 <I2SEx_RxISR_I2SExt>
 80027be:	e7a2      	b.n	8002706 <HAL_I2SEx_FullDuplex_IRQHandler+0x4e>
      __HAL_I2SEXT_DISABLE_IT(hi2s, (I2S_IT_RXNE | I2S_IT_ERR));
 80027c0:	4a32      	ldr	r2, [pc, #200]	@ (800288c <HAL_I2SEx_FullDuplex_IRQHandler+0x1d4>)
 80027c2:	e7ae      	b.n	8002722 <HAL_I2SEx_FullDuplex_IRQHandler+0x6a>
      __HAL_I2SEXT_DISABLE_IT(hi2s, (I2S_IT_RXNE | I2S_IT_ERR));
 80027c4:	4a31      	ldr	r2, [pc, #196]	@ (800288c <HAL_I2SEx_FullDuplex_IRQHandler+0x1d4>)
 80027c6:	e7da      	b.n	800277e <HAL_I2SEx_FullDuplex_IRQHandler+0xc6>
    if (((i2sextsr & I2S_FLAG_TXE) == I2S_FLAG_TXE) && ((i2sextcr2 & I2S_IT_TXE) != RESET))
 80027c8:	9b04      	ldr	r3, [sp, #16]
 80027ca:	f013 0f02 	tst.w	r3, #2
 80027ce:	d003      	beq.n	80027d8 <HAL_I2SEx_FullDuplex_IRQHandler+0x120>
 80027d0:	9b02      	ldr	r3, [sp, #8]
 80027d2:	f013 0f80 	tst.w	r3, #128	@ 0x80
 80027d6:	d14a      	bne.n	800286e <HAL_I2SEx_FullDuplex_IRQHandler+0x1b6>
    if (((i2ssr & I2S_FLAG_RXNE) == I2S_FLAG_RXNE) && ((i2scr2 & I2S_IT_RXNE) != RESET))
 80027d8:	9b05      	ldr	r3, [sp, #20]
 80027da:	f013 0f01 	tst.w	r3, #1
 80027de:	d003      	beq.n	80027e8 <HAL_I2SEx_FullDuplex_IRQHandler+0x130>
 80027e0:	9b03      	ldr	r3, [sp, #12]
 80027e2:	f013 0f40 	tst.w	r3, #64	@ 0x40
 80027e6:	d146      	bne.n	8002876 <HAL_I2SEx_FullDuplex_IRQHandler+0x1be>
    if (((i2ssr & I2S_FLAG_OVR) == I2S_FLAG_OVR) && ((i2scr2 & I2S_IT_ERR) != RESET))
 80027e8:	9b05      	ldr	r3, [sp, #20]
 80027ea:	f013 0f40 	tst.w	r3, #64	@ 0x40
 80027ee:	d01c      	beq.n	800282a <HAL_I2SEx_FullDuplex_IRQHandler+0x172>
 80027f0:	9b03      	ldr	r3, [sp, #12]
 80027f2:	f013 0f20 	tst.w	r3, #32
 80027f6:	d018      	beq.n	800282a <HAL_I2SEx_FullDuplex_IRQHandler+0x172>
      __HAL_I2S_DISABLE_IT(hi2s, (I2S_IT_RXNE | I2S_IT_ERR));
 80027f8:	6822      	ldr	r2, [r4, #0]
 80027fa:	6853      	ldr	r3, [r2, #4]
 80027fc:	f023 0360 	bic.w	r3, r3, #96	@ 0x60
 8002800:	6053      	str	r3, [r2, #4]
      __HAL_I2SEXT_DISABLE_IT(hi2s, (I2S_IT_TXE | I2S_IT_ERR));
 8002802:	6822      	ldr	r2, [r4, #0]
 8002804:	4b20      	ldr	r3, [pc, #128]	@ (8002888 <HAL_I2SEx_FullDuplex_IRQHandler+0x1d0>)
 8002806:	429a      	cmp	r2, r3
 8002808:	d039      	beq.n	800287e <HAL_I2SEx_FullDuplex_IRQHandler+0x1c6>
 800280a:	f04f 2240 	mov.w	r2, #1073758208	@ 0x40004000
 800280e:	6853      	ldr	r3, [r2, #4]
 8002810:	f023 03a0 	bic.w	r3, r3, #160	@ 0xa0
 8002814:	6053      	str	r3, [r2, #4]
      hi2s->State = HAL_I2S_STATE_READY;
 8002816:	2301      	movs	r3, #1
 8002818:	f884 3041 	strb.w	r3, [r4, #65]	@ 0x41
      SET_BIT(hi2s->ErrorCode, HAL_I2S_ERROR_OVR);
 800281c:	6c63      	ldr	r3, [r4, #68]	@ 0x44
 800281e:	f043 0302 	orr.w	r3, r3, #2
 8002822:	6463      	str	r3, [r4, #68]	@ 0x44
      HAL_I2S_ErrorCallback(hi2s);
 8002824:	4620      	mov	r0, r4
 8002826:	f7ff fc1f 	bl	8002068 <HAL_I2S_ErrorCallback>
    if (((i2sextsr & I2S_FLAG_UDR) == I2S_FLAG_UDR) && ((i2sextcr2 & I2S_IT_ERR) != RESET))
 800282a:	9b04      	ldr	r3, [sp, #16]
 800282c:	f013 0f08 	tst.w	r3, #8
 8002830:	d0b9      	beq.n	80027a6 <HAL_I2SEx_FullDuplex_IRQHandler+0xee>
 8002832:	9b02      	ldr	r3, [sp, #8]
 8002834:	f013 0f20 	tst.w	r3, #32
 8002838:	d0b5      	beq.n	80027a6 <HAL_I2SEx_FullDuplex_IRQHandler+0xee>
      __HAL_I2SEXT_DISABLE_IT(hi2s, (I2S_IT_TXE | I2S_IT_ERR));
 800283a:	6822      	ldr	r2, [r4, #0]
 800283c:	4b12      	ldr	r3, [pc, #72]	@ (8002888 <HAL_I2SEx_FullDuplex_IRQHandler+0x1d0>)
 800283e:	429a      	cmp	r2, r3
 8002840:	d01f      	beq.n	8002882 <HAL_I2SEx_FullDuplex_IRQHandler+0x1ca>
 8002842:	f04f 2240 	mov.w	r2, #1073758208	@ 0x40004000
 8002846:	6853      	ldr	r3, [r2, #4]
 8002848:	f023 03a0 	bic.w	r3, r3, #160	@ 0xa0
 800284c:	6053      	str	r3, [r2, #4]
      __HAL_I2S_DISABLE_IT(hi2s, (I2S_IT_RXNE | I2S_IT_ERR));
 800284e:	6822      	ldr	r2, [r4, #0]
 8002850:	6853      	ldr	r3, [r2, #4]
 8002852:	f023 0360 	bic.w	r3, r3, #96	@ 0x60
 8002856:	6053      	str	r3, [r2, #4]
      hi2s->State = HAL_I2S_STATE_READY;
 8002858:	2301      	movs	r3, #1
 800285a:	f884 3041 	strb.w	r3, [r4, #65]	@ 0x41
      SET_BIT(hi2s->ErrorCode, HAL_I2S_ERROR_UDR);
 800285e:	6c63      	ldr	r3, [r4, #68]	@ 0x44
 8002860:	f043 0304 	orr.w	r3, r3, #4
 8002864:	6463      	str	r3, [r4, #68]	@ 0x44
      HAL_I2S_ErrorCallback(hi2s);
 8002866:	4620      	mov	r0, r4
 8002868:	f7ff fbfe 	bl	8002068 <HAL_I2S_ErrorCallback>
}
 800286c:	e79b      	b.n	80027a6 <HAL_I2SEx_FullDuplex_IRQHandler+0xee>
      I2SEx_TxISR_I2SExt(hi2s);
 800286e:	4620      	mov	r0, r4
 8002870:	f7ff fed2 	bl	8002618 <I2SEx_TxISR_I2SExt>
 8002874:	e7b0      	b.n	80027d8 <HAL_I2SEx_FullDuplex_IRQHandler+0x120>
      I2SEx_RxISR_I2S(hi2s);
 8002876:	4620      	mov	r0, r4
 8002878:	f7ff ff00 	bl	800267c <I2SEx_RxISR_I2S>
 800287c:	e7b4      	b.n	80027e8 <HAL_I2SEx_FullDuplex_IRQHandler+0x130>
      __HAL_I2SEXT_DISABLE_IT(hi2s, (I2S_IT_TXE | I2S_IT_ERR));
 800287e:	4a03      	ldr	r2, [pc, #12]	@ (800288c <HAL_I2SEx_FullDuplex_IRQHandler+0x1d4>)
 8002880:	e7c5      	b.n	800280e <HAL_I2SEx_FullDuplex_IRQHandler+0x156>
      __HAL_I2SEXT_DISABLE_IT(hi2s, (I2S_IT_TXE | I2S_IT_ERR));
 8002882:	4a02      	ldr	r2, [pc, #8]	@ (800288c <HAL_I2SEx_FullDuplex_IRQHandler+0x1d4>)
 8002884:	e7df      	b.n	8002846 <HAL_I2SEx_FullDuplex_IRQHandler+0x18e>
 8002886:	bf00      	nop
 8002888:	40003800 	.word	0x40003800
 800288c:	40003400 	.word	0x40003400

08002890 <HAL_MspInit>:
/* USER CODE END 0 */
/**
  * Initializes the Global MSP.
  */
void HAL_MspInit(void)
{
 8002890:	b500      	push	{lr}
 8002892:	b083      	sub	sp, #12

  /* USER CODE BEGIN MspInit 0 */

  /* USER CODE END MspInit 0 */

  __HAL_RCC_SYSCFG_CLK_ENABLE();
 8002894:	2200      	movs	r2, #0
 8002896:	9200      	str	r2, [sp, #0]
 8002898:	4b0d      	ldr	r3, [pc, #52]	@ (80028d0 <HAL_MspInit+0x40>)
 800289a:	6c59      	ldr	r1, [r3, #68]	@ 0x44
 800289c:	f441 4180 	orr.w	r1, r1, #16384	@ 0x4000
 80028a0:	6459      	str	r1, [r3, #68]	@ 0x44
 80028a2:	6c59      	ldr	r1, [r3, #68]	@ 0x44
 80028a4:	f401 4180 	and.w	r1, r1, #16384	@ 0x4000
 80028a8:	9100      	str	r1, [sp, #0]
 80028aa:	9900      	ldr	r1, [sp, #0]
  __HAL_RCC_PWR_CLK_ENABLE();
 80028ac:	9201      	str	r2, [sp, #4]
 80028ae:	6c19      	ldr	r1, [r3, #64]	@ 0x40
 80028b0:	f041 5180 	orr.w	r1, r1, #268435456	@ 0x10000000
 80028b4:	6419      	str	r1, [r3, #64]	@ 0x40
 80028b6:	6c1b      	ldr	r3, [r3, #64]	@ 0x40
 80028b8:	f003 5380 	and.w	r3, r3, #268435456	@ 0x10000000
 80028bc:	9301      	str	r3, [sp, #4]
 80028be:	9b01      	ldr	r3, [sp, #4]

  /* System interrupt init*/
  /* PendSV_IRQn interrupt configuration */
  HAL_NVIC_SetPriority(PendSV_IRQn, 15, 0);
 80028c0:	210f      	movs	r1, #15
 80028c2:	f06f 0001 	mvn.w	r0, #1
 80028c6:	f7ff f8ad 	bl	8001a24 <HAL_NVIC_SetPriority>

  /* USER CODE BEGIN MspInit 1 */

  /* USER CODE END MspInit 1 */
}
 80028ca:	b003      	add	sp, #12
 80028cc:	bd00      	pop	{pc}
 80028ce:	bf00      	nop
 80028d0:	40023800 	.word	0x40023800

080028d4 <HAL_I2C_MspInit>:
  * This function configures the hardware resources used in this example
  * @param hi2c: I2C handle pointer
  * @retval None
  */
void HAL_I2C_MspInit(I2C_HandleTypeDef* hi2c)
{
 80028d4:	b530      	push	{r4, r5, lr}
 80028d6:	b089      	sub	sp, #36	@ 0x24
  GPIO_InitTypeDef GPIO_InitStruct = {0};
 80028d8:	2300      	movs	r3, #0
 80028da:	9303      	str	r3, [sp, #12]
 80028dc:	9304      	str	r3, [sp, #16]
 80028de:	9305      	str	r3, [sp, #20]
 80028e0:	9306      	str	r3, [sp, #24]
 80028e2:	9307      	str	r3, [sp, #28]
  if(hi2c->Instance==I2C1)
 80028e4:	6802      	ldr	r2, [r0, #0]
 80028e6:	4b14      	ldr	r3, [pc, #80]	@ (8002938 <HAL_I2C_MspInit+0x64>)
 80028e8:	429a      	cmp	r2, r3
 80028ea:	d001      	beq.n	80028f0 <HAL_I2C_MspInit+0x1c>

    /* USER CODE END I2C1_MspInit 1 */

  }

}
 80028ec:	b009      	add	sp, #36	@ 0x24
 80028ee:	bd30      	pop	{r4, r5, pc}
    __HAL_RCC_GPIOB_CLK_ENABLE();
 80028f0:	2500      	movs	r5, #0
 80028f2:	9501      	str	r5, [sp, #4]
 80028f4:	4c11      	ldr	r4, [pc, #68]	@ (800293c <HAL_I2C_MspInit+0x68>)
 80028f6:	6b23      	ldr	r3, [r4, #48]	@ 0x30
 80028f8:	f043 0302 	orr.w	r3, r3, #2
 80028fc:	6323      	str	r3, [r4, #48]	@ 0x30
 80028fe:	6b23      	ldr	r3, [r4, #48]	@ 0x30
 8002900:	f003 0302 	and.w	r3, r3, #2
 8002904:	9301      	str	r3, [sp, #4]
 8002906:	9b01      	ldr	r3, [sp, #4]
    GPIO_InitStruct.Pin = Audio_SCL_Pin|Audio_SDA_Pin;
 8002908:	f44f 7310 	mov.w	r3, #576	@ 0x240
 800290c:	9303      	str	r3, [sp, #12]
    GPIO_InitStruct.Mode = GPIO_MODE_AF_OD;
 800290e:	2312      	movs	r3, #18
 8002910:	9304      	str	r3, [sp, #16]
    GPIO_InitStruct.Pull = GPIO_PULLUP;
 8002912:	2301      	movs	r3, #1
 8002914:	9305      	str	r3, [sp, #20]
    GPIO_InitStruct.Alternate = GPIO_AF4_I2C1;
 8002916:	2304      	movs	r3, #4
 8002918:	9307      	str	r3, [sp, #28]
    HAL_GPIO_Init(GPIOB, &GPIO_InitStruct);
 800291a:	a903      	add	r1, sp, #12
 800291c:	4808      	ldr	r0, [pc, #32]	@ (8002940 <HAL_I2C_MspInit+0x6c>)
 800291e:	f7ff f895 	bl	8001a4c <HAL_GPIO_Init>
    __HAL_RCC_I2C1_CLK_ENABLE();
 8002922:	9502      	str	r5, [sp, #8]
 8002924:	6c23      	ldr	r3, [r4, #64]	@ 0x40
 8002926:	f443 1300 	orr.w	r3, r3, #2097152	@ 0x200000
 800292a:	6423      	str	r3, [r4, #64]	@ 0x40
 800292c:	6c23      	ldr	r3, [r4, #64]	@ 0x40
 800292e:	f403 1300 	and.w	r3, r3, #2097152	@ 0x200000
 8002932:	9302      	str	r3, [sp, #8]
 8002934:	9b02      	ldr	r3, [sp, #8]
}
 8002936:	e7d9      	b.n	80028ec <HAL_I2C_MspInit+0x18>
 8002938:	40005400 	.word	0x40005400
 800293c:	40023800 	.word	0x40023800
 8002940:	40020400 	.word	0x40020400

08002944 <HAL_I2S_MspInit>:
  * This function configures the hardware resources used in this example
  * @param hi2s: I2S handle pointer
  * @retval None
  */
void HAL_I2S_MspInit(I2S_HandleTypeDef* hi2s)
{
 8002944:	b570      	push	{r4, r5, r6, lr}
 8002946:	b08c      	sub	sp, #48	@ 0x30
  GPIO_InitTypeDef GPIO_InitStruct = {0};
 8002948:	2300      	movs	r3, #0
 800294a:	9307      	str	r3, [sp, #28]
 800294c:	9308      	str	r3, [sp, #32]
 800294e:	9309      	str	r3, [sp, #36]	@ 0x24
 8002950:	930a      	str	r3, [sp, #40]	@ 0x28
 8002952:	930b      	str	r3, [sp, #44]	@ 0x2c
  RCC_PeriphCLKInitTypeDef PeriphClkInitStruct = {0};
 8002954:	9303      	str	r3, [sp, #12]
 8002956:	9304      	str	r3, [sp, #16]
 8002958:	9305      	str	r3, [sp, #20]
 800295a:	9306      	str	r3, [sp, #24]
  if(hi2s->Instance==SPI3)
 800295c:	6802      	ldr	r2, [r0, #0]
 800295e:	4b2c      	ldr	r3, [pc, #176]	@ (8002a10 <HAL_I2S_MspInit+0xcc>)
 8002960:	429a      	cmp	r2, r3
 8002962:	d001      	beq.n	8002968 <HAL_I2S_MspInit+0x24>

    /* USER CODE END SPI3_MspInit 1 */

  }

}
 8002964:	b00c      	add	sp, #48	@ 0x30
 8002966:	bd70      	pop	{r4, r5, r6, pc}
    PeriphClkInitStruct.PeriphClockSelection = RCC_PERIPHCLK_I2S;
 8002968:	2301      	movs	r3, #1
 800296a:	9303      	str	r3, [sp, #12]
    PeriphClkInitStruct.PLLI2S.PLLI2SN = 192;
 800296c:	23c0      	movs	r3, #192	@ 0xc0
 800296e:	9304      	str	r3, [sp, #16]
    PeriphClkInitStruct.PLLI2S.PLLI2SR = 2;
 8002970:	2302      	movs	r3, #2
 8002972:	9305      	str	r3, [sp, #20]
    if (HAL_RCCEx_PeriphCLKConfig(&PeriphClkInitStruct) != HAL_OK)
 8002974:	a803      	add	r0, sp, #12
 8002976:	f001 f92b 	bl	8003bd0 <HAL_RCCEx_PeriphCLKConfig>
 800297a:	2800      	cmp	r0, #0
 800297c:	d144      	bne.n	8002a08 <HAL_I2S_MspInit+0xc4>
    __HAL_RCC_SPI3_CLK_ENABLE();
 800297e:	2100      	movs	r1, #0
 8002980:	9100      	str	r1, [sp, #0]
 8002982:	4b24      	ldr	r3, [pc, #144]	@ (8002a14 <HAL_I2S_MspInit+0xd0>)
 8002984:	6c1a      	ldr	r2, [r3, #64]	@ 0x40
 8002986:	f442 4200 	orr.w	r2, r2, #32768	@ 0x8000
 800298a:	641a      	str	r2, [r3, #64]	@ 0x40
 800298c:	6c1a      	ldr	r2, [r3, #64]	@ 0x40
 800298e:	f402 4200 	and.w	r2, r2, #32768	@ 0x8000
 8002992:	9200      	str	r2, [sp, #0]
 8002994:	9a00      	ldr	r2, [sp, #0]
    __HAL_RCC_GPIOA_CLK_ENABLE();
 8002996:	9101      	str	r1, [sp, #4]
 8002998:	6b1a      	ldr	r2, [r3, #48]	@ 0x30
 800299a:	f042 0201 	orr.w	r2, r2, #1
 800299e:	631a      	str	r2, [r3, #48]	@ 0x30
 80029a0:	6b1a      	ldr	r2, [r3, #48]	@ 0x30
 80029a2:	f002 0201 	and.w	r2, r2, #1
 80029a6:	9201      	str	r2, [sp, #4]
 80029a8:	9a01      	ldr	r2, [sp, #4]
    __HAL_RCC_GPIOC_CLK_ENABLE();
 80029aa:	9102      	str	r1, [sp, #8]
 80029ac:	6b1a      	ldr	r2, [r3, #48]	@ 0x30
 80029ae:	f042 0204 	orr.w	r2, r2, #4
 80029b2:	631a      	str	r2, [r3, #48]	@ 0x30
 80029b4:	6b1b      	ldr	r3, [r3, #48]	@ 0x30
 80029b6:	f003 0304 	and.w	r3, r3, #4
 80029ba:	9302      	str	r3, [sp, #8]
 80029bc:	9b02      	ldr	r3, [sp, #8]
    GPIO_InitStruct.Pin = I2S3_WS_Pin;
 80029be:	2310      	movs	r3, #16
 80029c0:	9307      	str	r3, [sp, #28]
    GPIO_InitStruct.Mode = GPIO_MODE_AF_PP;
 80029c2:	2502      	movs	r5, #2
 80029c4:	9508      	str	r5, [sp, #32]
    GPIO_InitStruct.Pull = GPIO_NOPULL;
 80029c6:	460c      	mov	r4, r1
 80029c8:	9109      	str	r1, [sp, #36]	@ 0x24
    GPIO_InitStruct.Speed = GPIO_SPEED_FREQ_LOW;
 80029ca:	910a      	str	r1, [sp, #40]	@ 0x28
    GPIO_InitStruct.Alternate = GPIO_AF6_SPI3;
 80029cc:	2606      	movs	r6, #6
 80029ce:	960b      	str	r6, [sp, #44]	@ 0x2c
    HAL_GPIO_Init(I2S3_WS_GPIO_Port, &GPIO_InitStruct);
 80029d0:	a907      	add	r1, sp, #28
 80029d2:	4811      	ldr	r0, [pc, #68]	@ (8002a18 <HAL_I2S_MspInit+0xd4>)
 80029d4:	f7ff f83a 	bl	8001a4c <HAL_GPIO_Init>
    GPIO_InitStruct.Pin = I2S3_MCK_Pin|I2S3_SCK_Pin|I2S_Pin;
 80029d8:	f44f 53a4 	mov.w	r3, #5248	@ 0x1480
 80029dc:	9307      	str	r3, [sp, #28]
    GPIO_InitStruct.Mode = GPIO_MODE_AF_PP;
 80029de:	9508      	str	r5, [sp, #32]
    GPIO_InitStruct.Pull = GPIO_NOPULL;
 80029e0:	9409      	str	r4, [sp, #36]	@ 0x24
    GPIO_InitStruct.Speed = GPIO_SPEED_FREQ_LOW;
 80029e2:	940a      	str	r4, [sp, #40]	@ 0x28
    GPIO_InitStruct.Alternate = GPIO_AF6_SPI3;
 80029e4:	960b      	str	r6, [sp, #44]	@ 0x2c
    HAL_GPIO_Init(GPIOC, &GPIO_InitStruct);
 80029e6:	a907      	add	r1, sp, #28
 80029e8:	480c      	ldr	r0, [pc, #48]	@ (8002a1c <HAL_I2S_MspInit+0xd8>)
 80029ea:	f7ff f82f 	bl	8001a4c <HAL_GPIO_Init>
    GPIO_InitStruct.Pin = I2S_SD_Pin;
 80029ee:	f44f 6300 	mov.w	r3, #2048	@ 0x800
 80029f2:	9307      	str	r3, [sp, #28]
    GPIO_InitStruct.Mode = GPIO_MODE_AF_PP;
 80029f4:	9508      	str	r5, [sp, #32]
    GPIO_InitStruct.Pull = GPIO_NOPULL;
 80029f6:	9409      	str	r4, [sp, #36]	@ 0x24
    GPIO_InitStruct.Speed = GPIO_SPEED_FREQ_LOW;
 80029f8:	940a      	str	r4, [sp, #40]	@ 0x28
    GPIO_InitStruct.Alternate = GPIO_AF5_I2S3ext;
 80029fa:	2305      	movs	r3, #5
 80029fc:	930b      	str	r3, [sp, #44]	@ 0x2c
    HAL_GPIO_Init(I2S_SD_GPIO_Port, &GPIO_InitStruct);
 80029fe:	a907      	add	r1, sp, #28
 8002a00:	4806      	ldr	r0, [pc, #24]	@ (8002a1c <HAL_I2S_MspInit+0xd8>)
 8002a02:	f7ff f823 	bl	8001a4c <HAL_GPIO_Init>
}
 8002a06:	e7ad      	b.n	8002964 <HAL_I2S_MspInit+0x20>
      Error_Handler();
 8002a08:	f7fe f822 	bl	8000a50 <Error_Handler>
 8002a0c:	e7b7      	b.n	800297e <HAL_I2S_MspInit+0x3a>
 8002a0e:	bf00      	nop
 8002a10:	40003c00 	.word	0x40003c00
 8002a14:	40023800 	.word	0x40023800
 8002a18:	40020000 	.word	0x40020000
 8002a1c:	40020800 	.word	0x40020800

08002a20 <HAL_SPI_MspInit>:
  * This function configures the hardware resources used in this example
  * @param hspi: SPI handle pointer
  * @retval None
  */
void HAL_SPI_MspInit(SPI_HandleTypeDef* hspi)
{
 8002a20:	b5f0      	push	{r4, r5, r6, r7, lr}
 8002a22:	b08b      	sub	sp, #44	@ 0x2c
  GPIO_InitTypeDef GPIO_InitStruct = {0};
 8002a24:	2300      	movs	r3, #0
 8002a26:	9305      	str	r3, [sp, #20]
 8002a28:	9306      	str	r3, [sp, #24]
 8002a2a:	9307      	str	r3, [sp, #28]
 8002a2c:	9308      	str	r3, [sp, #32]
 8002a2e:	9309      	str	r3, [sp, #36]	@ 0x24
  if(hspi->Instance==SPI1)
 8002a30:	6803      	ldr	r3, [r0, #0]
 8002a32:	4a30      	ldr	r2, [pc, #192]	@ (8002af4 <HAL_SPI_MspInit+0xd4>)
 8002a34:	4293      	cmp	r3, r2
 8002a36:	d004      	beq.n	8002a42 <HAL_SPI_MspInit+0x22>

    /* USER CODE BEGIN SPI1_MspInit 1 */

    /* USER CODE END SPI1_MspInit 1 */
  }
  else if(hspi->Instance==SPI2)
 8002a38:	4a2f      	ldr	r2, [pc, #188]	@ (8002af8 <HAL_SPI_MspInit+0xd8>)
 8002a3a:	4293      	cmp	r3, r2
 8002a3c:	d022      	beq.n	8002a84 <HAL_SPI_MspInit+0x64>
    /* USER CODE BEGIN SPI2_MspInit 1 */

    /* USER CODE END SPI2_MspInit 1 */
  }

}
 8002a3e:	b00b      	add	sp, #44	@ 0x2c
 8002a40:	bdf0      	pop	{r4, r5, r6, r7, pc}
    __HAL_RCC_SPI1_CLK_ENABLE();
 8002a42:	2100      	movs	r1, #0
 8002a44:	9100      	str	r1, [sp, #0]
 8002a46:	4b2d      	ldr	r3, [pc, #180]	@ (8002afc <HAL_SPI_MspInit+0xdc>)
 8002a48:	6c5a      	ldr	r2, [r3, #68]	@ 0x44
 8002a4a:	f442 5280 	orr.w	r2, r2, #4096	@ 0x1000
 8002a4e:	645a      	str	r2, [r3, #68]	@ 0x44
 8002a50:	6c5a      	ldr	r2, [r3, #68]	@ 0x44
 8002a52:	f402 5280 	and.w	r2, r2, #4096	@ 0x1000
 8002a56:	9200      	str	r2, [sp, #0]
 8002a58:	9a00      	ldr	r2, [sp, #0]
    __HAL_RCC_GPIOA_CLK_ENABLE();
 8002a5a:	9101      	str	r1, [sp, #4]
 8002a5c:	6b1a      	ldr	r2, [r3, #48]	@ 0x30
 8002a5e:	f042 0201 	orr.w	r2, r2, #1
 8002a62:	631a      	str	r2, [r3, #48]	@ 0x30
 8002a64:	6b1b      	ldr	r3, [r3, #48]	@ 0x30
 8002a66:	f003 0301 	and.w	r3, r3, #1
 8002a6a:	9301      	str	r3, [sp, #4]
 8002a6c:	9b01      	ldr	r3, [sp, #4]
    GPIO_InitStruct.Pin = SPI1_SCK_Pin|SPI1_MISO_Pin|SPI1_MOSI_Pin;
 8002a6e:	23e0      	movs	r3, #224	@ 0xe0
 8002a70:	9305      	str	r3, [sp, #20]
    GPIO_InitStruct.Mode = GPIO_MODE_AF_PP;
 8002a72:	2302      	movs	r3, #2
 8002a74:	9306      	str	r3, [sp, #24]
    GPIO_InitStruct.Alternate = GPIO_AF5_SPI1;
 8002a76:	2305      	movs	r3, #5
 8002a78:	9309      	str	r3, [sp, #36]	@ 0x24
    HAL_GPIO_Init(GPIOA, &GPIO_InitStruct);
 8002a7a:	a905      	add	r1, sp, #20
 8002a7c:	4820      	ldr	r0, [pc, #128]	@ (8002b00 <HAL_SPI_MspInit+0xe0>)
 8002a7e:	f7fe ffe5 	bl	8001a4c <HAL_GPIO_Init>
 8002a82:	e7dc      	b.n	8002a3e <HAL_SPI_MspInit+0x1e>
    __HAL_RCC_SPI2_CLK_ENABLE();
 8002a84:	2400      	movs	r4, #0
 8002a86:	9402      	str	r4, [sp, #8]
 8002a88:	4b1c      	ldr	r3, [pc, #112]	@ (8002afc <HAL_SPI_MspInit+0xdc>)
 8002a8a:	6c1a      	ldr	r2, [r3, #64]	@ 0x40
 8002a8c:	f442 4280 	orr.w	r2, r2, #16384	@ 0x4000
 8002a90:	641a      	str	r2, [r3, #64]	@ 0x40
 8002a92:	6c1a      	ldr	r2, [r3, #64]	@ 0x40
 8002a94:	f402 4280 	and.w	r2, r2, #16384	@ 0x4000
 8002a98:	9202      	str	r2, [sp, #8]
 8002a9a:	9a02      	ldr	r2, [sp, #8]
    __HAL_RCC_GPIOC_CLK_ENABLE();
 8002a9c:	9403      	str	r4, [sp, #12]
 8002a9e:	6b1a      	ldr	r2, [r3, #48]	@ 0x30
 8002aa0:	f042 0204 	orr.w	r2, r2, #4
 8002aa4:	631a      	str	r2, [r3, #48]	@ 0x30
 8002aa6:	6b1a      	ldr	r2, [r3, #48]	@ 0x30
 8002aa8:	f002 0204 	and.w	r2, r2, #4
 8002aac:	9203      	str	r2, [sp, #12]
 8002aae:	9a03      	ldr	r2, [sp, #12]
    __HAL_RCC_GPIOB_CLK_ENABLE();
 8002ab0:	9404      	str	r4, [sp, #16]
 8002ab2:	6b1a      	ldr	r2, [r3, #48]	@ 0x30
 8002ab4:	f042 0202 	orr.w	r2, r2, #2
 8002ab8:	631a      	str	r2, [r3, #48]	@ 0x30
 8002aba:	6b1b      	ldr	r3, [r3, #48]	@ 0x30
 8002abc:	f003 0302 	and.w	r3, r3, #2
 8002ac0:	9304      	str	r3, [sp, #16]
 8002ac2:	9b04      	ldr	r3, [sp, #16]
    GPIO_InitStruct.Pin = GPIO_PIN_2;
 8002ac4:	2304      	movs	r3, #4
 8002ac6:	9305      	str	r3, [sp, #20]
    GPIO_InitStruct.Mode = GPIO_MODE_AF_PP;
 8002ac8:	2502      	movs	r5, #2
 8002aca:	9506      	str	r5, [sp, #24]
    GPIO_InitStruct.Speed = GPIO_SPEED_FREQ_VERY_HIGH;
 8002acc:	2603      	movs	r6, #3
 8002ace:	9608      	str	r6, [sp, #32]
    GPIO_InitStruct.Alternate = GPIO_AF5_SPI2;
 8002ad0:	2705      	movs	r7, #5
 8002ad2:	9709      	str	r7, [sp, #36]	@ 0x24
    HAL_GPIO_Init(GPIOC, &GPIO_InitStruct);
 8002ad4:	a905      	add	r1, sp, #20
 8002ad6:	480b      	ldr	r0, [pc, #44]	@ (8002b04 <HAL_SPI_MspInit+0xe4>)
 8002ad8:	f7fe ffb8 	bl	8001a4c <HAL_GPIO_Init>
    GPIO_InitStruct.Pin = GPIO_PIN_13|GPIO_PIN_15;
 8002adc:	f44f 4320 	mov.w	r3, #40960	@ 0xa000
 8002ae0:	9305      	str	r3, [sp, #20]
    GPIO_InitStruct.Mode = GPIO_MODE_AF_PP;
 8002ae2:	9506      	str	r5, [sp, #24]
    GPIO_InitStruct.Pull = GPIO_NOPULL;
 8002ae4:	9407      	str	r4, [sp, #28]
    GPIO_InitStruct.Speed = GPIO_SPEED_FREQ_VERY_HIGH;
 8002ae6:	9608      	str	r6, [sp, #32]
    GPIO_InitStruct.Alternate = GPIO_AF5_SPI2;
 8002ae8:	9709      	str	r7, [sp, #36]	@ 0x24
    HAL_GPIO_Init(GPIOB, &GPIO_InitStruct);
 8002aea:	a905      	add	r1, sp, #20
 8002aec:	4806      	ldr	r0, [pc, #24]	@ (8002b08 <HAL_SPI_MspInit+0xe8>)
 8002aee:	f7fe ffad 	bl	8001a4c <HAL_GPIO_Init>
}
 8002af2:	e7a4      	b.n	8002a3e <HAL_SPI_MspInit+0x1e>
 8002af4:	40013000 	.word	0x40013000
 8002af8:	40003800 	.word	0x40003800
 8002afc:	40023800 	.word	0x40023800
 8002b00:	40020000 	.word	0x40020000
 8002b04:	40020800 	.word	0x40020800
 8002b08:	40020400 	.word	0x40020400

08002b0c <HAL_PCD_MspInit>:
  * This function configures the hardware resources used in this example
  * @param hpcd: PCD handle pointer
  * @retval None
  */
void HAL_PCD_MspInit(PCD_HandleTypeDef* hpcd)
{
 8002b0c:	b530      	push	{r4, r5, lr}
 8002b0e:	b089      	sub	sp, #36	@ 0x24
  GPIO_InitTypeDef GPIO_InitStruct = {0};
 8002b10:	2300      	movs	r3, #0
 8002b12:	9303      	str	r3, [sp, #12]
 8002b14:	9304      	str	r3, [sp, #16]
 8002b16:	9305      	str	r3, [sp, #20]
 8002b18:	9306      	str	r3, [sp, #24]
 8002b1a:	9307      	str	r3, [sp, #28]
  if(hpcd->Instance==USB_OTG_FS)
 8002b1c:	6803      	ldr	r3, [r0, #0]
 8002b1e:	f1b3 4fa0 	cmp.w	r3, #1342177280	@ 0x50000000
 8002b22:	d001      	beq.n	8002b28 <HAL_PCD_MspInit+0x1c>

    /* USER CODE END USB_OTG_FS_MspInit 1 */

  }

}
 8002b24:	b009      	add	sp, #36	@ 0x24
 8002b26:	bd30      	pop	{r4, r5, pc}
 8002b28:	aa03      	add	r2, sp, #12
    __HAL_RCC_GPIOA_CLK_ENABLE();
 8002b2a:	2500      	movs	r5, #0
 8002b2c:	9501      	str	r5, [sp, #4]
 8002b2e:	4c1a      	ldr	r4, [pc, #104]	@ (8002b98 <HAL_PCD_MspInit+0x8c>)
 8002b30:	6b23      	ldr	r3, [r4, #48]	@ 0x30
 8002b32:	f043 0301 	orr.w	r3, r3, #1
 8002b36:	6323      	str	r3, [r4, #48]	@ 0x30
 8002b38:	6b23      	ldr	r3, [r4, #48]	@ 0x30
 8002b3a:	f003 0301 	and.w	r3, r3, #1
 8002b3e:	9301      	str	r3, [sp, #4]
 8002b40:	9b01      	ldr	r3, [sp, #4]
    GPIO_InitStruct.Pin = VBUS_FS_Pin;
 8002b42:	f44f 7300 	mov.w	r3, #512	@ 0x200
 8002b46:	9303      	str	r3, [sp, #12]
    HAL_GPIO_Init(VBUS_FS_GPIO_Port, &GPIO_InitStruct);
 8002b48:	4611      	mov	r1, r2
 8002b4a:	4814      	ldr	r0, [pc, #80]	@ (8002b9c <HAL_PCD_MspInit+0x90>)
 8002b4c:	f7fe ff7e 	bl	8001a4c <HAL_GPIO_Init>
    GPIO_InitStruct.Pin = OTG_FS_ID_Pin|OTG_FS_DM_Pin|OTG_FS_DP_Pin;
 8002b50:	f44f 53e0 	mov.w	r3, #7168	@ 0x1c00
 8002b54:	9303      	str	r3, [sp, #12]
    GPIO_InitStruct.Mode = GPIO_MODE_AF_PP;
 8002b56:	2302      	movs	r3, #2
 8002b58:	9304      	str	r3, [sp, #16]
    GPIO_InitStruct.Pull = GPIO_NOPULL;
 8002b5a:	9505      	str	r5, [sp, #20]
    GPIO_InitStruct.Speed = GPIO_SPEED_FREQ_LOW;
 8002b5c:	9506      	str	r5, [sp, #24]
    GPIO_InitStruct.Alternate = GPIO_AF10_OTG_FS;
 8002b5e:	230a      	movs	r3, #10
 8002b60:	9307      	str	r3, [sp, #28]
    HAL_GPIO_Init(GPIOA, &GPIO_InitStruct);
 8002b62:	a903      	add	r1, sp, #12
 8002b64:	480d      	ldr	r0, [pc, #52]	@ (8002b9c <HAL_PCD_MspInit+0x90>)
 8002b66:	f7fe ff71 	bl	8001a4c <HAL_GPIO_Init>
    __HAL_RCC_USB_OTG_FS_CLK_ENABLE();
 8002b6a:	6b63      	ldr	r3, [r4, #52]	@ 0x34
 8002b6c:	f043 0380 	orr.w	r3, r3, #128	@ 0x80
 8002b70:	6363      	str	r3, [r4, #52]	@ 0x34
 8002b72:	9502      	str	r5, [sp, #8]
 8002b74:	6c63      	ldr	r3, [r4, #68]	@ 0x44
 8002b76:	f443 4380 	orr.w	r3, r3, #16384	@ 0x4000
 8002b7a:	6463      	str	r3, [r4, #68]	@ 0x44
 8002b7c:	6c63      	ldr	r3, [r4, #68]	@ 0x44
 8002b7e:	f403 4380 	and.w	r3, r3, #16384	@ 0x4000
 8002b82:	9302      	str	r3, [sp, #8]
 8002b84:	9b02      	ldr	r3, [sp, #8]
    HAL_NVIC_SetPriority(OTG_FS_IRQn, 5, 0);
 8002b86:	462a      	mov	r2, r5
 8002b88:	2105      	movs	r1, #5
 8002b8a:	2043      	movs	r0, #67	@ 0x43
 8002b8c:	f7fe ff4a 	bl	8001a24 <HAL_NVIC_SetPriority>
    HAL_NVIC_EnableIRQ(OTG_FS_IRQn);
 8002b90:	2043      	movs	r0, #67	@ 0x43
 8002b92:	f7fe ff57 	bl	8001a44 <HAL_NVIC_EnableIRQ>
}
 8002b96:	e7c5      	b.n	8002b24 <HAL_PCD_MspInit+0x18>
 8002b98:	40023800 	.word	0x40023800
 8002b9c:	40020000 	.word	0x40020000

08002ba0 <PCD_WriteEmptyTxFifo>:
  * @param  hpcd PCD handle
  * @param  epnum endpoint number
  * @retval HAL status
  */
static HAL_StatusTypeDef PCD_WriteEmptyTxFifo(PCD_HandleTypeDef *hpcd, uint32_t epnum)
{
 8002ba0:	e92d 43f0 	stmdb	sp!, {r4, r5, r6, r7, r8, r9, lr}
 8002ba4:	b083      	sub	sp, #12
  USB_OTG_GlobalTypeDef *USBx = hpcd->Instance;
 8002ba6:	f8d0 8000 	ldr.w	r8, [r0]
  uint32_t len32b;
  uint32_t fifoemptymsk;

  ep = &hpcd->IN_ep[epnum];

  if (ep->xfer_count > ep->xfer_len)
 8002baa:	eb01 03c1 	add.w	r3, r1, r1, lsl #3
 8002bae:	eb00 0383 	add.w	r3, r0, r3, lsl #2
 8002bb2:	6a9a      	ldr	r2, [r3, #40]	@ 0x28
 8002bb4:	6a5b      	ldr	r3, [r3, #36]	@ 0x24
 8002bb6:	429a      	cmp	r2, r3
 8002bb8:	d854      	bhi.n	8002c64 <PCD_WriteEmptyTxFifo+0xc4>
 8002bba:	4607      	mov	r7, r0
 8002bbc:	460c      	mov	r4, r1
  {
    return HAL_ERROR;
  }

  len = ep->xfer_len - ep->xfer_count;
 8002bbe:	1a9b      	subs	r3, r3, r2

  if (len > ep->maxpacket)
 8002bc0:	eb01 02c1 	add.w	r2, r1, r1, lsl #3
 8002bc4:	eb00 0282 	add.w	r2, r0, r2, lsl #2
 8002bc8:	69d2      	ldr	r2, [r2, #28]
 8002bca:	429a      	cmp	r2, r3
 8002bcc:	d300      	bcc.n	8002bd0 <PCD_WriteEmptyTxFifo+0x30>
  len = ep->xfer_len - ep->xfer_count;
 8002bce:	461a      	mov	r2, r3
  {
    len = ep->maxpacket;
  }

  len32b = (len + 3U) / 4U;
 8002bd0:	f102 0903 	add.w	r9, r2, #3
 8002bd4:	ea4f 0999 	mov.w	r9, r9, lsr #2

  while (((USBx_INEP(epnum)->DTXFSTS & USB_OTG_DTXFSTS_INEPTFSAV) >= len32b) &&
 8002bd8:	e015      	b.n	8002c06 <PCD_WriteEmptyTxFifo+0x66>

    if (len > ep->maxpacket)
    {
      len = ep->maxpacket;
    }
    len32b = (len + 3U) / 4U;
 8002bda:	f106 0903 	add.w	r9, r6, #3
 8002bde:	ea4f 0999 	mov.w	r9, r9, lsr #2

    (void)USB_WritePacket(USBx, ep->xfer_buff, (uint8_t)epnum, (uint16_t)len,
 8002be2:	eb04 05c4 	add.w	r5, r4, r4, lsl #3
 8002be6:	eb07 0585 	add.w	r5, r7, r5, lsl #2
 8002bea:	6a29      	ldr	r1, [r5, #32]
 8002bec:	79bb      	ldrb	r3, [r7, #6]
 8002bee:	9300      	str	r3, [sp, #0]
 8002bf0:	b2b3      	uxth	r3, r6
 8002bf2:	b2e2      	uxtb	r2, r4
 8002bf4:	4640      	mov	r0, r8
 8002bf6:	f002 f87a 	bl	8004cee <USB_WritePacket>
                          (uint8_t)hpcd->Init.dma_enable);

    ep->xfer_buff  += len;
 8002bfa:	6a2b      	ldr	r3, [r5, #32]
 8002bfc:	4433      	add	r3, r6
 8002bfe:	622b      	str	r3, [r5, #32]
    ep->xfer_count += len;
 8002c00:	6aab      	ldr	r3, [r5, #40]	@ 0x28
 8002c02:	4433      	add	r3, r6
 8002c04:	62ab      	str	r3, [r5, #40]	@ 0x28
  while (((USBx_INEP(epnum)->DTXFSTS & USB_OTG_DTXFSTS_INEPTFSAV) >= len32b) &&
 8002c06:	eb08 1344 	add.w	r3, r8, r4, lsl #5
 8002c0a:	f503 6310 	add.w	r3, r3, #2304	@ 0x900
 8002c0e:	699b      	ldr	r3, [r3, #24]
 8002c10:	b29b      	uxth	r3, r3
         (ep->xfer_count < ep->xfer_len) && (ep->xfer_len != 0U))
 8002c12:	454b      	cmp	r3, r9
 8002c14:	d312      	bcc.n	8002c3c <PCD_WriteEmptyTxFifo+0x9c>
 8002c16:	eb04 03c4 	add.w	r3, r4, r4, lsl #3
 8002c1a:	eb07 0383 	add.w	r3, r7, r3, lsl #2
 8002c1e:	6a9a      	ldr	r2, [r3, #40]	@ 0x28
 8002c20:	6a5b      	ldr	r3, [r3, #36]	@ 0x24
  while (((USBx_INEP(epnum)->DTXFSTS & USB_OTG_DTXFSTS_INEPTFSAV) >= len32b) &&
 8002c22:	429a      	cmp	r2, r3
 8002c24:	d20a      	bcs.n	8002c3c <PCD_WriteEmptyTxFifo+0x9c>
         (ep->xfer_count < ep->xfer_len) && (ep->xfer_len != 0U))
 8002c26:	b14b      	cbz	r3, 8002c3c <PCD_WriteEmptyTxFifo+0x9c>
    len = ep->xfer_len - ep->xfer_count;
 8002c28:	1a9b      	subs	r3, r3, r2
    if (len > ep->maxpacket)
 8002c2a:	eb04 02c4 	add.w	r2, r4, r4, lsl #3
 8002c2e:	eb07 0282 	add.w	r2, r7, r2, lsl #2
 8002c32:	69d6      	ldr	r6, [r2, #28]
 8002c34:	429e      	cmp	r6, r3
 8002c36:	d3d0      	bcc.n	8002bda <PCD_WriteEmptyTxFifo+0x3a>
    len = ep->xfer_len - ep->xfer_count;
 8002c38:	461e      	mov	r6, r3
 8002c3a:	e7ce      	b.n	8002bda <PCD_WriteEmptyTxFifo+0x3a>
  }

  if (ep->xfer_len <= ep->xfer_count)
 8002c3c:	eb04 03c4 	add.w	r3, r4, r4, lsl #3
 8002c40:	eb07 0783 	add.w	r7, r7, r3, lsl #2
 8002c44:	6a7a      	ldr	r2, [r7, #36]	@ 0x24
 8002c46:	6abb      	ldr	r3, [r7, #40]	@ 0x28
 8002c48:	429a      	cmp	r2, r3
 8002c4a:	d80f      	bhi.n	8002c6c <PCD_WriteEmptyTxFifo+0xcc>
  {
    fifoemptymsk = (uint32_t)(0x1UL << (epnum & EP_ADDR_MSK));
 8002c4c:	f004 040f 	and.w	r4, r4, #15
 8002c50:	2201      	movs	r2, #1
 8002c52:	40a2      	lsls	r2, r4
    USBx_DEVICE->DIEPEMPMSK &= ~fifoemptymsk;
 8002c54:	f8d8 3834 	ldr.w	r3, [r8, #2100]	@ 0x834
 8002c58:	ea23 0302 	bic.w	r3, r3, r2
 8002c5c:	f8c8 3834 	str.w	r3, [r8, #2100]	@ 0x834
  }

  return HAL_OK;
 8002c60:	2000      	movs	r0, #0
 8002c62:	e000      	b.n	8002c66 <PCD_WriteEmptyTxFifo+0xc6>
    return HAL_ERROR;
 8002c64:	2001      	movs	r0, #1
}
 8002c66:	b003      	add	sp, #12
 8002c68:	e8bd 83f0 	ldmia.w	sp!, {r4, r5, r6, r7, r8, r9, pc}
  return HAL_OK;
 8002c6c:	2000      	movs	r0, #0
 8002c6e:	e7fa      	b.n	8002c66 <PCD_WriteEmptyTxFifo+0xc6>

08002c70 <HAL_PCD_Init>:
{
 8002c70:	b530      	push	{r4, r5, lr}
 8002c72:	b083      	sub	sp, #12
  if (hpcd == NULL)
 8002c74:	2800      	cmp	r0, #0
 8002c76:	d07d      	beq.n	8002d74 <HAL_PCD_Init+0x104>
 8002c78:	4604      	mov	r4, r0
  USBx = hpcd->Instance;
 8002c7a:	6803      	ldr	r3, [r0, #0]
 8002c7c:	461d      	mov	r5, r3
  if (hpcd->State == HAL_PCD_STATE_RESET)
 8002c7e:	f890 3495 	ldrb.w	r3, [r0, #1173]	@ 0x495
 8002c82:	b1cb      	cbz	r3, 8002cb8 <HAL_PCD_Init+0x48>
  hpcd->State = HAL_PCD_STATE_BUSY;
 8002c84:	2303      	movs	r3, #3
 8002c86:	f884 3495 	strb.w	r3, [r4, #1173]	@ 0x495
  if (USBx == USB_OTG_FS)
 8002c8a:	f1b5 4fa0 	cmp.w	r5, #1342177280	@ 0x50000000
 8002c8e:	d018      	beq.n	8002cc2 <HAL_PCD_Init+0x52>
  __HAL_PCD_DISABLE(hpcd);
 8002c90:	6820      	ldr	r0, [r4, #0]
 8002c92:	f001 fe97 	bl	80049c4 <USB_DisableGlobalInt>
  if (USB_CoreInit(hpcd->Instance, hpcd->Init) != HAL_OK)
 8002c96:	7c23      	ldrb	r3, [r4, #16]
 8002c98:	f88d 3000 	strb.w	r3, [sp]
 8002c9c:	1d23      	adds	r3, r4, #4
 8002c9e:	cb0e      	ldmia	r3, {r1, r2, r3}
 8002ca0:	6820      	ldr	r0, [r4, #0]
 8002ca2:	f001 fdd3 	bl	800484c <USB_CoreInit>
 8002ca6:	b178      	cbz	r0, 8002cc8 <HAL_PCD_Init+0x58>
    hpcd->State = HAL_PCD_STATE_ERROR;
 8002ca8:	2302      	movs	r3, #2
 8002caa:	f884 3495 	strb.w	r3, [r4, #1173]	@ 0x495
    return HAL_ERROR;
 8002cae:	2301      	movs	r3, #1
 8002cb0:	461d      	mov	r5, r3
}
 8002cb2:	4628      	mov	r0, r5
 8002cb4:	b003      	add	sp, #12
 8002cb6:	bd30      	pop	{r4, r5, pc}
    hpcd->Lock = HAL_UNLOCKED;
 8002cb8:	f880 3494 	strb.w	r3, [r0, #1172]	@ 0x494
    HAL_PCD_MspInit(hpcd);
 8002cbc:	f7ff ff26 	bl	8002b0c <HAL_PCD_MspInit>
 8002cc0:	e7e0      	b.n	8002c84 <HAL_PCD_Init+0x14>
    hpcd->Init.dma_enable = 0U;
 8002cc2:	2300      	movs	r3, #0
 8002cc4:	71a3      	strb	r3, [r4, #6]
 8002cc6:	e7e3      	b.n	8002c90 <HAL_PCD_Init+0x20>
  if (USB_SetCurrentMode(hpcd->Instance, USB_DEVICE_MODE) != HAL_OK)
 8002cc8:	4601      	mov	r1, r0
 8002cca:	6820      	ldr	r0, [r4, #0]
 8002ccc:	f002 f88a 	bl	8004de4 <USB_SetCurrentMode>
 8002cd0:	4602      	mov	r2, r0
 8002cd2:	b9b8      	cbnz	r0, 8002d04 <HAL_PCD_Init+0x94>
  for (i = 0U; i < hpcd->Init.dev_endpoints; i++)
 8002cd4:	4603      	mov	r3, r0
 8002cd6:	7920      	ldrb	r0, [r4, #4]
 8002cd8:	4298      	cmp	r0, r3
 8002cda:	d919      	bls.n	8002d10 <HAL_PCD_Init+0xa0>
    hpcd->IN_ep[i].is_in = 1U;
 8002cdc:	eb03 01c3 	add.w	r1, r3, r3, lsl #3
 8002ce0:	eb04 0181 	add.w	r1, r4, r1, lsl #2
 8002ce4:	2001      	movs	r0, #1
 8002ce6:	7548      	strb	r0, [r1, #21]
    hpcd->IN_ep[i].num = i;
 8002ce8:	750b      	strb	r3, [r1, #20]
    hpcd->IN_ep[i].tx_fifo_num = i;
 8002cea:	85cb      	strh	r3, [r1, #46]	@ 0x2e
    hpcd->IN_ep[i].type = EP_TYPE_CTRL;
 8002cec:	2000      	movs	r0, #0
 8002cee:	7608      	strb	r0, [r1, #24]
    hpcd->IN_ep[i].maxpacket = 0U;
 8002cf0:	61c8      	str	r0, [r1, #28]
    hpcd->IN_ep[i].xfer_buff = 0U;
 8002cf2:	6208      	str	r0, [r1, #32]
    hpcd->IN_ep[i].xfer_len = 0U;
 8002cf4:	eb03 01c3 	add.w	r1, r3, r3, lsl #3
 8002cf8:	eb04 0181 	add.w	r1, r4, r1, lsl #2
 8002cfc:	6248      	str	r0, [r1, #36]	@ 0x24
  for (i = 0U; i < hpcd->Init.dev_endpoints; i++)
 8002cfe:	3301      	adds	r3, #1
 8002d00:	b2db      	uxtb	r3, r3
 8002d02:	e7e8      	b.n	8002cd6 <HAL_PCD_Init+0x66>
    hpcd->State = HAL_PCD_STATE_ERROR;
 8002d04:	2302      	movs	r3, #2
 8002d06:	f884 3495 	strb.w	r3, [r4, #1173]	@ 0x495
    return HAL_ERROR;
 8002d0a:	2301      	movs	r3, #1
 8002d0c:	461d      	mov	r5, r3
 8002d0e:	e7d0      	b.n	8002cb2 <HAL_PCD_Init+0x42>
  for (i = 0U; i < hpcd->Init.dev_endpoints; i++)
 8002d10:	4290      	cmp	r0, r2
 8002d12:	d917      	bls.n	8002d44 <HAL_PCD_Init+0xd4>
    hpcd->OUT_ep[i].is_in = 0U;
 8002d14:	eb02 03c2 	add.w	r3, r2, r2, lsl #3
 8002d18:	eb04 0383 	add.w	r3, r4, r3, lsl #2
 8002d1c:	2100      	movs	r1, #0
 8002d1e:	f883 1255 	strb.w	r1, [r3, #597]	@ 0x255
    hpcd->OUT_ep[i].num = i;
 8002d22:	f883 2254 	strb.w	r2, [r3, #596]	@ 0x254
    hpcd->OUT_ep[i].type = EP_TYPE_CTRL;
 8002d26:	f883 1258 	strb.w	r1, [r3, #600]	@ 0x258
    hpcd->OUT_ep[i].maxpacket = 0U;
 8002d2a:	f8c3 125c 	str.w	r1, [r3, #604]	@ 0x25c
    hpcd->OUT_ep[i].xfer_buff = 0U;
 8002d2e:	f8c3 1260 	str.w	r1, [r3, #608]	@ 0x260
    hpcd->OUT_ep[i].xfer_len = 0U;
 8002d32:	eb02 03c2 	add.w	r3, r2, r2, lsl #3
 8002d36:	eb04 0383 	add.w	r3, r4, r3, lsl #2
 8002d3a:	f8c3 1264 	str.w	r1, [r3, #612]	@ 0x264
  for (i = 0U; i < hpcd->Init.dev_endpoints; i++)
 8002d3e:	3201      	adds	r2, #1
 8002d40:	b2d2      	uxtb	r2, r2
 8002d42:	e7e5      	b.n	8002d10 <HAL_PCD_Init+0xa0>
  if (USB_DevInit(hpcd->Instance, hpcd->Init) != HAL_OK)
 8002d44:	7c23      	ldrb	r3, [r4, #16]
 8002d46:	f88d 3000 	strb.w	r3, [sp]
 8002d4a:	1d23      	adds	r3, r4, #4
 8002d4c:	cb0e      	ldmia	r3, {r1, r2, r3}
 8002d4e:	6820      	ldr	r0, [r4, #0]
 8002d50:	f001 fe8e 	bl	8004a70 <USB_DevInit>
 8002d54:	4605      	mov	r5, r0
 8002d56:	b128      	cbz	r0, 8002d64 <HAL_PCD_Init+0xf4>
    hpcd->State = HAL_PCD_STATE_ERROR;
 8002d58:	2302      	movs	r3, #2
 8002d5a:	f884 3495 	strb.w	r3, [r4, #1173]	@ 0x495
    return HAL_ERROR;
 8002d5e:	2301      	movs	r3, #1
 8002d60:	461d      	mov	r5, r3
 8002d62:	e7a6      	b.n	8002cb2 <HAL_PCD_Init+0x42>
  hpcd->USB_Address = 0U;
 8002d64:	7460      	strb	r0, [r4, #17]
  hpcd->State = HAL_PCD_STATE_READY;
 8002d66:	2301      	movs	r3, #1
 8002d68:	f884 3495 	strb.w	r3, [r4, #1173]	@ 0x495
  (void)USB_DevDisconnect(hpcd->Instance);
 8002d6c:	6820      	ldr	r0, [r4, #0]
 8002d6e:	f001 fff8 	bl	8004d62 <USB_DevDisconnect>
  return HAL_OK;
 8002d72:	e79e      	b.n	8002cb2 <HAL_PCD_Init+0x42>
    return HAL_ERROR;
 8002d74:	2301      	movs	r3, #1
 8002d76:	461d      	mov	r5, r3
 8002d78:	e79b      	b.n	8002cb2 <HAL_PCD_Init+0x42>

08002d7a <HAL_PCD_DataOutStageCallback>:
}
 8002d7a:	4770      	bx	lr

08002d7c <PCD_EP_OutXfrComplete_int>:
  * @param  hpcd PCD handle
  * @param  epnum endpoint number
  * @retval HAL status
  */
static HAL_StatusTypeDef PCD_EP_OutXfrComplete_int(PCD_HandleTypeDef *hpcd, uint32_t epnum)
{
 8002d7c:	b538      	push	{r3, r4, r5, lr}
 8002d7e:	4604      	mov	r4, r0
 8002d80:	460d      	mov	r5, r1
  USB_OTG_EPTypeDef *ep;
  const USB_OTG_GlobalTypeDef *USBx = hpcd->Instance;
 8002d82:	6800      	ldr	r0, [r0, #0]
  uint32_t USBx_BASE = (uint32_t)USBx;
  uint32_t gSNPSiD = *(__IO const uint32_t *)(&USBx->CID + 0x1U);
 8002d84:	f8d0 c040 	ldr.w	ip, [r0, #64]	@ 0x40
  uint32_t DoepintReg = USBx_OUTEP(epnum)->DOEPINT;
 8002d88:	eb00 1341 	add.w	r3, r0, r1, lsl #5
 8002d8c:	f503 6330 	add.w	r3, r3, #2816	@ 0xb00
 8002d90:	689a      	ldr	r2, [r3, #8]

  if (hpcd->Init.dma_enable == 1U)
 8002d92:	79a1      	ldrb	r1, [r4, #6]
 8002d94:	2901      	cmp	r1, #1
 8002d96:	d011      	beq.n	8002dbc <PCD_EP_OutXfrComplete_int+0x40>
      /* ... */
    }
  }
  else
  {
    if (gSNPSiD == USB_OTG_CORE_ID_310A)
 8002d98:	4938      	ldr	r1, [pc, #224]	@ (8002e7c <PCD_EP_OutXfrComplete_int+0x100>)
 8002d9a:	458c      	cmp	ip, r1
 8002d9c:	d056      	beq.n	8002e4c <PCD_EP_OutXfrComplete_int+0xd0>
#endif /* USE_HAL_PCD_REGISTER_CALLBACKS */
      }
    }
    else
    {
      if ((epnum == 0U) && (hpcd->OUT_ep[epnum].xfer_len == 0U))
 8002d9e:	b93d      	cbnz	r5, 8002db0 <PCD_EP_OutXfrComplete_int+0x34>
 8002da0:	eb05 03c5 	add.w	r3, r5, r5, lsl #3
 8002da4:	eb04 0383 	add.w	r3, r4, r3, lsl #2
 8002da8:	f8d3 3264 	ldr.w	r3, [r3, #612]	@ 0x264
 8002dac:	2b00      	cmp	r3, #0
 8002dae:	d05e      	beq.n	8002e6e <PCD_EP_OutXfrComplete_int+0xf2>
      }

#if (USE_HAL_PCD_REGISTER_CALLBACKS == 1U)
      hpcd->DataOutStageCallback(hpcd, (uint8_t)epnum);
#else
      HAL_PCD_DataOutStageCallback(hpcd, (uint8_t)epnum);
 8002db0:	b2e9      	uxtb	r1, r5
 8002db2:	4620      	mov	r0, r4
 8002db4:	f7ff ffe1 	bl	8002d7a <HAL_PCD_DataOutStageCallback>
#endif /* USE_HAL_PCD_REGISTER_CALLBACKS */
    }
  }

  return HAL_OK;
}
 8002db8:	2000      	movs	r0, #0
 8002dba:	bd38      	pop	{r3, r4, r5, pc}
    if ((DoepintReg & USB_OTG_DOEPINT_STUP) == USB_OTG_DOEPINT_STUP) /* Class C */
 8002dbc:	f012 0f08 	tst.w	r2, #8
 8002dc0:	d009      	beq.n	8002dd6 <PCD_EP_OutXfrComplete_int+0x5a>
      if ((gSNPSiD > USB_OTG_CORE_ID_300A) &&
 8002dc2:	492f      	ldr	r1, [pc, #188]	@ (8002e80 <PCD_EP_OutXfrComplete_int+0x104>)
 8002dc4:	458c      	cmp	ip, r1
 8002dc6:	d9f7      	bls.n	8002db8 <PCD_EP_OutXfrComplete_int+0x3c>
 8002dc8:	f412 4f00 	tst.w	r2, #32768	@ 0x8000
 8002dcc:	d0f4      	beq.n	8002db8 <PCD_EP_OutXfrComplete_int+0x3c>
        CLEAR_OUT_EP_INTR(epnum, USB_OTG_DOEPINT_STPKTRX);
 8002dce:	f44f 4200 	mov.w	r2, #32768	@ 0x8000
 8002dd2:	609a      	str	r2, [r3, #8]
 8002dd4:	e7f0      	b.n	8002db8 <PCD_EP_OutXfrComplete_int+0x3c>
    else if ((DoepintReg & USB_OTG_DOEPINT_OTEPSPR) == USB_OTG_DOEPINT_OTEPSPR) /* Class E */
 8002dd6:	f012 0f20 	tst.w	r2, #32
 8002dda:	d002      	beq.n	8002de2 <PCD_EP_OutXfrComplete_int+0x66>
      CLEAR_OUT_EP_INTR(epnum, USB_OTG_DOEPINT_OTEPSPR);
 8002ddc:	2220      	movs	r2, #32
 8002dde:	609a      	str	r2, [r3, #8]
 8002de0:	e7ea      	b.n	8002db8 <PCD_EP_OutXfrComplete_int+0x3c>
    else if ((DoepintReg & (USB_OTG_DOEPINT_STUP | USB_OTG_DOEPINT_OTEPSPR)) == 0U)
 8002de2:	f012 0f28 	tst.w	r2, #40	@ 0x28
 8002de6:	d1e7      	bne.n	8002db8 <PCD_EP_OutXfrComplete_int+0x3c>
      if ((gSNPSiD > USB_OTG_CORE_ID_300A) &&
 8002de8:	4925      	ldr	r1, [pc, #148]	@ (8002e80 <PCD_EP_OutXfrComplete_int+0x104>)
 8002dea:	458c      	cmp	ip, r1
 8002dec:	d906      	bls.n	8002dfc <PCD_EP_OutXfrComplete_int+0x80>
 8002dee:	f412 4f00 	tst.w	r2, #32768	@ 0x8000
 8002df2:	d003      	beq.n	8002dfc <PCD_EP_OutXfrComplete_int+0x80>
        CLEAR_OUT_EP_INTR(epnum, USB_OTG_DOEPINT_STPKTRX);
 8002df4:	f44f 4200 	mov.w	r2, #32768	@ 0x8000
 8002df8:	609a      	str	r2, [r3, #8]
 8002dfa:	e7dd      	b.n	8002db8 <PCD_EP_OutXfrComplete_int+0x3c>
        ep->xfer_count = ep->xfer_size - (USBx_OUTEP(epnum)->DOEPTSIZ & USB_OTG_DOEPTSIZ_XFRSIZ);
 8002dfc:	eb05 02c5 	add.w	r2, r5, r5, lsl #3
 8002e00:	eb04 0282 	add.w	r2, r4, r2, lsl #2
 8002e04:	f8d2 1274 	ldr.w	r1, [r2, #628]	@ 0x274
 8002e08:	691b      	ldr	r3, [r3, #16]
 8002e0a:	f3c3 0312 	ubfx	r3, r3, #0, #19
 8002e0e:	1acb      	subs	r3, r1, r3
 8002e10:	f8c2 3268 	str.w	r3, [r2, #616]	@ 0x268
        if (epnum == 0U)
 8002e14:	b97d      	cbnz	r5, 8002e36 <PCD_EP_OutXfrComplete_int+0xba>
          if (ep->xfer_len == 0U)
 8002e16:	eb05 02c5 	add.w	r2, r5, r5, lsl #3
 8002e1a:	eb04 0282 	add.w	r2, r4, r2, lsl #2
 8002e1e:	f8d2 2264 	ldr.w	r2, [r2, #612]	@ 0x264
 8002e22:	b16a      	cbz	r2, 8002e40 <PCD_EP_OutXfrComplete_int+0xc4>
            ep->xfer_buff += ep->xfer_count;
 8002e24:	eb05 02c5 	add.w	r2, r5, r5, lsl #3
 8002e28:	eb04 0282 	add.w	r2, r4, r2, lsl #2
 8002e2c:	f8d2 1260 	ldr.w	r1, [r2, #608]	@ 0x260
 8002e30:	4419      	add	r1, r3
 8002e32:	f8c2 1260 	str.w	r1, [r2, #608]	@ 0x260
        HAL_PCD_DataOutStageCallback(hpcd, (uint8_t)epnum);
 8002e36:	b2e9      	uxtb	r1, r5
 8002e38:	4620      	mov	r0, r4
 8002e3a:	f7ff ff9e 	bl	8002d7a <HAL_PCD_DataOutStageCallback>
 8002e3e:	e7bb      	b.n	8002db8 <PCD_EP_OutXfrComplete_int+0x3c>
            (void)USB_EP0_OutStart(hpcd->Instance, 1U, (uint8_t *)hpcd->Setup);
 8002e40:	f204 429c 	addw	r2, r4, #1180	@ 0x49c
 8002e44:	2101      	movs	r1, #1
 8002e46:	f002 f80d 	bl	8004e64 <USB_EP0_OutStart>
 8002e4a:	e7f4      	b.n	8002e36 <PCD_EP_OutXfrComplete_int+0xba>
      if ((DoepintReg & USB_OTG_DOEPINT_STPKTRX) == USB_OTG_DOEPINT_STPKTRX)
 8002e4c:	f412 4f00 	tst.w	r2, #32768	@ 0x8000
 8002e50:	d003      	beq.n	8002e5a <PCD_EP_OutXfrComplete_int+0xde>
        CLEAR_OUT_EP_INTR(epnum, USB_OTG_DOEPINT_STPKTRX);
 8002e52:	f44f 4200 	mov.w	r2, #32768	@ 0x8000
 8002e56:	609a      	str	r2, [r3, #8]
 8002e58:	e7ae      	b.n	8002db8 <PCD_EP_OutXfrComplete_int+0x3c>
        if ((DoepintReg & USB_OTG_DOEPINT_OTEPSPR) == USB_OTG_DOEPINT_OTEPSPR)
 8002e5a:	f012 0f20 	tst.w	r2, #32
 8002e5e:	d001      	beq.n	8002e64 <PCD_EP_OutXfrComplete_int+0xe8>
          CLEAR_OUT_EP_INTR(epnum, USB_OTG_DOEPINT_OTEPSPR);
 8002e60:	2220      	movs	r2, #32
 8002e62:	609a      	str	r2, [r3, #8]
        HAL_PCD_DataOutStageCallback(hpcd, (uint8_t)epnum);
 8002e64:	b2e9      	uxtb	r1, r5
 8002e66:	4620      	mov	r0, r4
 8002e68:	f7ff ff87 	bl	8002d7a <HAL_PCD_DataOutStageCallback>
 8002e6c:	e7a4      	b.n	8002db8 <PCD_EP_OutXfrComplete_int+0x3c>
        (void)USB_EP0_OutStart(hpcd->Instance, 0U, (uint8_t *)hpcd->Setup);
 8002e6e:	f204 429c 	addw	r2, r4, #1180	@ 0x49c
 8002e72:	4619      	mov	r1, r3
 8002e74:	f001 fff6 	bl	8004e64 <USB_EP0_OutStart>
 8002e78:	e79a      	b.n	8002db0 <PCD_EP_OutXfrComplete_int+0x34>
 8002e7a:	bf00      	nop
 8002e7c:	4f54310a 	.word	0x4f54310a
 8002e80:	4f54300a 	.word	0x4f54300a

08002e84 <HAL_PCD_DataInStageCallback>:
}
 8002e84:	4770      	bx	lr

08002e86 <HAL_PCD_SetupStageCallback>:
}
 8002e86:	4770      	bx	lr

08002e88 <PCD_EP_OutSetupPacket_int>:
  * @param  hpcd PCD handle
  * @param  epnum endpoint number
  * @retval HAL status
  */
static HAL_StatusTypeDef PCD_EP_OutSetupPacket_int(PCD_HandleTypeDef *hpcd, uint32_t epnum)
{
 8002e88:	b538      	push	{r3, r4, r5, lr}
 8002e8a:	4604      	mov	r4, r0
  const USB_OTG_GlobalTypeDef *USBx = hpcd->Instance;
 8002e8c:	6803      	ldr	r3, [r0, #0]
  uint32_t USBx_BASE = (uint32_t)USBx;
  uint32_t gSNPSiD = *(__IO const uint32_t *)(&USBx->CID + 0x1U);
 8002e8e:	6c1d      	ldr	r5, [r3, #64]	@ 0x40
  uint32_t DoepintReg = USBx_OUTEP(epnum)->DOEPINT;
 8002e90:	eb03 1341 	add.w	r3, r3, r1, lsl #5
 8002e94:	f8d3 1b08 	ldr.w	r1, [r3, #2824]	@ 0xb08

  if ((gSNPSiD > USB_OTG_CORE_ID_300A) &&
 8002e98:	4a0e      	ldr	r2, [pc, #56]	@ (8002ed4 <PCD_EP_OutSetupPacket_int+0x4c>)
 8002e9a:	4295      	cmp	r5, r2
 8002e9c:	d907      	bls.n	8002eae <PCD_EP_OutSetupPacket_int+0x26>
 8002e9e:	f503 6330 	add.w	r3, r3, #2816	@ 0xb00
 8002ea2:	f411 4f00 	tst.w	r1, #32768	@ 0x8000
 8002ea6:	d002      	beq.n	8002eae <PCD_EP_OutSetupPacket_int+0x26>
      ((DoepintReg & USB_OTG_DOEPINT_STPKTRX) == USB_OTG_DOEPINT_STPKTRX))
  {
    CLEAR_OUT_EP_INTR(epnum, USB_OTG_DOEPINT_STPKTRX);
 8002ea8:	f44f 4200 	mov.w	r2, #32768	@ 0x8000
 8002eac:	609a      	str	r2, [r3, #8]

  /* Inform the upper layer that a setup packet is available */
#if (USE_HAL_PCD_REGISTER_CALLBACKS == 1U)
  hpcd->SetupStageCallback(hpcd);
#else
  HAL_PCD_SetupStageCallback(hpcd);
 8002eae:	4620      	mov	r0, r4
 8002eb0:	f7ff ffe9 	bl	8002e86 <HAL_PCD_SetupStageCallback>
#endif /* USE_HAL_PCD_REGISTER_CALLBACKS */

  if ((gSNPSiD > USB_OTG_CORE_ID_300A) && (hpcd->Init.dma_enable == 1U))
 8002eb4:	4b07      	ldr	r3, [pc, #28]	@ (8002ed4 <PCD_EP_OutSetupPacket_int+0x4c>)
 8002eb6:	429d      	cmp	r5, r3
 8002eb8:	d902      	bls.n	8002ec0 <PCD_EP_OutSetupPacket_int+0x38>
 8002eba:	79a3      	ldrb	r3, [r4, #6]
 8002ebc:	2b01      	cmp	r3, #1
 8002ebe:	d001      	beq.n	8002ec4 <PCD_EP_OutSetupPacket_int+0x3c>
  {
    (void)USB_EP0_OutStart(hpcd->Instance, 1U, (uint8_t *)hpcd->Setup);
  }

  return HAL_OK;
}
 8002ec0:	2000      	movs	r0, #0
 8002ec2:	bd38      	pop	{r3, r4, r5, pc}
    (void)USB_EP0_OutStart(hpcd->Instance, 1U, (uint8_t *)hpcd->Setup);
 8002ec4:	f204 429c 	addw	r2, r4, #1180	@ 0x49c
 8002ec8:	2101      	movs	r1, #1
 8002eca:	6820      	ldr	r0, [r4, #0]
 8002ecc:	f001 ffca 	bl	8004e64 <USB_EP0_OutStart>
 8002ed0:	e7f6      	b.n	8002ec0 <PCD_EP_OutSetupPacket_int+0x38>
 8002ed2:	bf00      	nop
 8002ed4:	4f54300a 	.word	0x4f54300a

08002ed8 <HAL_PCD_SOFCallback>:
}
 8002ed8:	4770      	bx	lr

08002eda <HAL_PCD_ResetCallback>:
}
 8002eda:	4770      	bx	lr

08002edc <HAL_PCD_SuspendCallback>:
}
 8002edc:	4770      	bx	lr

08002ede <HAL_PCD_ResumeCallback>:
}
 8002ede:	4770      	bx	lr

08002ee0 <HAL_PCD_ISOOUTIncompleteCallback>:
}
 8002ee0:	4770      	bx	lr

08002ee2 <HAL_PCD_ISOINIncompleteCallback>:
}
 8002ee2:	4770      	bx	lr

08002ee4 <HAL_PCD_ConnectCallback>:
}
 8002ee4:	4770      	bx	lr

08002ee6 <HAL_PCD_DisconnectCallback>:
}
 8002ee6:	4770      	bx	lr

08002ee8 <HAL_PCD_EP_Abort>:
{
 8002ee8:	b508      	push	{r3, lr}
  if ((0x80U & ep_addr) == 0x80U)
 8002eea:	f011 0f80 	tst.w	r1, #128	@ 0x80
 8002eee:	d10c      	bne.n	8002f0a <HAL_PCD_EP_Abort+0x22>
    ep = &hpcd->OUT_ep[ep_addr & EP_ADDR_MSK];
 8002ef0:	f001 010f 	and.w	r1, r1, #15
 8002ef4:	eb01 01c1 	add.w	r1, r1, r1, lsl #3
 8002ef8:	0089      	lsls	r1, r1, #2
 8002efa:	f501 7114 	add.w	r1, r1, #592	@ 0x250
 8002efe:	4401      	add	r1, r0
 8002f00:	3104      	adds	r1, #4
  ret = USB_EPStopXfer(hpcd->Instance, ep);
 8002f02:	6800      	ldr	r0, [r0, #0]
 8002f04:	f001 fe95 	bl	8004c32 <USB_EPStopXfer>
}
 8002f08:	bd08      	pop	{r3, pc}
    ep = &hpcd->IN_ep[ep_addr & EP_ADDR_MSK];
 8002f0a:	f001 010f 	and.w	r1, r1, #15
 8002f0e:	eb01 01c1 	add.w	r1, r1, r1, lsl #3
 8002f12:	0089      	lsls	r1, r1, #2
 8002f14:	3110      	adds	r1, #16
 8002f16:	4401      	add	r1, r0
 8002f18:	3104      	adds	r1, #4
 8002f1a:	e7f2      	b.n	8002f02 <HAL_PCD_EP_Abort+0x1a>

08002f1c <HAL_PCD_IRQHandler>:
{
 8002f1c:	e92d 4ff0 	stmdb	sp!, {r4, r5, r6, r7, r8, r9, sl, fp, lr}
 8002f20:	b083      	sub	sp, #12
 8002f22:	4604      	mov	r4, r0
  USB_OTG_GlobalTypeDef *USBx = hpcd->Instance;
 8002f24:	6805      	ldr	r5, [r0, #0]
  if (USB_GetMode(hpcd->Instance) == USB_OTG_MODE_DEVICE)
 8002f26:	4628      	mov	r0, r5
 8002f28:	f001 ff58 	bl	8004ddc <USB_GetMode>
 8002f2c:	b110      	cbz	r0, 8002f34 <HAL_PCD_IRQHandler+0x18>
}
 8002f2e:	b003      	add	sp, #12
 8002f30:	e8bd 8ff0 	ldmia.w	sp!, {r4, r5, r6, r7, r8, r9, sl, fp, pc}
 8002f34:	4680      	mov	r8, r0
    if (__HAL_PCD_IS_INVALID_INTERRUPT(hpcd))
 8002f36:	6820      	ldr	r0, [r4, #0]
 8002f38:	f001 ff21 	bl	8004d7e <USB_ReadInterrupts>
 8002f3c:	2800      	cmp	r0, #0
 8002f3e:	d0f6      	beq.n	8002f2e <HAL_PCD_IRQHandler+0x12>
    hpcd->FrameNumber = (USBx_DEVICE->DSTS & USB_OTG_DSTS_FNSOF_Msk) >> USB_OTG_DSTS_FNSOF_Pos;
 8002f40:	f505 6300 	add.w	r3, r5, #2048	@ 0x800
 8002f44:	469b      	mov	fp, r3
 8002f46:	f8d5 3808 	ldr.w	r3, [r5, #2056]	@ 0x808
 8002f4a:	f3c3 230d 	ubfx	r3, r3, #8, #14
 8002f4e:	f8c4 34d4 	str.w	r3, [r4, #1236]	@ 0x4d4
    if (__HAL_PCD_GET_FLAG(hpcd, USB_OTG_GINTSTS_MMIS))
 8002f52:	6820      	ldr	r0, [r4, #0]
 8002f54:	f001 ff13 	bl	8004d7e <USB_ReadInterrupts>
 8002f58:	f010 0f02 	tst.w	r0, #2
 8002f5c:	d004      	beq.n	8002f68 <HAL_PCD_IRQHandler+0x4c>
      __HAL_PCD_CLEAR_FLAG(hpcd, USB_OTG_GINTSTS_MMIS);
 8002f5e:	6822      	ldr	r2, [r4, #0]
 8002f60:	6953      	ldr	r3, [r2, #20]
 8002f62:	f003 0302 	and.w	r3, r3, #2
 8002f66:	6153      	str	r3, [r2, #20]
    if (__HAL_PCD_GET_FLAG(hpcd, USB_OTG_GINTSTS_RXFLVL))
 8002f68:	6820      	ldr	r0, [r4, #0]
 8002f6a:	f001 ff08 	bl	8004d7e <USB_ReadInterrupts>
 8002f6e:	f010 0f10 	tst.w	r0, #16
 8002f72:	d015      	beq.n	8002fa0 <HAL_PCD_IRQHandler+0x84>
      USB_MASK_INTERRUPT(hpcd->Instance, USB_OTG_GINTSTS_RXFLVL);
 8002f74:	6822      	ldr	r2, [r4, #0]
 8002f76:	6993      	ldr	r3, [r2, #24]
 8002f78:	f023 0310 	bic.w	r3, r3, #16
 8002f7c:	6193      	str	r3, [r2, #24]
      RegVal = USBx->GRXSTSP;
 8002f7e:	6a2e      	ldr	r6, [r5, #32]
      ep = &hpcd->OUT_ep[RegVal & USB_OTG_GRXSTSP_EPNUM];
 8002f80:	f006 030f 	and.w	r3, r6, #15
 8002f84:	461f      	mov	r7, r3
      if (((RegVal & USB_OTG_GRXSTSP_PKTSTS) >> 17) ==  STS_DATA_UPDT)
 8002f86:	f406 13f0 	and.w	r3, r6, #1966080	@ 0x1e0000
 8002f8a:	f5b3 2f80 	cmp.w	r3, #262144	@ 0x40000
 8002f8e:	d04d      	beq.n	800302c <HAL_PCD_IRQHandler+0x110>
      else if (((RegVal & USB_OTG_GRXSTSP_PKTSTS) >> 17) == STS_SETUP_UPDT)
 8002f90:	f5b3 2f40 	cmp.w	r3, #786432	@ 0xc0000
 8002f94:	d070      	beq.n	8003078 <HAL_PCD_IRQHandler+0x15c>
      USB_UNMASK_INTERRUPT(hpcd->Instance, USB_OTG_GINTSTS_RXFLVL);
 8002f96:	6822      	ldr	r2, [r4, #0]
 8002f98:	6993      	ldr	r3, [r2, #24]
 8002f9a:	f043 0310 	orr.w	r3, r3, #16
 8002f9e:	6193      	str	r3, [r2, #24]
    if (__HAL_PCD_GET_FLAG(hpcd, USB_OTG_GINTSTS_OEPINT))
 8002fa0:	6820      	ldr	r0, [r4, #0]
 8002fa2:	f001 feec 	bl	8004d7e <USB_ReadInterrupts>
 8002fa6:	f410 2f00 	tst.w	r0, #524288	@ 0x80000
 8002faa:	d17b      	bne.n	80030a4 <HAL_PCD_IRQHandler+0x188>
    if (__HAL_PCD_GET_FLAG(hpcd, USB_OTG_GINTSTS_IEPINT))
 8002fac:	6820      	ldr	r0, [r4, #0]
 8002fae:	f001 fee6 	bl	8004d7e <USB_ReadInterrupts>
 8002fb2:	f410 2f80 	tst.w	r0, #262144	@ 0x40000
 8002fb6:	f040 80e6 	bne.w	8003186 <HAL_PCD_IRQHandler+0x26a>
    if (__HAL_PCD_GET_FLAG(hpcd, USB_OTG_GINTSTS_WKUINT))
 8002fba:	6820      	ldr	r0, [r4, #0]
 8002fbc:	f001 fedf 	bl	8004d7e <USB_ReadInterrupts>
 8002fc0:	2800      	cmp	r0, #0
 8002fc2:	f2c0 8169 	blt.w	8003298 <HAL_PCD_IRQHandler+0x37c>
    if (__HAL_PCD_GET_FLAG(hpcd, USB_OTG_GINTSTS_USBSUSP))
 8002fc6:	6820      	ldr	r0, [r4, #0]
 8002fc8:	f001 fed9 	bl	8004d7e <USB_ReadInterrupts>
 8002fcc:	f410 6f00 	tst.w	r0, #2048	@ 0x800
 8002fd0:	d00a      	beq.n	8002fe8 <HAL_PCD_IRQHandler+0xcc>
      if ((USBx_DEVICE->DSTS & USB_OTG_DSTS_SUSPSTS) == USB_OTG_DSTS_SUSPSTS)
 8002fd2:	f8db 3008 	ldr.w	r3, [fp, #8]
 8002fd6:	f013 0f01 	tst.w	r3, #1
 8002fda:	f040 8177 	bne.w	80032cc <HAL_PCD_IRQHandler+0x3b0>
      __HAL_PCD_CLEAR_FLAG(hpcd, USB_OTG_GINTSTS_USBSUSP);
 8002fde:	6822      	ldr	r2, [r4, #0]
 8002fe0:	6953      	ldr	r3, [r2, #20]
 8002fe2:	f403 6300 	and.w	r3, r3, #2048	@ 0x800
 8002fe6:	6153      	str	r3, [r2, #20]
    if (__HAL_PCD_GET_FLAG(hpcd, USB_OTG_GINTSTS_USBRST))
 8002fe8:	6820      	ldr	r0, [r4, #0]
 8002fea:	f001 fec8 	bl	8004d7e <USB_ReadInterrupts>
 8002fee:	f410 5f80 	tst.w	r0, #4096	@ 0x1000
 8002ff2:	f040 816f 	bne.w	80032d4 <HAL_PCD_IRQHandler+0x3b8>
    if (__HAL_PCD_GET_FLAG(hpcd, USB_OTG_GINTSTS_ENUMDNE))
 8002ff6:	6820      	ldr	r0, [r4, #0]
 8002ff8:	f001 fec1 	bl	8004d7e <USB_ReadInterrupts>
 8002ffc:	f410 5f00 	tst.w	r0, #8192	@ 0x2000
 8003000:	f040 81c8 	bne.w	8003394 <HAL_PCD_IRQHandler+0x478>
    if (__HAL_PCD_GET_FLAG(hpcd, USB_OTG_GINTSTS_SOF))
 8003004:	6820      	ldr	r0, [r4, #0]
 8003006:	f001 feba 	bl	8004d7e <USB_ReadInterrupts>
 800300a:	f010 0f08 	tst.w	r0, #8
 800300e:	f040 81d9 	bne.w	80033c4 <HAL_PCD_IRQHandler+0x4a8>
    if (__HAL_PCD_GET_FLAG(hpcd, USB_OTG_GINTSTS_BOUTNAKEFF))
 8003012:	6820      	ldr	r0, [r4, #0]
 8003014:	f001 feb3 	bl	8004d7e <USB_ReadInterrupts>
 8003018:	f010 0f80 	tst.w	r0, #128	@ 0x80
 800301c:	f000 81ec 	beq.w	80033f8 <HAL_PCD_IRQHandler+0x4dc>
      USBx->GINTMSK &= ~USB_OTG_GINTMSK_GONAKEFFM;
 8003020:	69ab      	ldr	r3, [r5, #24]
 8003022:	f023 0380 	bic.w	r3, r3, #128	@ 0x80
 8003026:	61ab      	str	r3, [r5, #24]
      for (epnum = 1U; epnum < hpcd->Init.dev_endpoints; epnum++)
 8003028:	2601      	movs	r6, #1
 800302a:	e1d5      	b.n	80033d8 <HAL_PCD_IRQHandler+0x4bc>
        if ((RegVal & USB_OTG_GRXSTSP_BCNT) != 0U)
 800302c:	f647 73f0 	movw	r3, #32752	@ 0x7ff0
 8003030:	421e      	tst	r6, r3
 8003032:	d0b0      	beq.n	8002f96 <HAL_PCD_IRQHandler+0x7a>
                               (uint16_t)((RegVal & USB_OTG_GRXSTSP_BCNT) >> 4));
 8003034:	0933      	lsrs	r3, r6, #4
 8003036:	9300      	str	r3, [sp, #0]
          (void)USB_ReadPacket(USBx, ep->xfer_buff,
 8003038:	00fa      	lsls	r2, r7, #3
 800303a:	9201      	str	r2, [sp, #4]
 800303c:	eb07 03c7 	add.w	r3, r7, r7, lsl #3
 8003040:	eb04 0183 	add.w	r1, r4, r3, lsl #2
 8003044:	f3c6 120a 	ubfx	r2, r6, #4, #11
 8003048:	460e      	mov	r6, r1
 800304a:	f8d1 1260 	ldr.w	r1, [r1, #608]	@ 0x260
 800304e:	4628      	mov	r0, r5
 8003050:	f001 fe64 	bl	8004d1c <USB_ReadPacket>
          ep->xfer_buff += (RegVal & USB_OTG_GRXSTSP_BCNT) >> 4;
 8003054:	f8d6 2260 	ldr.w	r2, [r6, #608]	@ 0x260
 8003058:	9b00      	ldr	r3, [sp, #0]
 800305a:	f3c3 030a 	ubfx	r3, r3, #0, #11
 800305e:	441a      	add	r2, r3
 8003060:	f8c6 2260 	str.w	r2, [r6, #608]	@ 0x260
          ep->xfer_count += (RegVal & USB_OTG_GRXSTSP_BCNT) >> 4;
 8003064:	f8d6 1268 	ldr.w	r1, [r6, #616]	@ 0x268
 8003068:	9a01      	ldr	r2, [sp, #4]
 800306a:	443a      	add	r2, r7
 800306c:	eb04 0282 	add.w	r2, r4, r2, lsl #2
 8003070:	440b      	add	r3, r1
 8003072:	f8c2 3268 	str.w	r3, [r2, #616]	@ 0x268
 8003076:	e78e      	b.n	8002f96 <HAL_PCD_IRQHandler+0x7a>
        (void)USB_ReadPacket(USBx, (uint8_t *)hpcd->Setup, 8U);
 8003078:	2208      	movs	r2, #8
 800307a:	f204 419c 	addw	r1, r4, #1180	@ 0x49c
 800307e:	4628      	mov	r0, r5
 8003080:	f001 fe4c 	bl	8004d1c <USB_ReadPacket>
        ep->xfer_count += (RegVal & USB_OTG_GRXSTSP_BCNT) >> 4;
 8003084:	eb07 03c7 	add.w	r3, r7, r7, lsl #3
 8003088:	eb04 0383 	add.w	r3, r4, r3, lsl #2
 800308c:	f8d3 1268 	ldr.w	r1, [r3, #616]	@ 0x268
 8003090:	f3c6 130a 	ubfx	r3, r6, #4, #11
 8003094:	eb07 02c7 	add.w	r2, r7, r7, lsl #3
 8003098:	eb04 0282 	add.w	r2, r4, r2, lsl #2
 800309c:	440b      	add	r3, r1
 800309e:	f8c2 3268 	str.w	r3, [r2, #616]	@ 0x268
 80030a2:	e778      	b.n	8002f96 <HAL_PCD_IRQHandler+0x7a>
      ep_intr = USB_ReadDevAllOutEpInterrupt(hpcd->Instance);
 80030a4:	6820      	ldr	r0, [r4, #0]
 80030a6:	f001 fe6e 	bl	8004d86 <USB_ReadDevAllOutEpInterrupt>
 80030aa:	4606      	mov	r6, r0
      epnum = 0U;
 80030ac:	4647      	mov	r7, r8
      while (ep_intr != 0U)
 80030ae:	e035      	b.n	800311c <HAL_PCD_IRQHandler+0x200>
            CLEAR_OUT_EP_INTR(epnum, USB_OTG_DOEPINT_XFRC);
 80030b0:	4639      	mov	r1, r7
 80030b2:	eb05 1347 	add.w	r3, r5, r7, lsl #5
 80030b6:	2201      	movs	r2, #1
 80030b8:	f8c3 2b08 	str.w	r2, [r3, #2824]	@ 0xb08
            (void)PCD_EP_OutXfrComplete_int(hpcd, epnum);
 80030bc:	4620      	mov	r0, r4
 80030be:	f7ff fe5d 	bl	8002d7c <PCD_EP_OutXfrComplete_int>
 80030c2:	e03b      	b.n	800313c <HAL_PCD_IRQHandler+0x220>
            CLEAR_OUT_EP_INTR(epnum, USB_OTG_DOEPINT_STUP);
 80030c4:	4639      	mov	r1, r7
 80030c6:	eb05 1347 	add.w	r3, r5, r7, lsl #5
 80030ca:	2208      	movs	r2, #8
 80030cc:	f8c3 2b08 	str.w	r2, [r3, #2824]	@ 0xb08
            (void)PCD_EP_OutSetupPacket_int(hpcd, epnum);
 80030d0:	4620      	mov	r0, r4
 80030d2:	f7ff fed9 	bl	8002e88 <PCD_EP_OutSetupPacket_int>
 80030d6:	e034      	b.n	8003142 <HAL_PCD_IRQHandler+0x226>
            if (ep->is_iso_incomplete == 1U)
 80030d8:	eb07 03c7 	add.w	r3, r7, r7, lsl #3
 80030dc:	eb04 0383 	add.w	r3, r4, r3, lsl #2
 80030e0:	f893 3257 	ldrb.w	r3, [r3, #599]	@ 0x257
 80030e4:	2b01      	cmp	r3, #1
 80030e6:	d042      	beq.n	800316e <HAL_PCD_IRQHandler+0x252>
            CLEAR_OUT_EP_INTR(epnum, USB_OTG_DOEPINT_EPDISD);
 80030e8:	eb05 1347 	add.w	r3, r5, r7, lsl #5
 80030ec:	2202      	movs	r2, #2
 80030ee:	f8c3 2b08 	str.w	r2, [r3, #2824]	@ 0xb08
          if ((epint & USB_OTG_DOEPINT_OTEPSPR) == USB_OTG_DOEPINT_OTEPSPR)
 80030f2:	f019 0f20 	tst.w	r9, #32
 80030f6:	d004      	beq.n	8003102 <HAL_PCD_IRQHandler+0x1e6>
            CLEAR_OUT_EP_INTR(epnum, USB_OTG_DOEPINT_OTEPSPR);
 80030f8:	eb05 1347 	add.w	r3, r5, r7, lsl #5
 80030fc:	2220      	movs	r2, #32
 80030fe:	f8c3 2b08 	str.w	r2, [r3, #2824]	@ 0xb08
          if ((epint & USB_OTG_DOEPINT_NAK) == USB_OTG_DOEPINT_NAK)
 8003102:	f419 5f00 	tst.w	r9, #8192	@ 0x2000
 8003106:	d005      	beq.n	8003114 <HAL_PCD_IRQHandler+0x1f8>
            CLEAR_OUT_EP_INTR(epnum, USB_OTG_DOEPINT_NAK);
 8003108:	eb05 1347 	add.w	r3, r5, r7, lsl #5
 800310c:	f44f 5200 	mov.w	r2, #8192	@ 0x2000
 8003110:	f8c3 2b08 	str.w	r2, [r3, #2824]	@ 0xb08
        epnum++;
 8003114:	463b      	mov	r3, r7
 8003116:	3301      	adds	r3, #1
 8003118:	461f      	mov	r7, r3
        ep_intr >>= 1U;
 800311a:	0876      	lsrs	r6, r6, #1
      while (ep_intr != 0U)
 800311c:	2e00      	cmp	r6, #0
 800311e:	f43f af45 	beq.w	8002fac <HAL_PCD_IRQHandler+0x90>
        if ((ep_intr & 0x1U) != 0U)
 8003122:	f016 0f01 	tst.w	r6, #1
 8003126:	d0f5      	beq.n	8003114 <HAL_PCD_IRQHandler+0x1f8>
          epint = USB_ReadDevOutEPInterrupt(hpcd->Instance, (uint8_t)epnum);
 8003128:	b2fb      	uxtb	r3, r7
 800312a:	469a      	mov	sl, r3
 800312c:	4619      	mov	r1, r3
 800312e:	6820      	ldr	r0, [r4, #0]
 8003130:	f001 fe39 	bl	8004da6 <USB_ReadDevOutEPInterrupt>
 8003134:	4681      	mov	r9, r0
          if ((epint & USB_OTG_DOEPINT_XFRC) == USB_OTG_DOEPINT_XFRC)
 8003136:	f010 0f01 	tst.w	r0, #1
 800313a:	d1b9      	bne.n	80030b0 <HAL_PCD_IRQHandler+0x194>
          if ((epint & USB_OTG_DOEPINT_STUP) == USB_OTG_DOEPINT_STUP)
 800313c:	f019 0f08 	tst.w	r9, #8
 8003140:	d1c0      	bne.n	80030c4 <HAL_PCD_IRQHandler+0x1a8>
          if ((epint & USB_OTG_DOEPINT_OTEPDIS) == USB_OTG_DOEPINT_OTEPDIS)
 8003142:	f019 0f10 	tst.w	r9, #16
 8003146:	d004      	beq.n	8003152 <HAL_PCD_IRQHandler+0x236>
            CLEAR_OUT_EP_INTR(epnum, USB_OTG_DOEPINT_OTEPDIS);
 8003148:	eb05 1347 	add.w	r3, r5, r7, lsl #5
 800314c:	2210      	movs	r2, #16
 800314e:	f8c3 2b08 	str.w	r2, [r3, #2824]	@ 0xb08
          if ((epint & USB_OTG_DOEPINT_EPDISD) == USB_OTG_DOEPINT_EPDISD)
 8003152:	f019 0f02 	tst.w	r9, #2
 8003156:	d0cc      	beq.n	80030f2 <HAL_PCD_IRQHandler+0x1d6>
            if ((USBx->GINTSTS & USB_OTG_GINTSTS_BOUTNAKEFF) == USB_OTG_GINTSTS_BOUTNAKEFF)
 8003158:	696b      	ldr	r3, [r5, #20]
 800315a:	f013 0f80 	tst.w	r3, #128	@ 0x80
 800315e:	d0bb      	beq.n	80030d8 <HAL_PCD_IRQHandler+0x1bc>
              USBx_DEVICE->DCTL |= USB_OTG_DCTL_CGONAK;
 8003160:	f8db 3004 	ldr.w	r3, [fp, #4]
 8003164:	f443 6380 	orr.w	r3, r3, #1024	@ 0x400
 8003168:	f8cb 3004 	str.w	r3, [fp, #4]
 800316c:	e7b4      	b.n	80030d8 <HAL_PCD_IRQHandler+0x1bc>
              ep->is_iso_incomplete = 0U;
 800316e:	eb07 03c7 	add.w	r3, r7, r7, lsl #3
 8003172:	eb04 0383 	add.w	r3, r4, r3, lsl #2
 8003176:	2200      	movs	r2, #0
 8003178:	f883 2257 	strb.w	r2, [r3, #599]	@ 0x257
              HAL_PCD_ISOOUTIncompleteCallback(hpcd, (uint8_t)epnum);
 800317c:	4651      	mov	r1, sl
 800317e:	4620      	mov	r0, r4
 8003180:	f7ff feae 	bl	8002ee0 <HAL_PCD_ISOOUTIncompleteCallback>
 8003184:	e7b0      	b.n	80030e8 <HAL_PCD_IRQHandler+0x1cc>
      ep_intr = USB_ReadDevAllInEpInterrupt(hpcd->Instance);
 8003186:	6820      	ldr	r0, [r4, #0]
 8003188:	f001 fe05 	bl	8004d96 <USB_ReadDevAllInEpInterrupt>
 800318c:	4606      	mov	r6, r0
      epnum = 0U;
 800318e:	46c1      	mov	r9, r8
      while (ep_intr != 0U)
 8003190:	e025      	b.n	80031de <HAL_PCD_IRQHandler+0x2c2>
            HAL_PCD_DataInStageCallback(hpcd, (uint8_t)epnum);
 8003192:	9900      	ldr	r1, [sp, #0]
 8003194:	4620      	mov	r0, r4
 8003196:	f7ff fe75 	bl	8002e84 <HAL_PCD_DataInStageCallback>
          if ((epint & USB_OTG_DIEPINT_TOC) == USB_OTG_DIEPINT_TOC)
 800319a:	f01a 0f08 	tst.w	sl, #8
 800319e:	d004      	beq.n	80031aa <HAL_PCD_IRQHandler+0x28e>
            CLEAR_IN_EP_INTR(epnum, USB_OTG_DIEPINT_TOC);
 80031a0:	eb05 1349 	add.w	r3, r5, r9, lsl #5
 80031a4:	2208      	movs	r2, #8
 80031a6:	f8c3 2908 	str.w	r2, [r3, #2312]	@ 0x908
          if ((epint & USB_OTG_DIEPINT_ITTXFE) == USB_OTG_DIEPINT_ITTXFE)
 80031aa:	f01a 0f10 	tst.w	sl, #16
 80031ae:	d004      	beq.n	80031ba <HAL_PCD_IRQHandler+0x29e>
            CLEAR_IN_EP_INTR(epnum, USB_OTG_DIEPINT_ITTXFE);
 80031b0:	eb05 1349 	add.w	r3, r5, r9, lsl #5
 80031b4:	2210      	movs	r2, #16
 80031b6:	f8c3 2908 	str.w	r2, [r3, #2312]	@ 0x908
          if ((epint & USB_OTG_DIEPINT_INEPNE) == USB_OTG_DIEPINT_INEPNE)
 80031ba:	f01a 0f40 	tst.w	sl, #64	@ 0x40
 80031be:	d004      	beq.n	80031ca <HAL_PCD_IRQHandler+0x2ae>
            CLEAR_IN_EP_INTR(epnum, USB_OTG_DIEPINT_INEPNE);
 80031c0:	eb05 1349 	add.w	r3, r5, r9, lsl #5
 80031c4:	2240      	movs	r2, #64	@ 0x40
 80031c6:	f8c3 2908 	str.w	r2, [r3, #2312]	@ 0x908
          if ((epint & USB_OTG_DIEPINT_EPDISD) == USB_OTG_DIEPINT_EPDISD)
 80031ca:	f01a 0f02 	tst.w	sl, #2
 80031ce:	d142      	bne.n	8003256 <HAL_PCD_IRQHandler+0x33a>
          if ((epint & USB_OTG_DIEPINT_TXFE) == USB_OTG_DIEPINT_TXFE)
 80031d0:	f01a 0f80 	tst.w	sl, #128	@ 0x80
 80031d4:	d15b      	bne.n	800328e <HAL_PCD_IRQHandler+0x372>
        epnum++;
 80031d6:	464b      	mov	r3, r9
 80031d8:	3301      	adds	r3, #1
 80031da:	4699      	mov	r9, r3
        ep_intr >>= 1U;
 80031dc:	0876      	lsrs	r6, r6, #1
      while (ep_intr != 0U)
 80031de:	2e00      	cmp	r6, #0
 80031e0:	f43f aeeb 	beq.w	8002fba <HAL_PCD_IRQHandler+0x9e>
        if ((ep_intr & 0x1U) != 0U) /* In ITR */
 80031e4:	f016 0f01 	tst.w	r6, #1
 80031e8:	d0f5      	beq.n	80031d6 <HAL_PCD_IRQHandler+0x2ba>
          epint = USB_ReadDevInEPInterrupt(hpcd->Instance, (uint8_t)epnum);
 80031ea:	fa5f f389 	uxtb.w	r3, r9
 80031ee:	9300      	str	r3, [sp, #0]
 80031f0:	4619      	mov	r1, r3
 80031f2:	6820      	ldr	r0, [r4, #0]
 80031f4:	f001 fde0 	bl	8004db8 <USB_ReadDevInEPInterrupt>
 80031f8:	4682      	mov	sl, r0
          if ((epint & USB_OTG_DIEPINT_XFRC) == USB_OTG_DIEPINT_XFRC)
 80031fa:	f010 0f01 	tst.w	r0, #1
 80031fe:	d0cc      	beq.n	800319a <HAL_PCD_IRQHandler+0x27e>
            fifoemptymsk = (uint32_t)(0x1UL << (epnum & EP_ADDR_MSK));
 8003200:	4648      	mov	r0, r9
 8003202:	f009 020f 	and.w	r2, r9, #15
 8003206:	2101      	movs	r1, #1
 8003208:	fa01 f202 	lsl.w	r2, r1, r2
            USBx_DEVICE->DIEPEMPMSK &= ~fifoemptymsk;
 800320c:	f8db 3034 	ldr.w	r3, [fp, #52]	@ 0x34
 8003210:	ea23 0302 	bic.w	r3, r3, r2
 8003214:	f8cb 3034 	str.w	r3, [fp, #52]	@ 0x34
            CLEAR_IN_EP_INTR(epnum, USB_OTG_DIEPINT_XFRC);
 8003218:	eb05 1349 	add.w	r3, r5, r9, lsl #5
 800321c:	f8c3 1908 	str.w	r1, [r3, #2312]	@ 0x908
            if (hpcd->Init.dma_enable == 1U)
 8003220:	79a3      	ldrb	r3, [r4, #6]
 8003222:	428b      	cmp	r3, r1
 8003224:	d1b5      	bne.n	8003192 <HAL_PCD_IRQHandler+0x276>
              hpcd->IN_ep[epnum].xfer_buff += hpcd->IN_ep[epnum].maxpacket;
 8003226:	eb09 03c9 	add.w	r3, r9, r9, lsl #3
 800322a:	eb04 0383 	add.w	r3, r4, r3, lsl #2
 800322e:	6a1a      	ldr	r2, [r3, #32]
 8003230:	69d9      	ldr	r1, [r3, #28]
 8003232:	440a      	add	r2, r1
 8003234:	621a      	str	r2, [r3, #32]
              if ((epnum == 0U) && (hpcd->IN_ep[epnum].xfer_len == 0U))
 8003236:	2800      	cmp	r0, #0
 8003238:	d1ab      	bne.n	8003192 <HAL_PCD_IRQHandler+0x276>
 800323a:	eb09 03c9 	add.w	r3, r9, r9, lsl #3
 800323e:	eb04 0383 	add.w	r3, r4, r3, lsl #2
 8003242:	6a5b      	ldr	r3, [r3, #36]	@ 0x24
 8003244:	2b00      	cmp	r3, #0
 8003246:	d1a4      	bne.n	8003192 <HAL_PCD_IRQHandler+0x276>
                (void)USB_EP0_OutStart(hpcd->Instance, 1U, (uint8_t *)hpcd->Setup);
 8003248:	f204 429c 	addw	r2, r4, #1180	@ 0x49c
 800324c:	2101      	movs	r1, #1
 800324e:	6820      	ldr	r0, [r4, #0]
 8003250:	f001 fe08 	bl	8004e64 <USB_EP0_OutStart>
 8003254:	e79d      	b.n	8003192 <HAL_PCD_IRQHandler+0x276>
            (void)USB_FlushTxFifo(USBx, epnum);
 8003256:	4649      	mov	r1, r9
 8003258:	4628      	mov	r0, r5
 800325a:	f001 fbb9 	bl	80049d0 <USB_FlushTxFifo>
            if (ep->is_iso_incomplete == 1U)
 800325e:	eb09 03c9 	add.w	r3, r9, r9, lsl #3
 8003262:	eb04 0383 	add.w	r3, r4, r3, lsl #2
 8003266:	7ddb      	ldrb	r3, [r3, #23]
 8003268:	2b01      	cmp	r3, #1
 800326a:	d005      	beq.n	8003278 <HAL_PCD_IRQHandler+0x35c>
            CLEAR_IN_EP_INTR(epnum, USB_OTG_DIEPINT_EPDISD);
 800326c:	eb05 1349 	add.w	r3, r5, r9, lsl #5
 8003270:	2202      	movs	r2, #2
 8003272:	f8c3 2908 	str.w	r2, [r3, #2312]	@ 0x908
 8003276:	e7ab      	b.n	80031d0 <HAL_PCD_IRQHandler+0x2b4>
              ep->is_iso_incomplete = 0U;
 8003278:	eb09 03c9 	add.w	r3, r9, r9, lsl #3
 800327c:	eb04 0383 	add.w	r3, r4, r3, lsl #2
 8003280:	2200      	movs	r2, #0
 8003282:	75da      	strb	r2, [r3, #23]
              HAL_PCD_ISOINIncompleteCallback(hpcd, (uint8_t)epnum);
 8003284:	9900      	ldr	r1, [sp, #0]
 8003286:	4620      	mov	r0, r4
 8003288:	f7ff fe2b 	bl	8002ee2 <HAL_PCD_ISOINIncompleteCallback>
 800328c:	e7ee      	b.n	800326c <HAL_PCD_IRQHandler+0x350>
            (void)PCD_WriteEmptyTxFifo(hpcd, epnum);
 800328e:	4649      	mov	r1, r9
 8003290:	4620      	mov	r0, r4
 8003292:	f7ff fc85 	bl	8002ba0 <PCD_WriteEmptyTxFifo>
 8003296:	e79e      	b.n	80031d6 <HAL_PCD_IRQHandler+0x2ba>
      USBx_DEVICE->DCTL &= ~USB_OTG_DCTL_RWUSIG;
 8003298:	f8db 3004 	ldr.w	r3, [fp, #4]
 800329c:	f023 0301 	bic.w	r3, r3, #1
 80032a0:	f8cb 3004 	str.w	r3, [fp, #4]
      if (hpcd->LPM_State == LPM_L1)
 80032a4:	f894 34cc 	ldrb.w	r3, [r4, #1228]	@ 0x4cc
 80032a8:	2b01      	cmp	r3, #1
 80032aa:	d008      	beq.n	80032be <HAL_PCD_IRQHandler+0x3a2>
        HAL_PCD_ResumeCallback(hpcd);
 80032ac:	4620      	mov	r0, r4
 80032ae:	f7ff fe16 	bl	8002ede <HAL_PCD_ResumeCallback>
      __HAL_PCD_CLEAR_FLAG(hpcd, USB_OTG_GINTSTS_WKUINT);
 80032b2:	6822      	ldr	r2, [r4, #0]
 80032b4:	6953      	ldr	r3, [r2, #20]
 80032b6:	f003 4300 	and.w	r3, r3, #2147483648	@ 0x80000000
 80032ba:	6153      	str	r3, [r2, #20]
 80032bc:	e683      	b.n	8002fc6 <HAL_PCD_IRQHandler+0xaa>
        hpcd->LPM_State = LPM_L0;
 80032be:	2100      	movs	r1, #0
 80032c0:	f884 14cc 	strb.w	r1, [r4, #1228]	@ 0x4cc
        HAL_PCDEx_LPM_Callback(hpcd, PCD_LPM_L0_ACTIVE);
 80032c4:	4620      	mov	r0, r4
 80032c6:	f000 f922 	bl	800350e <HAL_PCDEx_LPM_Callback>
 80032ca:	e7f2      	b.n	80032b2 <HAL_PCD_IRQHandler+0x396>
        HAL_PCD_SuspendCallback(hpcd);
 80032cc:	4620      	mov	r0, r4
 80032ce:	f7ff fe05 	bl	8002edc <HAL_PCD_SuspendCallback>
 80032d2:	e684      	b.n	8002fde <HAL_PCD_IRQHandler+0xc2>
      USBx_DEVICE->DCTL &= ~USB_OTG_DCTL_RWUSIG;
 80032d4:	f8db 3004 	ldr.w	r3, [fp, #4]
 80032d8:	f023 0301 	bic.w	r3, r3, #1
 80032dc:	f8cb 3004 	str.w	r3, [fp, #4]
      (void)USB_FlushTxFifo(hpcd->Instance, 0x10U);
 80032e0:	2110      	movs	r1, #16
 80032e2:	6820      	ldr	r0, [r4, #0]
 80032e4:	f001 fb74 	bl	80049d0 <USB_FlushTxFifo>
      for (i = 0U; i < hpcd->Init.dev_endpoints; i++)
 80032e8:	e01c      	b.n	8003324 <HAL_PCD_IRQHandler+0x408>
        USBx_INEP(i)->DIEPINT = 0xFB7FU;
 80032ea:	4640      	mov	r0, r8
 80032ec:	eb05 1348 	add.w	r3, r5, r8, lsl #5
 80032f0:	f64f 317f 	movw	r1, #64383	@ 0xfb7f
 80032f4:	f8c3 1908 	str.w	r1, [r3, #2312]	@ 0x908
        USBx_INEP(i)->DIEPCTL &= ~USB_OTG_DIEPCTL_STALL;
 80032f8:	f8d3 2900 	ldr.w	r2, [r3, #2304]	@ 0x900
 80032fc:	f422 1200 	bic.w	r2, r2, #2097152	@ 0x200000
 8003300:	f8c3 2900 	str.w	r2, [r3, #2304]	@ 0x900
        USBx_OUTEP(i)->DOEPINT = 0xFB7FU;
 8003304:	f8c3 1b08 	str.w	r1, [r3, #2824]	@ 0xb08
        USBx_OUTEP(i)->DOEPCTL &= ~USB_OTG_DOEPCTL_STALL;
 8003308:	f8d3 2b00 	ldr.w	r2, [r3, #2816]	@ 0xb00
 800330c:	f422 1200 	bic.w	r2, r2, #2097152	@ 0x200000
 8003310:	f8c3 2b00 	str.w	r2, [r3, #2816]	@ 0xb00
        USBx_OUTEP(i)->DOEPCTL |= USB_OTG_DOEPCTL_SNAK;
 8003314:	f8d3 2b00 	ldr.w	r2, [r3, #2816]	@ 0xb00
 8003318:	f042 6200 	orr.w	r2, r2, #134217728	@ 0x8000000
 800331c:	f8c3 2b00 	str.w	r2, [r3, #2816]	@ 0xb00
      for (i = 0U; i < hpcd->Init.dev_endpoints; i++)
 8003320:	1c43      	adds	r3, r0, #1
 8003322:	4698      	mov	r8, r3
 8003324:	7923      	ldrb	r3, [r4, #4]
 8003326:	4543      	cmp	r3, r8
 8003328:	d8df      	bhi.n	80032ea <HAL_PCD_IRQHandler+0x3ce>
      USBx_DEVICE->DAINTMSK |= 0x10001U;
 800332a:	f8db 301c 	ldr.w	r3, [fp, #28]
 800332e:	f043 1301 	orr.w	r3, r3, #65537	@ 0x10001
 8003332:	f8cb 301c 	str.w	r3, [fp, #28]
      if (hpcd->Init.use_dedicated_ep1 != 0U)
 8003336:	7be3      	ldrb	r3, [r4, #15]
 8003338:	b1eb      	cbz	r3, 8003376 <HAL_PCD_IRQHandler+0x45a>
        USBx_DEVICE->DOUTEP1MSK |= USB_OTG_DOEPMSK_STUPM |
 800333a:	f8db 3084 	ldr.w	r3, [fp, #132]	@ 0x84
 800333e:	f043 030b 	orr.w	r3, r3, #11
 8003342:	f8cb 3084 	str.w	r3, [fp, #132]	@ 0x84
        USBx_DEVICE->DINEP1MSK |= USB_OTG_DIEPMSK_TOM |
 8003346:	f8db 3044 	ldr.w	r3, [fp, #68]	@ 0x44
 800334a:	f043 030b 	orr.w	r3, r3, #11
 800334e:	f8cb 3044 	str.w	r3, [fp, #68]	@ 0x44
      USBx_DEVICE->DCFG &= ~USB_OTG_DCFG_DAD;
 8003352:	f8d5 3800 	ldr.w	r3, [r5, #2048]	@ 0x800
 8003356:	f423 63fe 	bic.w	r3, r3, #2032	@ 0x7f0
 800335a:	f8c5 3800 	str.w	r3, [r5, #2048]	@ 0x800
      (void)USB_EP0_OutStart(hpcd->Instance, (uint8_t)hpcd->Init.dma_enable,
 800335e:	f204 429c 	addw	r2, r4, #1180	@ 0x49c
 8003362:	79a1      	ldrb	r1, [r4, #6]
 8003364:	6820      	ldr	r0, [r4, #0]
 8003366:	f001 fd7d 	bl	8004e64 <USB_EP0_OutStart>
      __HAL_PCD_CLEAR_FLAG(hpcd, USB_OTG_GINTSTS_USBRST);
 800336a:	6822      	ldr	r2, [r4, #0]
 800336c:	6953      	ldr	r3, [r2, #20]
 800336e:	f403 5380 	and.w	r3, r3, #4096	@ 0x1000
 8003372:	6153      	str	r3, [r2, #20]
 8003374:	e63f      	b.n	8002ff6 <HAL_PCD_IRQHandler+0xda>
        USBx_DEVICE->DOEPMSK |= USB_OTG_DOEPMSK_STUPM |
 8003376:	f8db 3014 	ldr.w	r3, [fp, #20]
 800337a:	f443 5300 	orr.w	r3, r3, #8192	@ 0x2000
 800337e:	f043 032b 	orr.w	r3, r3, #43	@ 0x2b
 8003382:	f8cb 3014 	str.w	r3, [fp, #20]
        USBx_DEVICE->DIEPMSK |= USB_OTG_DIEPMSK_TOM |
 8003386:	f8db 3010 	ldr.w	r3, [fp, #16]
 800338a:	f043 030b 	orr.w	r3, r3, #11
 800338e:	f8cb 3010 	str.w	r3, [fp, #16]
 8003392:	e7de      	b.n	8003352 <HAL_PCD_IRQHandler+0x436>
      (void)USB_ActivateSetup(hpcd->Instance);
 8003394:	6820      	ldr	r0, [r4, #0]
 8003396:	f001 fd56 	bl	8004e46 <USB_ActivateSetup>
      hpcd->Init.speed = USB_GetDevSpeed(hpcd->Instance);
 800339a:	6820      	ldr	r0, [r4, #0]
 800339c:	f001 fc38 	bl	8004c10 <USB_GetDevSpeed>
 80033a0:	71e0      	strb	r0, [r4, #7]
      (void)USB_SetTurnaroundTime(hpcd->Instance,
 80033a2:	6826      	ldr	r6, [r4, #0]
 80033a4:	f000 fbd0 	bl	8003b48 <HAL_RCC_GetHCLKFreq>
 80033a8:	4601      	mov	r1, r0
 80033aa:	79e2      	ldrb	r2, [r4, #7]
 80033ac:	4630      	mov	r0, r6
 80033ae:	f001 fa97 	bl	80048e0 <USB_SetTurnaroundTime>
      HAL_PCD_ResetCallback(hpcd);
 80033b2:	4620      	mov	r0, r4
 80033b4:	f7ff fd91 	bl	8002eda <HAL_PCD_ResetCallback>
      __HAL_PCD_CLEAR_FLAG(hpcd, USB_OTG_GINTSTS_ENUMDNE);
 80033b8:	6822      	ldr	r2, [r4, #0]
 80033ba:	6953      	ldr	r3, [r2, #20]
 80033bc:	f403 5300 	and.w	r3, r3, #8192	@ 0x2000
 80033c0:	6153      	str	r3, [r2, #20]
 80033c2:	e61f      	b.n	8003004 <HAL_PCD_IRQHandler+0xe8>
      HAL_PCD_SOFCallback(hpcd);
 80033c4:	4620      	mov	r0, r4
 80033c6:	f7ff fd87 	bl	8002ed8 <HAL_PCD_SOFCallback>
      __HAL_PCD_CLEAR_FLAG(hpcd, USB_OTG_GINTSTS_SOF);
 80033ca:	6822      	ldr	r2, [r4, #0]
 80033cc:	6953      	ldr	r3, [r2, #20]
 80033ce:	f003 0308 	and.w	r3, r3, #8
 80033d2:	6153      	str	r3, [r2, #20]
 80033d4:	e61d      	b.n	8003012 <HAL_PCD_IRQHandler+0xf6>
      for (epnum = 1U; epnum < hpcd->Init.dev_endpoints; epnum++)
 80033d6:	3601      	adds	r6, #1
 80033d8:	7923      	ldrb	r3, [r4, #4]
 80033da:	42b3      	cmp	r3, r6
 80033dc:	d90c      	bls.n	80033f8 <HAL_PCD_IRQHandler+0x4dc>
        if (hpcd->OUT_ep[epnum].is_iso_incomplete == 1U)
 80033de:	eb06 03c6 	add.w	r3, r6, r6, lsl #3
 80033e2:	eb04 0383 	add.w	r3, r4, r3, lsl #2
 80033e6:	f893 3257 	ldrb.w	r3, [r3, #599]	@ 0x257
 80033ea:	2b01      	cmp	r3, #1
 80033ec:	d1f3      	bne.n	80033d6 <HAL_PCD_IRQHandler+0x4ba>
          (void)HAL_PCD_EP_Abort(hpcd, (uint8_t)epnum);
 80033ee:	b2f1      	uxtb	r1, r6
 80033f0:	4620      	mov	r0, r4
 80033f2:	f7ff fd79 	bl	8002ee8 <HAL_PCD_EP_Abort>
 80033f6:	e7ee      	b.n	80033d6 <HAL_PCD_IRQHandler+0x4ba>
    if (__HAL_PCD_GET_FLAG(hpcd, USB_OTG_GINTSTS_IISOIXFR))
 80033f8:	6820      	ldr	r0, [r4, #0]
 80033fa:	f001 fcc0 	bl	8004d7e <USB_ReadInterrupts>
 80033fe:	f410 1f80 	tst.w	r0, #1048576	@ 0x100000
 8003402:	d125      	bne.n	8003450 <HAL_PCD_IRQHandler+0x534>
    if (__HAL_PCD_GET_FLAG(hpcd, USB_OTG_GINTSTS_PXFR_INCOMPISOOUT))
 8003404:	6820      	ldr	r0, [r4, #0]
 8003406:	f001 fcba 	bl	8004d7e <USB_ReadInterrupts>
 800340a:	f410 1f00 	tst.w	r0, #2097152	@ 0x200000
 800340e:	d05a      	beq.n	80034c6 <HAL_PCD_IRQHandler+0x5aa>
      for (epnum = 1U; epnum < hpcd->Init.dev_endpoints; epnum++)
 8003410:	2301      	movs	r3, #1
 8003412:	e026      	b.n	8003462 <HAL_PCD_IRQHandler+0x546>
      for (epnum = 1U; epnum < hpcd->Init.dev_endpoints; epnum++)
 8003414:	3601      	adds	r6, #1
 8003416:	7923      	ldrb	r3, [r4, #4]
 8003418:	42b3      	cmp	r3, r6
 800341a:	d91b      	bls.n	8003454 <HAL_PCD_IRQHandler+0x538>
        RegVal = USBx_INEP(epnum)->DIEPCTL;
 800341c:	eb05 1346 	add.w	r3, r5, r6, lsl #5
 8003420:	f8d3 2900 	ldr.w	r2, [r3, #2304]	@ 0x900
        if ((hpcd->IN_ep[epnum].type == EP_TYPE_ISOC) &&
 8003424:	eb06 03c6 	add.w	r3, r6, r6, lsl #3
 8003428:	eb04 0383 	add.w	r3, r4, r3, lsl #2
 800342c:	7e1b      	ldrb	r3, [r3, #24]
 800342e:	2b01      	cmp	r3, #1
 8003430:	d1f0      	bne.n	8003414 <HAL_PCD_IRQHandler+0x4f8>
 8003432:	2a00      	cmp	r2, #0
 8003434:	daee      	bge.n	8003414 <HAL_PCD_IRQHandler+0x4f8>
          hpcd->IN_ep[epnum].is_iso_incomplete = 1U;
 8003436:	eb06 03c6 	add.w	r3, r6, r6, lsl #3
 800343a:	eb04 0383 	add.w	r3, r4, r3, lsl #2
 800343e:	2201      	movs	r2, #1
 8003440:	75da      	strb	r2, [r3, #23]
          (void)HAL_PCD_EP_Abort(hpcd, (uint8_t)(epnum | 0x80U));
 8003442:	f066 017f 	orn	r1, r6, #127	@ 0x7f
 8003446:	b2c9      	uxtb	r1, r1
 8003448:	4620      	mov	r0, r4
 800344a:	f7ff fd4d 	bl	8002ee8 <HAL_PCD_EP_Abort>
 800344e:	e7e1      	b.n	8003414 <HAL_PCD_IRQHandler+0x4f8>
      for (epnum = 1U; epnum < hpcd->Init.dev_endpoints; epnum++)
 8003450:	2601      	movs	r6, #1
 8003452:	e7e0      	b.n	8003416 <HAL_PCD_IRQHandler+0x4fa>
      __HAL_PCD_CLEAR_FLAG(hpcd, USB_OTG_GINTSTS_IISOIXFR);
 8003454:	6822      	ldr	r2, [r4, #0]
 8003456:	6953      	ldr	r3, [r2, #20]
 8003458:	f403 1380 	and.w	r3, r3, #1048576	@ 0x100000
 800345c:	6153      	str	r3, [r2, #20]
 800345e:	e7d1      	b.n	8003404 <HAL_PCD_IRQHandler+0x4e8>
      for (epnum = 1U; epnum < hpcd->Init.dev_endpoints; epnum++)
 8003460:	3301      	adds	r3, #1
 8003462:	7922      	ldrb	r2, [r4, #4]
 8003464:	429a      	cmp	r2, r3
 8003466:	d929      	bls.n	80034bc <HAL_PCD_IRQHandler+0x5a0>
        RegVal = USBx_OUTEP(epnum)->DOEPCTL;
 8003468:	eb05 1243 	add.w	r2, r5, r3, lsl #5
 800346c:	f8d2 1b00 	ldr.w	r1, [r2, #2816]	@ 0xb00
        if ((hpcd->OUT_ep[epnum].type == EP_TYPE_ISOC) &&
 8003470:	eb03 02c3 	add.w	r2, r3, r3, lsl #3
 8003474:	eb04 0282 	add.w	r2, r4, r2, lsl #2
 8003478:	f892 2258 	ldrb.w	r2, [r2, #600]	@ 0x258
 800347c:	2a01      	cmp	r2, #1
 800347e:	d1ef      	bne.n	8003460 <HAL_PCD_IRQHandler+0x544>
 8003480:	2900      	cmp	r1, #0
 8003482:	daed      	bge.n	8003460 <HAL_PCD_IRQHandler+0x544>
            (((RegVal & (0x1U << 16)) >> 16U) == (hpcd->FrameNumber & 0x1U)))
 8003484:	f8d4 24d4 	ldr.w	r2, [r4, #1236]	@ 0x4d4
 8003488:	ea82 4211 	eor.w	r2, r2, r1, lsr #16
            ((RegVal & USB_OTG_DOEPCTL_EPENA) == USB_OTG_DOEPCTL_EPENA) &&
 800348c:	f012 0f01 	tst.w	r2, #1
 8003490:	d1e6      	bne.n	8003460 <HAL_PCD_IRQHandler+0x544>
          hpcd->OUT_ep[epnum].is_iso_incomplete = 1U;
 8003492:	eb03 02c3 	add.w	r2, r3, r3, lsl #3
 8003496:	eb04 0282 	add.w	r2, r4, r2, lsl #2
 800349a:	2101      	movs	r1, #1
 800349c:	f882 1257 	strb.w	r1, [r2, #599]	@ 0x257
          USBx->GINTMSK |= USB_OTG_GINTMSK_GONAKEFFM;
 80034a0:	69aa      	ldr	r2, [r5, #24]
 80034a2:	f042 0280 	orr.w	r2, r2, #128	@ 0x80
 80034a6:	61aa      	str	r2, [r5, #24]
          if ((USBx->GINTSTS & USB_OTG_GINTSTS_BOUTNAKEFF) == 0U)
 80034a8:	696a      	ldr	r2, [r5, #20]
 80034aa:	f012 0f80 	tst.w	r2, #128	@ 0x80
 80034ae:	d1d7      	bne.n	8003460 <HAL_PCD_IRQHandler+0x544>
            USBx_DEVICE->DCTL |= USB_OTG_DCTL_SGONAK;
 80034b0:	f8db 3004 	ldr.w	r3, [fp, #4]
 80034b4:	f443 7300 	orr.w	r3, r3, #512	@ 0x200
 80034b8:	f8cb 3004 	str.w	r3, [fp, #4]
      __HAL_PCD_CLEAR_FLAG(hpcd, USB_OTG_GINTSTS_PXFR_INCOMPISOOUT);
 80034bc:	6822      	ldr	r2, [r4, #0]
 80034be:	6953      	ldr	r3, [r2, #20]
 80034c0:	f403 1300 	and.w	r3, r3, #2097152	@ 0x200000
 80034c4:	6153      	str	r3, [r2, #20]
    if (__HAL_PCD_GET_FLAG(hpcd, USB_OTG_GINTSTS_SRQINT))
 80034c6:	6820      	ldr	r0, [r4, #0]
 80034c8:	f001 fc59 	bl	8004d7e <USB_ReadInterrupts>
 80034cc:	f010 4f80 	tst.w	r0, #1073741824	@ 0x40000000
 80034d0:	d110      	bne.n	80034f4 <HAL_PCD_IRQHandler+0x5d8>
    if (__HAL_PCD_GET_FLAG(hpcd, USB_OTG_GINTSTS_OTGINT))
 80034d2:	6820      	ldr	r0, [r4, #0]
 80034d4:	f001 fc53 	bl	8004d7e <USB_ReadInterrupts>
 80034d8:	f010 0f04 	tst.w	r0, #4
 80034dc:	f43f ad27 	beq.w	8002f2e <HAL_PCD_IRQHandler+0x12>
      RegVal = hpcd->Instance->GOTGINT;
 80034e0:	6823      	ldr	r3, [r4, #0]
 80034e2:	685d      	ldr	r5, [r3, #4]
      if ((RegVal & USB_OTG_GOTGINT_SEDET) == USB_OTG_GOTGINT_SEDET)
 80034e4:	f015 0f04 	tst.w	r5, #4
 80034e8:	d10d      	bne.n	8003506 <HAL_PCD_IRQHandler+0x5ea>
      hpcd->Instance->GOTGINT |= RegVal;
 80034ea:	6822      	ldr	r2, [r4, #0]
 80034ec:	6853      	ldr	r3, [r2, #4]
 80034ee:	432b      	orrs	r3, r5
 80034f0:	6053      	str	r3, [r2, #4]
 80034f2:	e51c      	b.n	8002f2e <HAL_PCD_IRQHandler+0x12>
      HAL_PCD_ConnectCallback(hpcd);
 80034f4:	4620      	mov	r0, r4
 80034f6:	f7ff fcf5 	bl	8002ee4 <HAL_PCD_ConnectCallback>
      __HAL_PCD_CLEAR_FLAG(hpcd, USB_OTG_GINTSTS_SRQINT);
 80034fa:	6822      	ldr	r2, [r4, #0]
 80034fc:	6953      	ldr	r3, [r2, #20]
 80034fe:	f003 4380 	and.w	r3, r3, #1073741824	@ 0x40000000
 8003502:	6153      	str	r3, [r2, #20]
 8003504:	e7e5      	b.n	80034d2 <HAL_PCD_IRQHandler+0x5b6>
        HAL_PCD_DisconnectCallback(hpcd);
 8003506:	4620      	mov	r0, r4
 8003508:	f7ff fced 	bl	8002ee6 <HAL_PCD_DisconnectCallback>
 800350c:	e7ed      	b.n	80034ea <HAL_PCD_IRQHandler+0x5ce>

0800350e <HAL_PCDEx_LPM_Callback>:
  UNUSED(msg);

  /* NOTE : This function should not be modified, when the callback is needed,
            the HAL_PCDEx_LPM_Callback could be implemented in the user file
   */
}
 800350e:	4770      	bx	lr

08003510 <HAL_RCC_OscConfig>:
__weak HAL_StatusTypeDef HAL_RCC_OscConfig(const RCC_OscInitTypeDef  *RCC_OscInitStruct)
{
  uint32_t tickstart;
  uint32_t pll_config;
  /* Check Null pointer */
  if (RCC_OscInitStruct == NULL)
 8003510:	2800      	cmp	r0, #0
 8003512:	f000 81e2 	beq.w	80038da <HAL_RCC_OscConfig+0x3ca>
{
 8003516:	b570      	push	{r4, r5, r6, lr}
 8003518:	b082      	sub	sp, #8
 800351a:	4604      	mov	r4, r0
  }

  /* Check the parameters */
  assert_param(IS_RCC_OSCILLATORTYPE(RCC_OscInitStruct->OscillatorType));
  /*------------------------------- HSE Configuration ------------------------*/
  if (((RCC_OscInitStruct->OscillatorType) & RCC_OSCILLATORTYPE_HSE) == RCC_OSCILLATORTYPE_HSE)
 800351c:	6803      	ldr	r3, [r0, #0]
 800351e:	f013 0f01 	tst.w	r3, #1
 8003522:	d03b      	beq.n	800359c <HAL_RCC_OscConfig+0x8c>
  {
    /* Check the parameters */
    assert_param(IS_RCC_HSE(RCC_OscInitStruct->HSEState));
    /* When the HSE is used as system clock or clock source for PLL in these cases HSE will not disabled */
    if ((__HAL_RCC_GET_SYSCLK_SOURCE() == RCC_CFGR_SWS_HSE) || \
 8003524:	4b9b      	ldr	r3, [pc, #620]	@ (8003794 <HAL_RCC_OscConfig+0x284>)
 8003526:	689b      	ldr	r3, [r3, #8]
 8003528:	f003 030c 	and.w	r3, r3, #12
 800352c:	2b04      	cmp	r3, #4
 800352e:	d02c      	beq.n	800358a <HAL_RCC_OscConfig+0x7a>
        ((__HAL_RCC_GET_SYSCLK_SOURCE() == RCC_CFGR_SWS_PLL) && ((RCC->PLLCFGR & RCC_PLLCFGR_PLLSRC) == RCC_PLLCFGR_PLLSRC_HSE)))
 8003530:	4b98      	ldr	r3, [pc, #608]	@ (8003794 <HAL_RCC_OscConfig+0x284>)
 8003532:	689b      	ldr	r3, [r3, #8]
 8003534:	f003 030c 	and.w	r3, r3, #12
    if ((__HAL_RCC_GET_SYSCLK_SOURCE() == RCC_CFGR_SWS_HSE) || \
 8003538:	2b08      	cmp	r3, #8
 800353a:	d021      	beq.n	8003580 <HAL_RCC_OscConfig+0x70>
      }
    }
    else
    {
      /* Set the new HSE configuration ---------------------------------------*/
      __HAL_RCC_HSE_CONFIG(RCC_OscInitStruct->HSEState);
 800353c:	6863      	ldr	r3, [r4, #4]
 800353e:	f5b3 3f80 	cmp.w	r3, #65536	@ 0x10000
 8003542:	d04f      	beq.n	80035e4 <HAL_RCC_OscConfig+0xd4>
 8003544:	f5b3 2fa0 	cmp.w	r3, #327680	@ 0x50000
 8003548:	d052      	beq.n	80035f0 <HAL_RCC_OscConfig+0xe0>
 800354a:	4b92      	ldr	r3, [pc, #584]	@ (8003794 <HAL_RCC_OscConfig+0x284>)
 800354c:	681a      	ldr	r2, [r3, #0]
 800354e:	f422 3280 	bic.w	r2, r2, #65536	@ 0x10000
 8003552:	601a      	str	r2, [r3, #0]
 8003554:	681a      	ldr	r2, [r3, #0]
 8003556:	f422 2280 	bic.w	r2, r2, #262144	@ 0x40000
 800355a:	601a      	str	r2, [r3, #0]

      /* Check the HSE State */
      if ((RCC_OscInitStruct->HSEState) != RCC_HSE_OFF)
 800355c:	6863      	ldr	r3, [r4, #4]
 800355e:	2b00      	cmp	r3, #0
 8003560:	d050      	beq.n	8003604 <HAL_RCC_OscConfig+0xf4>
      {
        /* Get Start Tick */
        tickstart = HAL_GetTick();
 8003562:	f7fe f9ed 	bl	8001940 <HAL_GetTick>
 8003566:	4605      	mov	r5, r0

        /* Wait till HSE is ready */
        while (__HAL_RCC_GET_FLAG(RCC_FLAG_HSERDY) == RESET)
 8003568:	4b8a      	ldr	r3, [pc, #552]	@ (8003794 <HAL_RCC_OscConfig+0x284>)
 800356a:	681b      	ldr	r3, [r3, #0]
 800356c:	f413 3f00 	tst.w	r3, #131072	@ 0x20000
 8003570:	d114      	bne.n	800359c <HAL_RCC_OscConfig+0x8c>
        {
          if ((HAL_GetTick() - tickstart) > HSE_TIMEOUT_VALUE)
 8003572:	f7fe f9e5 	bl	8001940 <HAL_GetTick>
 8003576:	1b40      	subs	r0, r0, r5
 8003578:	2864      	cmp	r0, #100	@ 0x64
 800357a:	d9f5      	bls.n	8003568 <HAL_RCC_OscConfig+0x58>
          {
            return HAL_TIMEOUT;
 800357c:	2003      	movs	r0, #3
 800357e:	e1b3      	b.n	80038e8 <HAL_RCC_OscConfig+0x3d8>
        ((__HAL_RCC_GET_SYSCLK_SOURCE() == RCC_CFGR_SWS_PLL) && ((RCC->PLLCFGR & RCC_PLLCFGR_PLLSRC) == RCC_PLLCFGR_PLLSRC_HSE)))
 8003580:	4b84      	ldr	r3, [pc, #528]	@ (8003794 <HAL_RCC_OscConfig+0x284>)
 8003582:	685b      	ldr	r3, [r3, #4]
 8003584:	f413 0f80 	tst.w	r3, #4194304	@ 0x400000
 8003588:	d0d8      	beq.n	800353c <HAL_RCC_OscConfig+0x2c>
      if ((__HAL_RCC_GET_FLAG(RCC_FLAG_HSERDY) != RESET) && (RCC_OscInitStruct->HSEState == RCC_HSE_OFF))
 800358a:	4b82      	ldr	r3, [pc, #520]	@ (8003794 <HAL_RCC_OscConfig+0x284>)
 800358c:	681b      	ldr	r3, [r3, #0]
 800358e:	f413 3f00 	tst.w	r3, #131072	@ 0x20000
 8003592:	d003      	beq.n	800359c <HAL_RCC_OscConfig+0x8c>
 8003594:	6863      	ldr	r3, [r4, #4]
 8003596:	2b00      	cmp	r3, #0
 8003598:	f000 81a1 	beq.w	80038de <HAL_RCC_OscConfig+0x3ce>
        }
      }
    }
  }
  /*----------------------------- HSI Configuration --------------------------*/
  if (((RCC_OscInitStruct->OscillatorType) & RCC_OSCILLATORTYPE_HSI) == RCC_OSCILLATORTYPE_HSI)
 800359c:	6823      	ldr	r3, [r4, #0]
 800359e:	f013 0f02 	tst.w	r3, #2
 80035a2:	d054      	beq.n	800364e <HAL_RCC_OscConfig+0x13e>
    /* Check the parameters */
    assert_param(IS_RCC_HSI(RCC_OscInitStruct->HSIState));
    assert_param(IS_RCC_CALIBRATION_VALUE(RCC_OscInitStruct->HSICalibrationValue));

    /* Check if HSI is used as system clock or as PLL source when PLL is selected as system clock */
    if ((__HAL_RCC_GET_SYSCLK_SOURCE() == RCC_CFGR_SWS_HSI) || \
 80035a4:	4b7b      	ldr	r3, [pc, #492]	@ (8003794 <HAL_RCC_OscConfig+0x284>)
 80035a6:	689b      	ldr	r3, [r3, #8]
 80035a8:	f013 0f0c 	tst.w	r3, #12
 80035ac:	d03e      	beq.n	800362c <HAL_RCC_OscConfig+0x11c>
        ((__HAL_RCC_GET_SYSCLK_SOURCE() == RCC_CFGR_SWS_PLL) && ((RCC->PLLCFGR & RCC_PLLCFGR_PLLSRC) == RCC_PLLCFGR_PLLSRC_HSI)))
 80035ae:	4b79      	ldr	r3, [pc, #484]	@ (8003794 <HAL_RCC_OscConfig+0x284>)
 80035b0:	689b      	ldr	r3, [r3, #8]
 80035b2:	f003 030c 	and.w	r3, r3, #12
    if ((__HAL_RCC_GET_SYSCLK_SOURCE() == RCC_CFGR_SWS_HSI) || \
 80035b6:	2b08      	cmp	r3, #8
 80035b8:	d033      	beq.n	8003622 <HAL_RCC_OscConfig+0x112>
      }
    }
    else
    {
      /* Check the HSI State */
      if ((RCC_OscInitStruct->HSIState) != RCC_HSI_OFF)
 80035ba:	68e3      	ldr	r3, [r4, #12]
 80035bc:	2b00      	cmp	r3, #0
 80035be:	d068      	beq.n	8003692 <HAL_RCC_OscConfig+0x182>
      {
        /* Enable the Internal High Speed oscillator (HSI). */
        __HAL_RCC_HSI_ENABLE();
 80035c0:	4b75      	ldr	r3, [pc, #468]	@ (8003798 <HAL_RCC_OscConfig+0x288>)
 80035c2:	2201      	movs	r2, #1
 80035c4:	601a      	str	r2, [r3, #0]

        /* Get Start Tick*/
        tickstart = HAL_GetTick();
 80035c6:	f7fe f9bb 	bl	8001940 <HAL_GetTick>
 80035ca:	4605      	mov	r5, r0

        /* Wait till HSI is ready */
        while (__HAL_RCC_GET_FLAG(RCC_FLAG_HSIRDY) == RESET)
 80035cc:	4b71      	ldr	r3, [pc, #452]	@ (8003794 <HAL_RCC_OscConfig+0x284>)
 80035ce:	681b      	ldr	r3, [r3, #0]
 80035d0:	f013 0f02 	tst.w	r3, #2
 80035d4:	d154      	bne.n	8003680 <HAL_RCC_OscConfig+0x170>
        {
          if ((HAL_GetTick() - tickstart) > HSI_TIMEOUT_VALUE)
 80035d6:	f7fe f9b3 	bl	8001940 <HAL_GetTick>
 80035da:	1b40      	subs	r0, r0, r5
 80035dc:	2802      	cmp	r0, #2
 80035de:	d9f5      	bls.n	80035cc <HAL_RCC_OscConfig+0xbc>
          {
            return HAL_TIMEOUT;
 80035e0:	2003      	movs	r0, #3
 80035e2:	e181      	b.n	80038e8 <HAL_RCC_OscConfig+0x3d8>
      __HAL_RCC_HSE_CONFIG(RCC_OscInitStruct->HSEState);
 80035e4:	4a6b      	ldr	r2, [pc, #428]	@ (8003794 <HAL_RCC_OscConfig+0x284>)
 80035e6:	6813      	ldr	r3, [r2, #0]
 80035e8:	f443 3380 	orr.w	r3, r3, #65536	@ 0x10000
 80035ec:	6013      	str	r3, [r2, #0]
 80035ee:	e7b5      	b.n	800355c <HAL_RCC_OscConfig+0x4c>
 80035f0:	4b68      	ldr	r3, [pc, #416]	@ (8003794 <HAL_RCC_OscConfig+0x284>)
 80035f2:	681a      	ldr	r2, [r3, #0]
 80035f4:	f442 2280 	orr.w	r2, r2, #262144	@ 0x40000
 80035f8:	601a      	str	r2, [r3, #0]
 80035fa:	681a      	ldr	r2, [r3, #0]
 80035fc:	f442 3280 	orr.w	r2, r2, #65536	@ 0x10000
 8003600:	601a      	str	r2, [r3, #0]
 8003602:	e7ab      	b.n	800355c <HAL_RCC_OscConfig+0x4c>
        tickstart = HAL_GetTick();
 8003604:	f7fe f99c 	bl	8001940 <HAL_GetTick>
 8003608:	4605      	mov	r5, r0
        while (__HAL_RCC_GET_FLAG(RCC_FLAG_HSERDY) != RESET)
 800360a:	4b62      	ldr	r3, [pc, #392]	@ (8003794 <HAL_RCC_OscConfig+0x284>)
 800360c:	681b      	ldr	r3, [r3, #0]
 800360e:	f413 3f00 	tst.w	r3, #131072	@ 0x20000
 8003612:	d0c3      	beq.n	800359c <HAL_RCC_OscConfig+0x8c>
          if ((HAL_GetTick() - tickstart) > HSE_TIMEOUT_VALUE)
 8003614:	f7fe f994 	bl	8001940 <HAL_GetTick>
 8003618:	1b40      	subs	r0, r0, r5
 800361a:	2864      	cmp	r0, #100	@ 0x64
 800361c:	d9f5      	bls.n	800360a <HAL_RCC_OscConfig+0xfa>
            return HAL_TIMEOUT;
 800361e:	2003      	movs	r0, #3
 8003620:	e162      	b.n	80038e8 <HAL_RCC_OscConfig+0x3d8>
        ((__HAL_RCC_GET_SYSCLK_SOURCE() == RCC_CFGR_SWS_PLL) && ((RCC->PLLCFGR & RCC_PLLCFGR_PLLSRC) == RCC_PLLCFGR_PLLSRC_HSI)))
 8003622:	4b5c      	ldr	r3, [pc, #368]	@ (8003794 <HAL_RCC_OscConfig+0x284>)
 8003624:	685b      	ldr	r3, [r3, #4]
 8003626:	f413 0f80 	tst.w	r3, #4194304	@ 0x400000
 800362a:	d1c6      	bne.n	80035ba <HAL_RCC_OscConfig+0xaa>
      if ((__HAL_RCC_GET_FLAG(RCC_FLAG_HSIRDY) != RESET) && (RCC_OscInitStruct->HSIState != RCC_HSI_ON))
 800362c:	4b59      	ldr	r3, [pc, #356]	@ (8003794 <HAL_RCC_OscConfig+0x284>)
 800362e:	681b      	ldr	r3, [r3, #0]
 8003630:	f013 0f02 	tst.w	r3, #2
 8003634:	d003      	beq.n	800363e <HAL_RCC_OscConfig+0x12e>
 8003636:	68e3      	ldr	r3, [r4, #12]
 8003638:	2b01      	cmp	r3, #1
 800363a:	f040 8152 	bne.w	80038e2 <HAL_RCC_OscConfig+0x3d2>
        __HAL_RCC_HSI_CALIBRATIONVALUE_ADJUST(RCC_OscInitStruct->HSICalibrationValue);
 800363e:	4a55      	ldr	r2, [pc, #340]	@ (8003794 <HAL_RCC_OscConfig+0x284>)
 8003640:	6813      	ldr	r3, [r2, #0]
 8003642:	f023 03f8 	bic.w	r3, r3, #248	@ 0xf8
 8003646:	6921      	ldr	r1, [r4, #16]
 8003648:	ea43 03c1 	orr.w	r3, r3, r1, lsl #3
 800364c:	6013      	str	r3, [r2, #0]
        }
      }
    }
  }
  /*------------------------------ LSI Configuration -------------------------*/
  if (((RCC_OscInitStruct->OscillatorType) & RCC_OSCILLATORTYPE_LSI) == RCC_OSCILLATORTYPE_LSI)
 800364e:	6823      	ldr	r3, [r4, #0]
 8003650:	f013 0f08 	tst.w	r3, #8
 8003654:	d042      	beq.n	80036dc <HAL_RCC_OscConfig+0x1cc>
  {
    /* Check the parameters */
    assert_param(IS_RCC_LSI(RCC_OscInitStruct->LSIState));

    /* Check the LSI State */
    if ((RCC_OscInitStruct->LSIState) != RCC_LSI_OFF)
 8003656:	6963      	ldr	r3, [r4, #20]
 8003658:	b36b      	cbz	r3, 80036b6 <HAL_RCC_OscConfig+0x1a6>
    {
      /* Enable the Internal Low Speed oscillator (LSI). */
      __HAL_RCC_LSI_ENABLE();
 800365a:	4b4f      	ldr	r3, [pc, #316]	@ (8003798 <HAL_RCC_OscConfig+0x288>)
 800365c:	2201      	movs	r2, #1
 800365e:	f8c3 2e80 	str.w	r2, [r3, #3712]	@ 0xe80

      /* Get Start Tick*/
      tickstart = HAL_GetTick();
 8003662:	f7fe f96d 	bl	8001940 <HAL_GetTick>
 8003666:	4605      	mov	r5, r0

      /* Wait till LSI is ready */
      while (__HAL_RCC_GET_FLAG(RCC_FLAG_LSIRDY) == RESET)
 8003668:	4b4a      	ldr	r3, [pc, #296]	@ (8003794 <HAL_RCC_OscConfig+0x284>)
 800366a:	6f5b      	ldr	r3, [r3, #116]	@ 0x74
 800366c:	f013 0f02 	tst.w	r3, #2
 8003670:	d134      	bne.n	80036dc <HAL_RCC_OscConfig+0x1cc>
      {
        if ((HAL_GetTick() - tickstart) > LSI_TIMEOUT_VALUE)
 8003672:	f7fe f965 	bl	8001940 <HAL_GetTick>
 8003676:	1b40      	subs	r0, r0, r5
 8003678:	2802      	cmp	r0, #2
 800367a:	d9f5      	bls.n	8003668 <HAL_RCC_OscConfig+0x158>
        {
          return HAL_TIMEOUT;
 800367c:	2003      	movs	r0, #3
 800367e:	e133      	b.n	80038e8 <HAL_RCC_OscConfig+0x3d8>
        __HAL_RCC_HSI_CALIBRATIONVALUE_ADJUST(RCC_OscInitStruct->HSICalibrationValue);
 8003680:	4a44      	ldr	r2, [pc, #272]	@ (8003794 <HAL_RCC_OscConfig+0x284>)
 8003682:	6813      	ldr	r3, [r2, #0]
 8003684:	f023 03f8 	bic.w	r3, r3, #248	@ 0xf8
 8003688:	6921      	ldr	r1, [r4, #16]
 800368a:	ea43 03c1 	orr.w	r3, r3, r1, lsl #3
 800368e:	6013      	str	r3, [r2, #0]
 8003690:	e7dd      	b.n	800364e <HAL_RCC_OscConfig+0x13e>
        __HAL_RCC_HSI_DISABLE();
 8003692:	4b41      	ldr	r3, [pc, #260]	@ (8003798 <HAL_RCC_OscConfig+0x288>)
 8003694:	2200      	movs	r2, #0
 8003696:	601a      	str	r2, [r3, #0]
        tickstart = HAL_GetTick();
 8003698:	f7fe f952 	bl	8001940 <HAL_GetTick>
 800369c:	4605      	mov	r5, r0
        while (__HAL_RCC_GET_FLAG(RCC_FLAG_HSIRDY) != RESET)
 800369e:	4b3d      	ldr	r3, [pc, #244]	@ (8003794 <HAL_RCC_OscConfig+0x284>)
 80036a0:	681b      	ldr	r3, [r3, #0]
 80036a2:	f013 0f02 	tst.w	r3, #2
 80036a6:	d0d2      	beq.n	800364e <HAL_RCC_OscConfig+0x13e>
          if ((HAL_GetTick() - tickstart) > HSI_TIMEOUT_VALUE)
 80036a8:	f7fe f94a 	bl	8001940 <HAL_GetTick>
 80036ac:	1b40      	subs	r0, r0, r5
 80036ae:	2802      	cmp	r0, #2
 80036b0:	d9f5      	bls.n	800369e <HAL_RCC_OscConfig+0x18e>
            return HAL_TIMEOUT;
 80036b2:	2003      	movs	r0, #3
 80036b4:	e118      	b.n	80038e8 <HAL_RCC_OscConfig+0x3d8>
      }
    }
    else
    {
      /* Disable the Internal Low Speed oscillator (LSI). */
      __HAL_RCC_LSI_DISABLE();
 80036b6:	4b38      	ldr	r3, [pc, #224]	@ (8003798 <HAL_RCC_OscConfig+0x288>)
 80036b8:	2200      	movs	r2, #0
 80036ba:	f8c3 2e80 	str.w	r2, [r3, #3712]	@ 0xe80

      /* Get Start Tick */
      tickstart = HAL_GetTick();
 80036be:	f7fe f93f 	bl	8001940 <HAL_GetTick>
 80036c2:	4605      	mov	r5, r0

      /* Wait till LSI is ready */
      while (__HAL_RCC_GET_FLAG(RCC_FLAG_LSIRDY) != RESET)
 80036c4:	4b33      	ldr	r3, [pc, #204]	@ (8003794 <HAL_RCC_OscConfig+0x284>)
 80036c6:	6f5b      	ldr	r3, [r3, #116]	@ 0x74
 80036c8:	f013 0f02 	tst.w	r3, #2
 80036cc:	d006      	beq.n	80036dc <HAL_RCC_OscConfig+0x1cc>
      {
        if ((HAL_GetTick() - tickstart) > LSI_TIMEOUT_VALUE)
 80036ce:	f7fe f937 	bl	8001940 <HAL_GetTick>
 80036d2:	1b40      	subs	r0, r0, r5
 80036d4:	2802      	cmp	r0, #2
 80036d6:	d9f5      	bls.n	80036c4 <HAL_RCC_OscConfig+0x1b4>
        {
          return HAL_TIMEOUT;
 80036d8:	2003      	movs	r0, #3
 80036da:	e105      	b.n	80038e8 <HAL_RCC_OscConfig+0x3d8>
        }
      }
    }
  }
  /*------------------------------ LSE Configuration -------------------------*/
  if (((RCC_OscInitStruct->OscillatorType) & RCC_OSCILLATORTYPE_LSE) == RCC_OSCILLATORTYPE_LSE)
 80036dc:	6823      	ldr	r3, [r4, #0]
 80036de:	f013 0f04 	tst.w	r3, #4
 80036e2:	d079      	beq.n	80037d8 <HAL_RCC_OscConfig+0x2c8>
    /* Check the parameters */
    assert_param(IS_RCC_LSE(RCC_OscInitStruct->LSEState));

    /* Update LSE configuration in Backup Domain control register    */
    /* Requires to enable write access to Backup Domain of necessary */
    if (__HAL_RCC_PWR_IS_CLK_DISABLED())
 80036e4:	4b2b      	ldr	r3, [pc, #172]	@ (8003794 <HAL_RCC_OscConfig+0x284>)
 80036e6:	6c1b      	ldr	r3, [r3, #64]	@ 0x40
 80036e8:	f013 5f80 	tst.w	r3, #268435456	@ 0x10000000
 80036ec:	d134      	bne.n	8003758 <HAL_RCC_OscConfig+0x248>
    {
      __HAL_RCC_PWR_CLK_ENABLE();
 80036ee:	2300      	movs	r3, #0
 80036f0:	9301      	str	r3, [sp, #4]
 80036f2:	4b28      	ldr	r3, [pc, #160]	@ (8003794 <HAL_RCC_OscConfig+0x284>)
 80036f4:	6c1a      	ldr	r2, [r3, #64]	@ 0x40
 80036f6:	f042 5280 	orr.w	r2, r2, #268435456	@ 0x10000000
 80036fa:	641a      	str	r2, [r3, #64]	@ 0x40
 80036fc:	6c1b      	ldr	r3, [r3, #64]	@ 0x40
 80036fe:	f003 5380 	and.w	r3, r3, #268435456	@ 0x10000000
 8003702:	9301      	str	r3, [sp, #4]
 8003704:	9b01      	ldr	r3, [sp, #4]
      pwrclkchanged = SET;
 8003706:	2301      	movs	r3, #1
 8003708:	461e      	mov	r6, r3
    }

    if (HAL_IS_BIT_CLR(PWR->CR, PWR_CR_DBP))
 800370a:	4b24      	ldr	r3, [pc, #144]	@ (800379c <HAL_RCC_OscConfig+0x28c>)
 800370c:	681b      	ldr	r3, [r3, #0]
 800370e:	f413 7f80 	tst.w	r3, #256	@ 0x100
 8003712:	d024      	beq.n	800375e <HAL_RCC_OscConfig+0x24e>
        }
      }
    }

    /* Set the new LSE configuration -----------------------------------------*/
    __HAL_RCC_LSE_CONFIG(RCC_OscInitStruct->LSEState);
 8003714:	68a3      	ldr	r3, [r4, #8]
 8003716:	2b01      	cmp	r3, #1
 8003718:	d035      	beq.n	8003786 <HAL_RCC_OscConfig+0x276>
 800371a:	2b05      	cmp	r3, #5
 800371c:	d040      	beq.n	80037a0 <HAL_RCC_OscConfig+0x290>
 800371e:	4b1d      	ldr	r3, [pc, #116]	@ (8003794 <HAL_RCC_OscConfig+0x284>)
 8003720:	6f1a      	ldr	r2, [r3, #112]	@ 0x70
 8003722:	f022 0201 	bic.w	r2, r2, #1
 8003726:	671a      	str	r2, [r3, #112]	@ 0x70
 8003728:	6f1a      	ldr	r2, [r3, #112]	@ 0x70
 800372a:	f022 0204 	bic.w	r2, r2, #4
 800372e:	671a      	str	r2, [r3, #112]	@ 0x70
    /* Check the LSE State */
    if ((RCC_OscInitStruct->LSEState) != RCC_LSE_OFF)
 8003730:	68a3      	ldr	r3, [r4, #8]
 8003732:	2b00      	cmp	r3, #0
 8003734:	d03e      	beq.n	80037b4 <HAL_RCC_OscConfig+0x2a4>
    {
      /* Get Start Tick*/
      tickstart = HAL_GetTick();
 8003736:	f7fe f903 	bl	8001940 <HAL_GetTick>
 800373a:	4605      	mov	r5, r0

      /* Wait till LSE is ready */
      while (__HAL_RCC_GET_FLAG(RCC_FLAG_LSERDY) == RESET)
 800373c:	4b15      	ldr	r3, [pc, #84]	@ (8003794 <HAL_RCC_OscConfig+0x284>)
 800373e:	6f1b      	ldr	r3, [r3, #112]	@ 0x70
 8003740:	f013 0f02 	tst.w	r3, #2
 8003744:	d147      	bne.n	80037d6 <HAL_RCC_OscConfig+0x2c6>
      {
        if ((HAL_GetTick() - tickstart) > RCC_LSE_TIMEOUT_VALUE)
 8003746:	f7fe f8fb 	bl	8001940 <HAL_GetTick>
 800374a:	1b40      	subs	r0, r0, r5
 800374c:	f241 3388 	movw	r3, #5000	@ 0x1388
 8003750:	4298      	cmp	r0, r3
 8003752:	d9f3      	bls.n	800373c <HAL_RCC_OscConfig+0x22c>
        {
          return HAL_TIMEOUT;
 8003754:	2003      	movs	r0, #3
 8003756:	e0c7      	b.n	80038e8 <HAL_RCC_OscConfig+0x3d8>
    FlagStatus       pwrclkchanged = RESET;
 8003758:	2300      	movs	r3, #0
 800375a:	461e      	mov	r6, r3
 800375c:	e7d5      	b.n	800370a <HAL_RCC_OscConfig+0x1fa>
      SET_BIT(PWR->CR, PWR_CR_DBP);
 800375e:	4a0f      	ldr	r2, [pc, #60]	@ (800379c <HAL_RCC_OscConfig+0x28c>)
 8003760:	6813      	ldr	r3, [r2, #0]
 8003762:	f443 7380 	orr.w	r3, r3, #256	@ 0x100
 8003766:	6013      	str	r3, [r2, #0]
      tickstart = HAL_GetTick();
 8003768:	f7fe f8ea 	bl	8001940 <HAL_GetTick>
 800376c:	4605      	mov	r5, r0
      while (HAL_IS_BIT_CLR(PWR->CR, PWR_CR_DBP))
 800376e:	4b0b      	ldr	r3, [pc, #44]	@ (800379c <HAL_RCC_OscConfig+0x28c>)
 8003770:	681b      	ldr	r3, [r3, #0]
 8003772:	f413 7f80 	tst.w	r3, #256	@ 0x100
 8003776:	d1cd      	bne.n	8003714 <HAL_RCC_OscConfig+0x204>
        if ((HAL_GetTick() - tickstart) > RCC_DBP_TIMEOUT_VALUE)
 8003778:	f7fe f8e2 	bl	8001940 <HAL_GetTick>
 800377c:	1b40      	subs	r0, r0, r5
 800377e:	2802      	cmp	r0, #2
 8003780:	d9f5      	bls.n	800376e <HAL_RCC_OscConfig+0x25e>
          return HAL_TIMEOUT;
 8003782:	2003      	movs	r0, #3
 8003784:	e0b0      	b.n	80038e8 <HAL_RCC_OscConfig+0x3d8>
    __HAL_RCC_LSE_CONFIG(RCC_OscInitStruct->LSEState);
 8003786:	4a03      	ldr	r2, [pc, #12]	@ (8003794 <HAL_RCC_OscConfig+0x284>)
 8003788:	6f13      	ldr	r3, [r2, #112]	@ 0x70
 800378a:	f043 0301 	orr.w	r3, r3, #1
 800378e:	6713      	str	r3, [r2, #112]	@ 0x70
 8003790:	e7ce      	b.n	8003730 <HAL_RCC_OscConfig+0x220>
 8003792:	bf00      	nop
 8003794:	40023800 	.word	0x40023800
 8003798:	42470000 	.word	0x42470000
 800379c:	40007000 	.word	0x40007000
 80037a0:	4b58      	ldr	r3, [pc, #352]	@ (8003904 <HAL_RCC_OscConfig+0x3f4>)
 80037a2:	6f1a      	ldr	r2, [r3, #112]	@ 0x70
 80037a4:	f042 0204 	orr.w	r2, r2, #4
 80037a8:	671a      	str	r2, [r3, #112]	@ 0x70
 80037aa:	6f1a      	ldr	r2, [r3, #112]	@ 0x70
 80037ac:	f042 0201 	orr.w	r2, r2, #1
 80037b0:	671a      	str	r2, [r3, #112]	@ 0x70
 80037b2:	e7bd      	b.n	8003730 <HAL_RCC_OscConfig+0x220>
      }
    }
    else
    {
      /* Get Start Tick */
      tickstart = HAL_GetTick();
 80037b4:	f7fe f8c4 	bl	8001940 <HAL_GetTick>
 80037b8:	4605      	mov	r5, r0

      /* Wait till LSE is ready */
      while (__HAL_RCC_GET_FLAG(RCC_FLAG_LSERDY) != RESET)
 80037ba:	4b52      	ldr	r3, [pc, #328]	@ (8003904 <HAL_RCC_OscConfig+0x3f4>)
 80037bc:	6f1b      	ldr	r3, [r3, #112]	@ 0x70
 80037be:	f013 0f02 	tst.w	r3, #2
 80037c2:	d008      	beq.n	80037d6 <HAL_RCC_OscConfig+0x2c6>
      {
        if ((HAL_GetTick() - tickstart) > RCC_LSE_TIMEOUT_VALUE)
 80037c4:	f7fe f8bc 	bl	8001940 <HAL_GetTick>
 80037c8:	1b40      	subs	r0, r0, r5
 80037ca:	f241 3388 	movw	r3, #5000	@ 0x1388
 80037ce:	4298      	cmp	r0, r3
 80037d0:	d9f3      	bls.n	80037ba <HAL_RCC_OscConfig+0x2aa>
        {
          return HAL_TIMEOUT;
 80037d2:	2003      	movs	r0, #3
 80037d4:	e088      	b.n	80038e8 <HAL_RCC_OscConfig+0x3d8>
        }
      }
    }

    /* Restore clock configuration if changed */
    if (pwrclkchanged == SET)
 80037d6:	b9ee      	cbnz	r6, 8003814 <HAL_RCC_OscConfig+0x304>
    }
  }
  /*-------------------------------- PLL Configuration -----------------------*/
  /* Check the parameters */
  assert_param(IS_RCC_PLL(RCC_OscInitStruct->PLL.PLLState));
  if ((RCC_OscInitStruct->PLL.PLLState) != RCC_PLL_NONE)
 80037d8:	69a3      	ldr	r3, [r4, #24]
 80037da:	2b00      	cmp	r3, #0
 80037dc:	f000 8083 	beq.w	80038e6 <HAL_RCC_OscConfig+0x3d6>
  {
    /* Check if the PLL is used as system clock or not */
    if (__HAL_RCC_GET_SYSCLK_SOURCE() != RCC_CFGR_SWS_PLL)
 80037e0:	4a48      	ldr	r2, [pc, #288]	@ (8003904 <HAL_RCC_OscConfig+0x3f4>)
 80037e2:	6892      	ldr	r2, [r2, #8]
 80037e4:	f002 020c 	and.w	r2, r2, #12
 80037e8:	2a08      	cmp	r2, #8
 80037ea:	d051      	beq.n	8003890 <HAL_RCC_OscConfig+0x380>
    {
      if ((RCC_OscInitStruct->PLL.PLLState) == RCC_PLL_ON)
 80037ec:	2b02      	cmp	r3, #2
 80037ee:	d017      	beq.n	8003820 <HAL_RCC_OscConfig+0x310>
        }
      }
      else
      {
        /* Disable the main PLL. */
        __HAL_RCC_PLL_DISABLE();
 80037f0:	4b45      	ldr	r3, [pc, #276]	@ (8003908 <HAL_RCC_OscConfig+0x3f8>)
 80037f2:	2200      	movs	r2, #0
 80037f4:	661a      	str	r2, [r3, #96]	@ 0x60

        /* Get Start Tick */
        tickstart = HAL_GetTick();
 80037f6:	f7fe f8a3 	bl	8001940 <HAL_GetTick>
 80037fa:	4604      	mov	r4, r0

        /* Wait till PLL is disabled */
        while (__HAL_RCC_GET_FLAG(RCC_FLAG_PLLRDY) != RESET)
 80037fc:	4b41      	ldr	r3, [pc, #260]	@ (8003904 <HAL_RCC_OscConfig+0x3f4>)
 80037fe:	681b      	ldr	r3, [r3, #0]
 8003800:	f013 7f00 	tst.w	r3, #33554432	@ 0x2000000
 8003804:	d042      	beq.n	800388c <HAL_RCC_OscConfig+0x37c>
        {
          if ((HAL_GetTick() - tickstart) > PLL_TIMEOUT_VALUE)
 8003806:	f7fe f89b 	bl	8001940 <HAL_GetTick>
 800380a:	1b00      	subs	r0, r0, r4
 800380c:	2802      	cmp	r0, #2
 800380e:	d9f5      	bls.n	80037fc <HAL_RCC_OscConfig+0x2ec>
          {
            return HAL_TIMEOUT;
 8003810:	2003      	movs	r0, #3
 8003812:	e069      	b.n	80038e8 <HAL_RCC_OscConfig+0x3d8>
      __HAL_RCC_PWR_CLK_DISABLE();
 8003814:	4a3b      	ldr	r2, [pc, #236]	@ (8003904 <HAL_RCC_OscConfig+0x3f4>)
 8003816:	6c13      	ldr	r3, [r2, #64]	@ 0x40
 8003818:	f023 5380 	bic.w	r3, r3, #268435456	@ 0x10000000
 800381c:	6413      	str	r3, [r2, #64]	@ 0x40
 800381e:	e7db      	b.n	80037d8 <HAL_RCC_OscConfig+0x2c8>
        __HAL_RCC_PLL_DISABLE();
 8003820:	4b39      	ldr	r3, [pc, #228]	@ (8003908 <HAL_RCC_OscConfig+0x3f8>)
 8003822:	2200      	movs	r2, #0
 8003824:	661a      	str	r2, [r3, #96]	@ 0x60
        tickstart = HAL_GetTick();
 8003826:	f7fe f88b 	bl	8001940 <HAL_GetTick>
 800382a:	4605      	mov	r5, r0
        while (__HAL_RCC_GET_FLAG(RCC_FLAG_PLLRDY) != RESET)
 800382c:	4b35      	ldr	r3, [pc, #212]	@ (8003904 <HAL_RCC_OscConfig+0x3f4>)
 800382e:	681b      	ldr	r3, [r3, #0]
 8003830:	f013 7f00 	tst.w	r3, #33554432	@ 0x2000000
 8003834:	d006      	beq.n	8003844 <HAL_RCC_OscConfig+0x334>
          if ((HAL_GetTick() - tickstart) > PLL_TIMEOUT_VALUE)
 8003836:	f7fe f883 	bl	8001940 <HAL_GetTick>
 800383a:	1b40      	subs	r0, r0, r5
 800383c:	2802      	cmp	r0, #2
 800383e:	d9f5      	bls.n	800382c <HAL_RCC_OscConfig+0x31c>
            return HAL_TIMEOUT;
 8003840:	2003      	movs	r0, #3
 8003842:	e051      	b.n	80038e8 <HAL_RCC_OscConfig+0x3d8>
        WRITE_REG(RCC->PLLCFGR, (RCC_OscInitStruct->PLL.PLLSource                                            | \
 8003844:	69e3      	ldr	r3, [r4, #28]
 8003846:	6a22      	ldr	r2, [r4, #32]
 8003848:	4313      	orrs	r3, r2
 800384a:	6a62      	ldr	r2, [r4, #36]	@ 0x24
 800384c:	ea43 1382 	orr.w	r3, r3, r2, lsl #6
 8003850:	6aa2      	ldr	r2, [r4, #40]	@ 0x28
 8003852:	0852      	lsrs	r2, r2, #1
 8003854:	3a01      	subs	r2, #1
 8003856:	ea43 4302 	orr.w	r3, r3, r2, lsl #16
 800385a:	6ae2      	ldr	r2, [r4, #44]	@ 0x2c
 800385c:	ea43 6302 	orr.w	r3, r3, r2, lsl #24
 8003860:	4a28      	ldr	r2, [pc, #160]	@ (8003904 <HAL_RCC_OscConfig+0x3f4>)
 8003862:	6053      	str	r3, [r2, #4]
        __HAL_RCC_PLL_ENABLE();
 8003864:	4b28      	ldr	r3, [pc, #160]	@ (8003908 <HAL_RCC_OscConfig+0x3f8>)
 8003866:	2201      	movs	r2, #1
 8003868:	661a      	str	r2, [r3, #96]	@ 0x60
        tickstart = HAL_GetTick();
 800386a:	f7fe f869 	bl	8001940 <HAL_GetTick>
 800386e:	4604      	mov	r4, r0
        while (__HAL_RCC_GET_FLAG(RCC_FLAG_PLLRDY) == RESET)
 8003870:	4b24      	ldr	r3, [pc, #144]	@ (8003904 <HAL_RCC_OscConfig+0x3f4>)
 8003872:	681b      	ldr	r3, [r3, #0]
 8003874:	f013 7f00 	tst.w	r3, #33554432	@ 0x2000000
 8003878:	d106      	bne.n	8003888 <HAL_RCC_OscConfig+0x378>
          if ((HAL_GetTick() - tickstart) > PLL_TIMEOUT_VALUE)
 800387a:	f7fe f861 	bl	8001940 <HAL_GetTick>
 800387e:	1b00      	subs	r0, r0, r4
 8003880:	2802      	cmp	r0, #2
 8003882:	d9f5      	bls.n	8003870 <HAL_RCC_OscConfig+0x360>
            return HAL_TIMEOUT;
 8003884:	2003      	movs	r0, #3
 8003886:	e02f      	b.n	80038e8 <HAL_RCC_OscConfig+0x3d8>
          return HAL_ERROR;
        }
      }
    }
  }
  return HAL_OK;
 8003888:	2000      	movs	r0, #0
 800388a:	e02d      	b.n	80038e8 <HAL_RCC_OscConfig+0x3d8>
 800388c:	2000      	movs	r0, #0
 800388e:	e02b      	b.n	80038e8 <HAL_RCC_OscConfig+0x3d8>
      if ((RCC_OscInitStruct->PLL.PLLState) == RCC_PLL_OFF)
 8003890:	2b01      	cmp	r3, #1
 8003892:	d02b      	beq.n	80038ec <HAL_RCC_OscConfig+0x3dc>
        pll_config = RCC->PLLCFGR;
 8003894:	4b1b      	ldr	r3, [pc, #108]	@ (8003904 <HAL_RCC_OscConfig+0x3f4>)
 8003896:	685b      	ldr	r3, [r3, #4]
            (READ_BIT(pll_config, RCC_PLLCFGR_PLLSRC) != RCC_OscInitStruct->PLL.PLLSource) ||
 8003898:	f403 0180 	and.w	r1, r3, #4194304	@ 0x400000
 800389c:	69e2      	ldr	r2, [r4, #28]
        if (((RCC_OscInitStruct->PLL.PLLState) == RCC_PLL_OFF) ||
 800389e:	4291      	cmp	r1, r2
 80038a0:	d126      	bne.n	80038f0 <HAL_RCC_OscConfig+0x3e0>
            (READ_BIT(pll_config, RCC_PLLCFGR_PLLM) != (RCC_OscInitStruct->PLL.PLLM) << RCC_PLLCFGR_PLLM_Pos) ||
 80038a2:	f003 023f 	and.w	r2, r3, #63	@ 0x3f
 80038a6:	6a21      	ldr	r1, [r4, #32]
            (READ_BIT(pll_config, RCC_PLLCFGR_PLLSRC) != RCC_OscInitStruct->PLL.PLLSource) ||
 80038a8:	428a      	cmp	r2, r1
 80038aa:	d123      	bne.n	80038f4 <HAL_RCC_OscConfig+0x3e4>
            (READ_BIT(pll_config, RCC_PLLCFGR_PLLN) != (RCC_OscInitStruct->PLL.PLLN) << RCC_PLLCFGR_PLLN_Pos) ||
 80038ac:	6a61      	ldr	r1, [r4, #36]	@ 0x24
            (READ_BIT(pll_config, RCC_PLLCFGR_PLLM) != (RCC_OscInitStruct->PLL.PLLM) << RCC_PLLCFGR_PLLM_Pos) ||
 80038ae:	f647 72c0 	movw	r2, #32704	@ 0x7fc0
 80038b2:	401a      	ands	r2, r3
 80038b4:	ebb2 1f81 	cmp.w	r2, r1, lsl #6
 80038b8:	d11e      	bne.n	80038f8 <HAL_RCC_OscConfig+0x3e8>
            (READ_BIT(pll_config, RCC_PLLCFGR_PLLP) != (((RCC_OscInitStruct->PLL.PLLP >> 1U) - 1U)) << RCC_PLLCFGR_PLLP_Pos) ||
 80038ba:	f403 3140 	and.w	r1, r3, #196608	@ 0x30000
 80038be:	6aa2      	ldr	r2, [r4, #40]	@ 0x28
 80038c0:	0852      	lsrs	r2, r2, #1
 80038c2:	3a01      	subs	r2, #1
            (READ_BIT(pll_config, RCC_PLLCFGR_PLLN) != (RCC_OscInitStruct->PLL.PLLN) << RCC_PLLCFGR_PLLN_Pos) ||
 80038c4:	ebb1 4f02 	cmp.w	r1, r2, lsl #16
 80038c8:	d118      	bne.n	80038fc <HAL_RCC_OscConfig+0x3ec>
            (READ_BIT(pll_config, RCC_PLLCFGR_PLLQ) != (RCC_OscInitStruct->PLL.PLLQ << RCC_PLLCFGR_PLLQ_Pos)))
 80038ca:	f003 6370 	and.w	r3, r3, #251658240	@ 0xf000000
 80038ce:	6ae2      	ldr	r2, [r4, #44]	@ 0x2c
            (READ_BIT(pll_config, RCC_PLLCFGR_PLLP) != (((RCC_OscInitStruct->PLL.PLLP >> 1U) - 1U)) << RCC_PLLCFGR_PLLP_Pos) ||
 80038d0:	ebb3 6f02 	cmp.w	r3, r2, lsl #24
 80038d4:	d114      	bne.n	8003900 <HAL_RCC_OscConfig+0x3f0>
  return HAL_OK;
 80038d6:	2000      	movs	r0, #0
 80038d8:	e006      	b.n	80038e8 <HAL_RCC_OscConfig+0x3d8>
    return HAL_ERROR;
 80038da:	2001      	movs	r0, #1
}
 80038dc:	4770      	bx	lr
        return HAL_ERROR;
 80038de:	2001      	movs	r0, #1
 80038e0:	e002      	b.n	80038e8 <HAL_RCC_OscConfig+0x3d8>
        return HAL_ERROR;
 80038e2:	2001      	movs	r0, #1
 80038e4:	e000      	b.n	80038e8 <HAL_RCC_OscConfig+0x3d8>
  return HAL_OK;
 80038e6:	4618      	mov	r0, r3
}
 80038e8:	b002      	add	sp, #8
 80038ea:	bd70      	pop	{r4, r5, r6, pc}
        return HAL_ERROR;
 80038ec:	2001      	movs	r0, #1
 80038ee:	e7fb      	b.n	80038e8 <HAL_RCC_OscConfig+0x3d8>
          return HAL_ERROR;
 80038f0:	2001      	movs	r0, #1
 80038f2:	e7f9      	b.n	80038e8 <HAL_RCC_OscConfig+0x3d8>
 80038f4:	2001      	movs	r0, #1
 80038f6:	e7f7      	b.n	80038e8 <HAL_RCC_OscConfig+0x3d8>
 80038f8:	2001      	movs	r0, #1
 80038fa:	e7f5      	b.n	80038e8 <HAL_RCC_OscConfig+0x3d8>
 80038fc:	2001      	movs	r0, #1
 80038fe:	e7f3      	b.n	80038e8 <HAL_RCC_OscConfig+0x3d8>
 8003900:	2001      	movs	r0, #1
 8003902:	e7f1      	b.n	80038e8 <HAL_RCC_OscConfig+0x3d8>
 8003904:	40023800 	.word	0x40023800
 8003908:	42470000 	.word	0x42470000

0800390c <HAL_RCC_GetSysClockFreq>:
  *
  *
  * @retval SYSCLK frequency
  */
__weak uint32_t HAL_RCC_GetSysClockFreq(void)
{
 800390c:	b508      	push	{r3, lr}
  uint32_t pllvco = 0U;
  uint32_t pllp = 0U;
  uint32_t sysclockfreq = 0U;

  /* Get SYSCLK source -------------------------------------------------------*/
  switch (RCC->CFGR & RCC_CFGR_SWS)
 800390e:	4b33      	ldr	r3, [pc, #204]	@ (80039dc <HAL_RCC_GetSysClockFreq+0xd0>)
 8003910:	689b      	ldr	r3, [r3, #8]
 8003912:	f003 030c 	and.w	r3, r3, #12
 8003916:	2b04      	cmp	r3, #4
 8003918:	d05b      	beq.n	80039d2 <HAL_RCC_GetSysClockFreq+0xc6>
 800391a:	2b08      	cmp	r3, #8
 800391c:	d15b      	bne.n	80039d6 <HAL_RCC_GetSysClockFreq+0xca>
    }
    case RCC_CFGR_SWS_PLL:  /* PLL used as system clock  source */
    {
      /* PLL_VCO = (HSE_VALUE or HSI_VALUE / PLLM) * PLLN
      SYSCLK = PLL_VCO / PLLP */
      pllm = RCC->PLLCFGR & RCC_PLLCFGR_PLLM;
 800391e:	4b2f      	ldr	r3, [pc, #188]	@ (80039dc <HAL_RCC_GetSysClockFreq+0xd0>)
 8003920:	685a      	ldr	r2, [r3, #4]
 8003922:	f002 023f 	and.w	r2, r2, #63	@ 0x3f
      if (__HAL_RCC_GET_PLL_OSCSOURCE() != RCC_PLLSOURCE_HSI)
 8003926:	685b      	ldr	r3, [r3, #4]
 8003928:	f413 0f80 	tst.w	r3, #4194304	@ 0x400000
 800392c:	d02c      	beq.n	8003988 <HAL_RCC_GetSysClockFreq+0x7c>
      {
        /* HSE used as PLL clock source */
        pllvco = (uint32_t)((((uint64_t) HSE_VALUE * ((uint64_t)((RCC->PLLCFGR & RCC_PLLCFGR_PLLN) >> RCC_PLLCFGR_PLLN_Pos)))) / (uint64_t)pllm);
 800392e:	4b2b      	ldr	r3, [pc, #172]	@ (80039dc <HAL_RCC_GetSysClockFreq+0xd0>)
 8003930:	6858      	ldr	r0, [r3, #4]
 8003932:	f3c0 1088 	ubfx	r0, r0, #6, #9
 8003936:	ea4f 1c40 	mov.w	ip, r0, lsl #5
 800393a:	ebbc 0c00 	subs.w	ip, ip, r0
 800393e:	eb6e 0e0e 	sbc.w	lr, lr, lr
 8003942:	ea4f 138e 	mov.w	r3, lr, lsl #6
 8003946:	ea43 639c 	orr.w	r3, r3, ip, lsr #26
 800394a:	ea4f 118c 	mov.w	r1, ip, lsl #6
 800394e:	ebb1 010c 	subs.w	r1, r1, ip
 8003952:	eb63 030e 	sbc.w	r3, r3, lr
 8003956:	00db      	lsls	r3, r3, #3
 8003958:	ea43 7351 	orr.w	r3, r3, r1, lsr #29
 800395c:	00c9      	lsls	r1, r1, #3
 800395e:	eb11 0c00 	adds.w	ip, r1, r0
 8003962:	f143 0300 	adc.w	r3, r3, #0
 8003966:	0259      	lsls	r1, r3, #9
 8003968:	2300      	movs	r3, #0
 800396a:	ea4f 204c 	mov.w	r0, ip, lsl #9
 800396e:	ea41 51dc 	orr.w	r1, r1, ip, lsr #23
 8003972:	f7fc fc0d 	bl	8000190 <__aeabi_uldivmod>
      else
      {
        /* HSI used as PLL clock source */
        pllvco = (uint32_t)((((uint64_t) HSI_VALUE * ((uint64_t)((RCC->PLLCFGR & RCC_PLLCFGR_PLLN) >> RCC_PLLCFGR_PLLN_Pos)))) / (uint64_t)pllm);
      }
      pllp = ((((RCC->PLLCFGR & RCC_PLLCFGR_PLLP) >> RCC_PLLCFGR_PLLP_Pos) + 1U) * 2U);
 8003976:	4b19      	ldr	r3, [pc, #100]	@ (80039dc <HAL_RCC_GetSysClockFreq+0xd0>)
 8003978:	685b      	ldr	r3, [r3, #4]
 800397a:	f3c3 4301 	ubfx	r3, r3, #16, #2
 800397e:	3301      	adds	r3, #1
 8003980:	005b      	lsls	r3, r3, #1

      sysclockfreq = pllvco / pllp;
 8003982:	fbb0 f0f3 	udiv	r0, r0, r3
      sysclockfreq = HSI_VALUE;
      break;
    }
  }
  return sysclockfreq;
}
 8003986:	bd08      	pop	{r3, pc}
        pllvco = (uint32_t)((((uint64_t) HSI_VALUE * ((uint64_t)((RCC->PLLCFGR & RCC_PLLCFGR_PLLN) >> RCC_PLLCFGR_PLLN_Pos)))) / (uint64_t)pllm);
 8003988:	4b14      	ldr	r3, [pc, #80]	@ (80039dc <HAL_RCC_GetSysClockFreq+0xd0>)
 800398a:	6858      	ldr	r0, [r3, #4]
 800398c:	f3c0 1088 	ubfx	r0, r0, #6, #9
 8003990:	ea4f 1c40 	mov.w	ip, r0, lsl #5
 8003994:	ebbc 0c00 	subs.w	ip, ip, r0
 8003998:	eb6e 0e0e 	sbc.w	lr, lr, lr
 800399c:	ea4f 138e 	mov.w	r3, lr, lsl #6
 80039a0:	ea43 639c 	orr.w	r3, r3, ip, lsr #26
 80039a4:	ea4f 118c 	mov.w	r1, ip, lsl #6
 80039a8:	ebb1 010c 	subs.w	r1, r1, ip
 80039ac:	eb63 030e 	sbc.w	r3, r3, lr
 80039b0:	00db      	lsls	r3, r3, #3
 80039b2:	ea43 7351 	orr.w	r3, r3, r1, lsr #29
 80039b6:	00c9      	lsls	r1, r1, #3
 80039b8:	eb11 0c00 	adds.w	ip, r1, r0
 80039bc:	f143 0300 	adc.w	r3, r3, #0
 80039c0:	0299      	lsls	r1, r3, #10
 80039c2:	2300      	movs	r3, #0
 80039c4:	ea4f 208c 	mov.w	r0, ip, lsl #10
 80039c8:	ea41 519c 	orr.w	r1, r1, ip, lsr #22
 80039cc:	f7fc fbe0 	bl	8000190 <__aeabi_uldivmod>
 80039d0:	e7d1      	b.n	8003976 <HAL_RCC_GetSysClockFreq+0x6a>
      sysclockfreq = HSE_VALUE;
 80039d2:	4803      	ldr	r0, [pc, #12]	@ (80039e0 <HAL_RCC_GetSysClockFreq+0xd4>)
 80039d4:	e7d7      	b.n	8003986 <HAL_RCC_GetSysClockFreq+0x7a>
  switch (RCC->CFGR & RCC_CFGR_SWS)
 80039d6:	4803      	ldr	r0, [pc, #12]	@ (80039e4 <HAL_RCC_GetSysClockFreq+0xd8>)
  return sysclockfreq;
 80039d8:	e7d5      	b.n	8003986 <HAL_RCC_GetSysClockFreq+0x7a>
 80039da:	bf00      	nop
 80039dc:	40023800 	.word	0x40023800
 80039e0:	007a1200 	.word	0x007a1200
 80039e4:	00f42400 	.word	0x00f42400

080039e8 <HAL_RCC_ClockConfig>:
  if (RCC_ClkInitStruct == NULL)
 80039e8:	2800      	cmp	r0, #0
 80039ea:	f000 809b 	beq.w	8003b24 <HAL_RCC_ClockConfig+0x13c>
{
 80039ee:	b570      	push	{r4, r5, r6, lr}
 80039f0:	460d      	mov	r5, r1
 80039f2:	4604      	mov	r4, r0
  if (FLatency > __HAL_FLASH_GET_LATENCY())
 80039f4:	4b4f      	ldr	r3, [pc, #316]	@ (8003b34 <HAL_RCC_ClockConfig+0x14c>)
 80039f6:	681b      	ldr	r3, [r3, #0]
 80039f8:	f003 0307 	and.w	r3, r3, #7
 80039fc:	428b      	cmp	r3, r1
 80039fe:	d208      	bcs.n	8003a12 <HAL_RCC_ClockConfig+0x2a>
    __HAL_FLASH_SET_LATENCY(FLatency);
 8003a00:	b2cb      	uxtb	r3, r1
 8003a02:	4a4c      	ldr	r2, [pc, #304]	@ (8003b34 <HAL_RCC_ClockConfig+0x14c>)
 8003a04:	7013      	strb	r3, [r2, #0]
    if (__HAL_FLASH_GET_LATENCY() != FLatency)
 8003a06:	6813      	ldr	r3, [r2, #0]
 8003a08:	f003 0307 	and.w	r3, r3, #7
 8003a0c:	428b      	cmp	r3, r1
 8003a0e:	f040 808b 	bne.w	8003b28 <HAL_RCC_ClockConfig+0x140>
  if (((RCC_ClkInitStruct->ClockType) & RCC_CLOCKTYPE_HCLK) == RCC_CLOCKTYPE_HCLK)
 8003a12:	6823      	ldr	r3, [r4, #0]
 8003a14:	f013 0f02 	tst.w	r3, #2
 8003a18:	d017      	beq.n	8003a4a <HAL_RCC_ClockConfig+0x62>
    if (((RCC_ClkInitStruct->ClockType) & RCC_CLOCKTYPE_PCLK1) == RCC_CLOCKTYPE_PCLK1)
 8003a1a:	f013 0f04 	tst.w	r3, #4
 8003a1e:	d004      	beq.n	8003a2a <HAL_RCC_ClockConfig+0x42>
      MODIFY_REG(RCC->CFGR, RCC_CFGR_PPRE1, RCC_HCLK_DIV16);
 8003a20:	4a45      	ldr	r2, [pc, #276]	@ (8003b38 <HAL_RCC_ClockConfig+0x150>)
 8003a22:	6893      	ldr	r3, [r2, #8]
 8003a24:	f443 53e0 	orr.w	r3, r3, #7168	@ 0x1c00
 8003a28:	6093      	str	r3, [r2, #8]
    if (((RCC_ClkInitStruct->ClockType) & RCC_CLOCKTYPE_PCLK2) == RCC_CLOCKTYPE_PCLK2)
 8003a2a:	6823      	ldr	r3, [r4, #0]
 8003a2c:	f013 0f08 	tst.w	r3, #8
 8003a30:	d004      	beq.n	8003a3c <HAL_RCC_ClockConfig+0x54>
      MODIFY_REG(RCC->CFGR, RCC_CFGR_PPRE2, (RCC_HCLK_DIV16 << 3));
 8003a32:	4a41      	ldr	r2, [pc, #260]	@ (8003b38 <HAL_RCC_ClockConfig+0x150>)
 8003a34:	6893      	ldr	r3, [r2, #8]
 8003a36:	f443 4360 	orr.w	r3, r3, #57344	@ 0xe000
 8003a3a:	6093      	str	r3, [r2, #8]
    MODIFY_REG(RCC->CFGR, RCC_CFGR_HPRE, RCC_ClkInitStruct->AHBCLKDivider);
 8003a3c:	4a3e      	ldr	r2, [pc, #248]	@ (8003b38 <HAL_RCC_ClockConfig+0x150>)
 8003a3e:	6893      	ldr	r3, [r2, #8]
 8003a40:	f023 03f0 	bic.w	r3, r3, #240	@ 0xf0
 8003a44:	68a1      	ldr	r1, [r4, #8]
 8003a46:	430b      	orrs	r3, r1
 8003a48:	6093      	str	r3, [r2, #8]
  if (((RCC_ClkInitStruct->ClockType) & RCC_CLOCKTYPE_SYSCLK) == RCC_CLOCKTYPE_SYSCLK)
 8003a4a:	6823      	ldr	r3, [r4, #0]
 8003a4c:	f013 0f01 	tst.w	r3, #1
 8003a50:	d032      	beq.n	8003ab8 <HAL_RCC_ClockConfig+0xd0>
    if (RCC_ClkInitStruct->SYSCLKSource == RCC_SYSCLKSOURCE_HSE)
 8003a52:	6863      	ldr	r3, [r4, #4]
 8003a54:	2b01      	cmp	r3, #1
 8003a56:	d021      	beq.n	8003a9c <HAL_RCC_ClockConfig+0xb4>
    else if ((RCC_ClkInitStruct->SYSCLKSource == RCC_SYSCLKSOURCE_PLLCLK)   ||
 8003a58:	1e9a      	subs	r2, r3, #2
 8003a5a:	2a01      	cmp	r2, #1
 8003a5c:	d925      	bls.n	8003aaa <HAL_RCC_ClockConfig+0xc2>
      if (__HAL_RCC_GET_FLAG(RCC_FLAG_HSIRDY) == RESET)
 8003a5e:	4a36      	ldr	r2, [pc, #216]	@ (8003b38 <HAL_RCC_ClockConfig+0x150>)
 8003a60:	6812      	ldr	r2, [r2, #0]
 8003a62:	f012 0f02 	tst.w	r2, #2
 8003a66:	d061      	beq.n	8003b2c <HAL_RCC_ClockConfig+0x144>
    __HAL_RCC_SYSCLK_CONFIG(RCC_ClkInitStruct->SYSCLKSource);
 8003a68:	4933      	ldr	r1, [pc, #204]	@ (8003b38 <HAL_RCC_ClockConfig+0x150>)
 8003a6a:	688a      	ldr	r2, [r1, #8]
 8003a6c:	f022 0203 	bic.w	r2, r2, #3
 8003a70:	4313      	orrs	r3, r2
 8003a72:	608b      	str	r3, [r1, #8]
    tickstart = HAL_GetTick();
 8003a74:	f7fd ff64 	bl	8001940 <HAL_GetTick>
 8003a78:	4606      	mov	r6, r0
    while (__HAL_RCC_GET_SYSCLK_SOURCE() != (RCC_ClkInitStruct->SYSCLKSource << RCC_CFGR_SWS_Pos))
 8003a7a:	4b2f      	ldr	r3, [pc, #188]	@ (8003b38 <HAL_RCC_ClockConfig+0x150>)
 8003a7c:	689b      	ldr	r3, [r3, #8]
 8003a7e:	f003 030c 	and.w	r3, r3, #12
 8003a82:	6862      	ldr	r2, [r4, #4]
 8003a84:	ebb3 0f82 	cmp.w	r3, r2, lsl #2
 8003a88:	d016      	beq.n	8003ab8 <HAL_RCC_ClockConfig+0xd0>
      if ((HAL_GetTick() - tickstart) > CLOCKSWITCH_TIMEOUT_VALUE)
 8003a8a:	f7fd ff59 	bl	8001940 <HAL_GetTick>
 8003a8e:	1b80      	subs	r0, r0, r6
 8003a90:	f241 3388 	movw	r3, #5000	@ 0x1388
 8003a94:	4298      	cmp	r0, r3
 8003a96:	d9f0      	bls.n	8003a7a <HAL_RCC_ClockConfig+0x92>
        return HAL_TIMEOUT;
 8003a98:	2003      	movs	r0, #3
 8003a9a:	e042      	b.n	8003b22 <HAL_RCC_ClockConfig+0x13a>
      if (__HAL_RCC_GET_FLAG(RCC_FLAG_HSERDY) == RESET)
 8003a9c:	4a26      	ldr	r2, [pc, #152]	@ (8003b38 <HAL_RCC_ClockConfig+0x150>)
 8003a9e:	6812      	ldr	r2, [r2, #0]
 8003aa0:	f412 3f00 	tst.w	r2, #131072	@ 0x20000
 8003aa4:	d1e0      	bne.n	8003a68 <HAL_RCC_ClockConfig+0x80>
        return HAL_ERROR;
 8003aa6:	2001      	movs	r0, #1
 8003aa8:	e03b      	b.n	8003b22 <HAL_RCC_ClockConfig+0x13a>
      if (__HAL_RCC_GET_FLAG(RCC_FLAG_PLLRDY) == RESET)
 8003aaa:	4a23      	ldr	r2, [pc, #140]	@ (8003b38 <HAL_RCC_ClockConfig+0x150>)
 8003aac:	6812      	ldr	r2, [r2, #0]
 8003aae:	f012 7f00 	tst.w	r2, #33554432	@ 0x2000000
 8003ab2:	d1d9      	bne.n	8003a68 <HAL_RCC_ClockConfig+0x80>
        return HAL_ERROR;
 8003ab4:	2001      	movs	r0, #1
 8003ab6:	e034      	b.n	8003b22 <HAL_RCC_ClockConfig+0x13a>
  if (FLatency < __HAL_FLASH_GET_LATENCY())
 8003ab8:	4b1e      	ldr	r3, [pc, #120]	@ (8003b34 <HAL_RCC_ClockConfig+0x14c>)
 8003aba:	681b      	ldr	r3, [r3, #0]
 8003abc:	f003 0307 	and.w	r3, r3, #7
 8003ac0:	42ab      	cmp	r3, r5
 8003ac2:	d907      	bls.n	8003ad4 <HAL_RCC_ClockConfig+0xec>
    __HAL_FLASH_SET_LATENCY(FLatency);
 8003ac4:	b2ea      	uxtb	r2, r5
 8003ac6:	4b1b      	ldr	r3, [pc, #108]	@ (8003b34 <HAL_RCC_ClockConfig+0x14c>)
 8003ac8:	701a      	strb	r2, [r3, #0]
    if (__HAL_FLASH_GET_LATENCY() != FLatency)
 8003aca:	681b      	ldr	r3, [r3, #0]
 8003acc:	f003 0307 	and.w	r3, r3, #7
 8003ad0:	42ab      	cmp	r3, r5
 8003ad2:	d12d      	bne.n	8003b30 <HAL_RCC_ClockConfig+0x148>
  if (((RCC_ClkInitStruct->ClockType) & RCC_CLOCKTYPE_PCLK1) == RCC_CLOCKTYPE_PCLK1)
 8003ad4:	6823      	ldr	r3, [r4, #0]
 8003ad6:	f013 0f04 	tst.w	r3, #4
 8003ada:	d006      	beq.n	8003aea <HAL_RCC_ClockConfig+0x102>
    MODIFY_REG(RCC->CFGR, RCC_CFGR_PPRE1, RCC_ClkInitStruct->APB1CLKDivider);
 8003adc:	4a16      	ldr	r2, [pc, #88]	@ (8003b38 <HAL_RCC_ClockConfig+0x150>)
 8003ade:	6893      	ldr	r3, [r2, #8]
 8003ae0:	f423 53e0 	bic.w	r3, r3, #7168	@ 0x1c00
 8003ae4:	68e1      	ldr	r1, [r4, #12]
 8003ae6:	430b      	orrs	r3, r1
 8003ae8:	6093      	str	r3, [r2, #8]
  if (((RCC_ClkInitStruct->ClockType) & RCC_CLOCKTYPE_PCLK2) == RCC_CLOCKTYPE_PCLK2)
 8003aea:	6823      	ldr	r3, [r4, #0]
 8003aec:	f013 0f08 	tst.w	r3, #8
 8003af0:	d007      	beq.n	8003b02 <HAL_RCC_ClockConfig+0x11a>
    MODIFY_REG(RCC->CFGR, RCC_CFGR_PPRE2, ((RCC_ClkInitStruct->APB2CLKDivider) << 3U));
 8003af2:	4a11      	ldr	r2, [pc, #68]	@ (8003b38 <HAL_RCC_ClockConfig+0x150>)
 8003af4:	6893      	ldr	r3, [r2, #8]
 8003af6:	f423 4360 	bic.w	r3, r3, #57344	@ 0xe000
 8003afa:	6921      	ldr	r1, [r4, #16]
 8003afc:	ea43 03c1 	orr.w	r3, r3, r1, lsl #3
 8003b00:	6093      	str	r3, [r2, #8]
  SystemCoreClock = HAL_RCC_GetSysClockFreq() >> AHBPrescTable[(RCC->CFGR & RCC_CFGR_HPRE) >> RCC_CFGR_HPRE_Pos];
 8003b02:	f7ff ff03 	bl	800390c <HAL_RCC_GetSysClockFreq>
 8003b06:	4b0c      	ldr	r3, [pc, #48]	@ (8003b38 <HAL_RCC_ClockConfig+0x150>)
 8003b08:	689b      	ldr	r3, [r3, #8]
 8003b0a:	f3c3 1303 	ubfx	r3, r3, #4, #4
 8003b0e:	4a0b      	ldr	r2, [pc, #44]	@ (8003b3c <HAL_RCC_ClockConfig+0x154>)
 8003b10:	5cd3      	ldrb	r3, [r2, r3]
 8003b12:	40d8      	lsrs	r0, r3
 8003b14:	4b0a      	ldr	r3, [pc, #40]	@ (8003b40 <HAL_RCC_ClockConfig+0x158>)
 8003b16:	6018      	str	r0, [r3, #0]
  HAL_InitTick(uwTickPrio);
 8003b18:	4b0a      	ldr	r3, [pc, #40]	@ (8003b44 <HAL_RCC_ClockConfig+0x15c>)
 8003b1a:	6818      	ldr	r0, [r3, #0]
 8003b1c:	f000 fe08 	bl	8004730 <HAL_InitTick>
  return HAL_OK;
 8003b20:	2000      	movs	r0, #0
}
 8003b22:	bd70      	pop	{r4, r5, r6, pc}
    return HAL_ERROR;
 8003b24:	2001      	movs	r0, #1
}
 8003b26:	4770      	bx	lr
      return HAL_ERROR;
 8003b28:	2001      	movs	r0, #1
 8003b2a:	e7fa      	b.n	8003b22 <HAL_RCC_ClockConfig+0x13a>
        return HAL_ERROR;
 8003b2c:	2001      	movs	r0, #1
 8003b2e:	e7f8      	b.n	8003b22 <HAL_RCC_ClockConfig+0x13a>
      return HAL_ERROR;
 8003b30:	2001      	movs	r0, #1
 8003b32:	e7f6      	b.n	8003b22 <HAL_RCC_ClockConfig+0x13a>
 8003b34:	40023c00 	.word	0x40023c00
 8003b38:	40023800 	.word	0x40023800
 8003b3c:	08005e84 	.word	0x08005e84
 8003b40:	20000018 	.word	0x20000018
 8003b44:	20000014 	.word	0x20000014

08003b48 <HAL_RCC_GetHCLKFreq>:
  * @retval HCLK frequency
  */
uint32_t HAL_RCC_GetHCLKFreq(void)
{
  return SystemCoreClock;
}
 8003b48:	4b01      	ldr	r3, [pc, #4]	@ (8003b50 <HAL_RCC_GetHCLKFreq+0x8>)
 8003b4a:	6818      	ldr	r0, [r3, #0]
 8003b4c:	4770      	bx	lr
 8003b4e:	bf00      	nop
 8003b50:	20000018 	.word	0x20000018

08003b54 <HAL_RCC_GetPCLK1Freq>:
  * @note   Each time PCLK1 changes, this function must be called to update the
  *         right PCLK1 value. Otherwise, any configuration based on this function will be incorrect.
  * @retval PCLK1 frequency
  */
uint32_t HAL_RCC_GetPCLK1Freq(void)
{
 8003b54:	b508      	push	{r3, lr}
  /* Get HCLK source and Compute PCLK1 frequency ---------------------------*/
  return (HAL_RCC_GetHCLKFreq() >> APBPrescTable[(RCC->CFGR & RCC_CFGR_PPRE1) >> RCC_CFGR_PPRE1_Pos]);
 8003b56:	f7ff fff7 	bl	8003b48 <HAL_RCC_GetHCLKFreq>
 8003b5a:	4b04      	ldr	r3, [pc, #16]	@ (8003b6c <HAL_RCC_GetPCLK1Freq+0x18>)
 8003b5c:	689b      	ldr	r3, [r3, #8]
 8003b5e:	f3c3 2382 	ubfx	r3, r3, #10, #3
 8003b62:	4a03      	ldr	r2, [pc, #12]	@ (8003b70 <HAL_RCC_GetPCLK1Freq+0x1c>)
 8003b64:	5cd3      	ldrb	r3, [r2, r3]
}
 8003b66:	40d8      	lsrs	r0, r3
 8003b68:	bd08      	pop	{r3, pc}
 8003b6a:	bf00      	nop
 8003b6c:	40023800 	.word	0x40023800
 8003b70:	08005e7c 	.word	0x08005e7c

08003b74 <HAL_RCC_GetPCLK2Freq>:
  * @note   Each time PCLK2 changes, this function must be called to update the
  *         right PCLK2 value. Otherwise, any configuration based on this function will be incorrect.
  * @retval PCLK2 frequency
  */
uint32_t HAL_RCC_GetPCLK2Freq(void)
{
 8003b74:	b508      	push	{r3, lr}
  /* Get HCLK source and Compute PCLK2 frequency ---------------------------*/
  return (HAL_RCC_GetHCLKFreq() >> APBPrescTable[(RCC->CFGR & RCC_CFGR_PPRE2) >> RCC_CFGR_PPRE2_Pos]);
 8003b76:	f7ff ffe7 	bl	8003b48 <HAL_RCC_GetHCLKFreq>
 8003b7a:	4b04      	ldr	r3, [pc, #16]	@ (8003b8c <HAL_RCC_GetPCLK2Freq+0x18>)
 8003b7c:	689b      	ldr	r3, [r3, #8]
 8003b7e:	f3c3 3342 	ubfx	r3, r3, #13, #3
 8003b82:	4a03      	ldr	r2, [pc, #12]	@ (8003b90 <HAL_RCC_GetPCLK2Freq+0x1c>)
 8003b84:	5cd3      	ldrb	r3, [r2, r3]
}
 8003b86:	40d8      	lsrs	r0, r3
 8003b88:	bd08      	pop	{r3, pc}
 8003b8a:	bf00      	nop
 8003b8c:	40023800 	.word	0x40023800
 8003b90:	08005e7c 	.word	0x08005e7c

08003b94 <HAL_RCC_GetClockConfig>:
  * @retval None
  */
void HAL_RCC_GetClockConfig(RCC_ClkInitTypeDef  *RCC_ClkInitStruct, uint32_t *pFLatency)
{
  /* Set all possible values for the Clock type parameter --------------------*/
  RCC_ClkInitStruct->ClockType = RCC_CLOCKTYPE_SYSCLK | RCC_CLOCKTYPE_HCLK | RCC_CLOCKTYPE_PCLK1 | RCC_CLOCKTYPE_PCLK2;
 8003b94:	230f      	movs	r3, #15
 8003b96:	6003      	str	r3, [r0, #0]

  /* Get the SYSCLK configuration --------------------------------------------*/
  RCC_ClkInitStruct->SYSCLKSource = (uint32_t)(RCC->CFGR & RCC_CFGR_SW);
 8003b98:	4b0b      	ldr	r3, [pc, #44]	@ (8003bc8 <HAL_RCC_GetClockConfig+0x34>)
 8003b9a:	689a      	ldr	r2, [r3, #8]
 8003b9c:	f002 0203 	and.w	r2, r2, #3
 8003ba0:	6042      	str	r2, [r0, #4]

  /* Get the HCLK configuration ----------------------------------------------*/
  RCC_ClkInitStruct->AHBCLKDivider = (uint32_t)(RCC->CFGR & RCC_CFGR_HPRE);
 8003ba2:	689a      	ldr	r2, [r3, #8]
 8003ba4:	f002 02f0 	and.w	r2, r2, #240	@ 0xf0
 8003ba8:	6082      	str	r2, [r0, #8]

  /* Get the APB1 configuration ----------------------------------------------*/
  RCC_ClkInitStruct->APB1CLKDivider = (uint32_t)(RCC->CFGR & RCC_CFGR_PPRE1);
 8003baa:	689a      	ldr	r2, [r3, #8]
 8003bac:	f402 52e0 	and.w	r2, r2, #7168	@ 0x1c00
 8003bb0:	60c2      	str	r2, [r0, #12]

  /* Get the APB2 configuration ----------------------------------------------*/
  RCC_ClkInitStruct->APB2CLKDivider = (uint32_t)((RCC->CFGR & RCC_CFGR_PPRE2) >> 3U);
 8003bb2:	689b      	ldr	r3, [r3, #8]
 8003bb4:	08db      	lsrs	r3, r3, #3
 8003bb6:	f403 53e0 	and.w	r3, r3, #7168	@ 0x1c00
 8003bba:	6103      	str	r3, [r0, #16]

  /* Get the Flash Wait State (Latency) configuration ------------------------*/
  *pFLatency = (uint32_t)(FLASH->ACR & FLASH_ACR_LATENCY);
 8003bbc:	4b03      	ldr	r3, [pc, #12]	@ (8003bcc <HAL_RCC_GetClockConfig+0x38>)
 8003bbe:	681b      	ldr	r3, [r3, #0]
 8003bc0:	f003 0307 	and.w	r3, r3, #7
 8003bc4:	600b      	str	r3, [r1, #0]
}
 8003bc6:	4770      	bx	lr
 8003bc8:	40023800 	.word	0x40023800
 8003bcc:	40023c00 	.word	0x40023c00

08003bd0 <HAL_RCCEx_PeriphCLKConfig>:
  *        domain (RTC and RCC_BDCR register expect BKPSRAM) will be reset
  *
  * @retval HAL status
  */
HAL_StatusTypeDef HAL_RCCEx_PeriphCLKConfig(RCC_PeriphCLKInitTypeDef  *PeriphClkInit)
{
 8003bd0:	b530      	push	{r4, r5, lr}
 8003bd2:	b083      	sub	sp, #12
 8003bd4:	4605      	mov	r5, r0

  /* Check the parameters */
  assert_param(IS_RCC_PERIPHCLOCK(PeriphClkInit->PeriphClockSelection));

  /*---------------------------- I2S configuration ---------------------------*/
  if ((((PeriphClkInit->PeriphClockSelection) & RCC_PERIPHCLK_I2S) == RCC_PERIPHCLK_I2S) ||
 8003bd6:	6803      	ldr	r3, [r0, #0]
 8003bd8:	f013 0f01 	tst.w	r3, #1
 8003bdc:	d102      	bne.n	8003be4 <HAL_RCCEx_PeriphCLKConfig+0x14>
 8003bde:	f013 0f04 	tst.w	r3, #4
 8003be2:	d02b      	beq.n	8003c3c <HAL_RCCEx_PeriphCLKConfig+0x6c>
    assert_param(IS_RCC_PLLI2SN_VALUE(PeriphClkInit->PLLI2S.PLLI2SN));
#if defined(STM32F411xE)
    assert_param(IS_RCC_PLLI2SM_VALUE(PeriphClkInit->PLLI2S.PLLI2SM));
#endif /* STM32F411xE */
    /* Disable the PLLI2S */
    __HAL_RCC_PLLI2S_DISABLE();
 8003be4:	4b4e      	ldr	r3, [pc, #312]	@ (8003d20 <HAL_RCCEx_PeriphCLKConfig+0x150>)
 8003be6:	2200      	movs	r2, #0
 8003be8:	669a      	str	r2, [r3, #104]	@ 0x68
    /* Get tick */
    tickstart = HAL_GetTick();
 8003bea:	f7fd fea9 	bl	8001940 <HAL_GetTick>
 8003bee:	4604      	mov	r4, r0
    /* Wait till PLLI2S is disabled */
    while (__HAL_RCC_GET_FLAG(RCC_FLAG_PLLI2SRDY)  != RESET)
 8003bf0:	4b4c      	ldr	r3, [pc, #304]	@ (8003d24 <HAL_RCCEx_PeriphCLKConfig+0x154>)
 8003bf2:	681b      	ldr	r3, [r3, #0]
 8003bf4:	f013 6f00 	tst.w	r3, #134217728	@ 0x8000000
 8003bf8:	d006      	beq.n	8003c08 <HAL_RCCEx_PeriphCLKConfig+0x38>
    {
      if ((HAL_GetTick() - tickstart) > PLLI2S_TIMEOUT_VALUE)
 8003bfa:	f7fd fea1 	bl	8001940 <HAL_GetTick>
 8003bfe:	1b03      	subs	r3, r0, r4
 8003c00:	2b02      	cmp	r3, #2
 8003c02:	d9f5      	bls.n	8003bf0 <HAL_RCCEx_PeriphCLKConfig+0x20>
      {
        /* return in case of Timeout detected */
        return HAL_TIMEOUT;
 8003c04:	2003      	movs	r0, #3
 8003c06:	e01e      	b.n	8003c46 <HAL_RCCEx_PeriphCLKConfig+0x76>
                                   PeriphClkInit->PLLI2S.PLLI2SR);
#else
    /* Configure the PLLI2S division factors */
    /* PLLI2S_VCO = f(VCO clock) = f(PLLI2S clock input) * (PLLI2SN/PLLM) */
    /* I2SCLK = f(PLLI2S clock output) = f(VCO clock) / PLLI2SR */
    __HAL_RCC_PLLI2S_CONFIG(PeriphClkInit->PLLI2S.PLLI2SN, PeriphClkInit->PLLI2S.PLLI2SR);
 8003c08:	686a      	ldr	r2, [r5, #4]
 8003c0a:	68ab      	ldr	r3, [r5, #8]
 8003c0c:	071b      	lsls	r3, r3, #28
 8003c0e:	ea43 1382 	orr.w	r3, r3, r2, lsl #6
 8003c12:	4a44      	ldr	r2, [pc, #272]	@ (8003d24 <HAL_RCCEx_PeriphCLKConfig+0x154>)
 8003c14:	f8c2 3084 	str.w	r3, [r2, #132]	@ 0x84
#endif /* STM32F411xE */

    /* Enable the PLLI2S */
    __HAL_RCC_PLLI2S_ENABLE();
 8003c18:	4b41      	ldr	r3, [pc, #260]	@ (8003d20 <HAL_RCCEx_PeriphCLKConfig+0x150>)
 8003c1a:	2201      	movs	r2, #1
 8003c1c:	669a      	str	r2, [r3, #104]	@ 0x68
    /* Get tick */
    tickstart = HAL_GetTick();
 8003c1e:	f7fd fe8f 	bl	8001940 <HAL_GetTick>
 8003c22:	4604      	mov	r4, r0
    /* Wait till PLLI2S is ready */
    while (__HAL_RCC_GET_FLAG(RCC_FLAG_PLLI2SRDY)  == RESET)
 8003c24:	4b3f      	ldr	r3, [pc, #252]	@ (8003d24 <HAL_RCCEx_PeriphCLKConfig+0x154>)
 8003c26:	681b      	ldr	r3, [r3, #0]
 8003c28:	f013 6f00 	tst.w	r3, #134217728	@ 0x8000000
 8003c2c:	d106      	bne.n	8003c3c <HAL_RCCEx_PeriphCLKConfig+0x6c>
    {
      if ((HAL_GetTick() - tickstart) > PLLI2S_TIMEOUT_VALUE)
 8003c2e:	f7fd fe87 	bl	8001940 <HAL_GetTick>
 8003c32:	1b03      	subs	r3, r0, r4
 8003c34:	2b02      	cmp	r3, #2
 8003c36:	d9f5      	bls.n	8003c24 <HAL_RCCEx_PeriphCLKConfig+0x54>
      {
        /* return in case of Timeout detected */
        return HAL_TIMEOUT;
 8003c38:	2003      	movs	r0, #3
 8003c3a:	e004      	b.n	8003c46 <HAL_RCCEx_PeriphCLKConfig+0x76>
      }
    }
  }

  /*---------------------------- RTC configuration ---------------------------*/
  if (((PeriphClkInit->PeriphClockSelection) & RCC_PERIPHCLK_RTC) == (RCC_PERIPHCLK_RTC))
 8003c3c:	682b      	ldr	r3, [r5, #0]
 8003c3e:	f013 0f02 	tst.w	r3, #2
 8003c42:	d102      	bne.n	8003c4a <HAL_RCCEx_PeriphCLKConfig+0x7a>
  if (((PeriphClkInit->PeriphClockSelection) & RCC_PERIPHCLK_TIM) == (RCC_PERIPHCLK_TIM))
  {
    __HAL_RCC_TIMCLKPRESCALER(PeriphClkInit->TIMPresSelection);
  }
#endif /* STM32F401xC || STM32F401xE || STM32F411xE */
  return HAL_OK;
 8003c44:	2000      	movs	r0, #0
}
 8003c46:	b003      	add	sp, #12
 8003c48:	bd30      	pop	{r4, r5, pc}
    __HAL_RCC_PWR_CLK_ENABLE();
 8003c4a:	2300      	movs	r3, #0
 8003c4c:	9301      	str	r3, [sp, #4]
 8003c4e:	4b35      	ldr	r3, [pc, #212]	@ (8003d24 <HAL_RCCEx_PeriphCLKConfig+0x154>)
 8003c50:	6c1a      	ldr	r2, [r3, #64]	@ 0x40
 8003c52:	f042 5280 	orr.w	r2, r2, #268435456	@ 0x10000000
 8003c56:	641a      	str	r2, [r3, #64]	@ 0x40
 8003c58:	6c1b      	ldr	r3, [r3, #64]	@ 0x40
 8003c5a:	f003 5380 	and.w	r3, r3, #268435456	@ 0x10000000
 8003c5e:	9301      	str	r3, [sp, #4]
 8003c60:	9b01      	ldr	r3, [sp, #4]
    PWR->CR |= PWR_CR_DBP;
 8003c62:	4a31      	ldr	r2, [pc, #196]	@ (8003d28 <HAL_RCCEx_PeriphCLKConfig+0x158>)
 8003c64:	6813      	ldr	r3, [r2, #0]
 8003c66:	f443 7380 	orr.w	r3, r3, #256	@ 0x100
 8003c6a:	6013      	str	r3, [r2, #0]
    tickstart = HAL_GetTick();
 8003c6c:	f7fd fe68 	bl	8001940 <HAL_GetTick>
 8003c70:	4604      	mov	r4, r0
    while ((PWR->CR & PWR_CR_DBP) == RESET)
 8003c72:	4b2d      	ldr	r3, [pc, #180]	@ (8003d28 <HAL_RCCEx_PeriphCLKConfig+0x158>)
 8003c74:	681b      	ldr	r3, [r3, #0]
 8003c76:	f413 7f80 	tst.w	r3, #256	@ 0x100
 8003c7a:	d106      	bne.n	8003c8a <HAL_RCCEx_PeriphCLKConfig+0xba>
      if ((HAL_GetTick() - tickstart) > RCC_DBP_TIMEOUT_VALUE)
 8003c7c:	f7fd fe60 	bl	8001940 <HAL_GetTick>
 8003c80:	1b00      	subs	r0, r0, r4
 8003c82:	2802      	cmp	r0, #2
 8003c84:	d9f5      	bls.n	8003c72 <HAL_RCCEx_PeriphCLKConfig+0xa2>
        return HAL_TIMEOUT;
 8003c86:	2003      	movs	r0, #3
 8003c88:	e7dd      	b.n	8003c46 <HAL_RCCEx_PeriphCLKConfig+0x76>
    tmpreg1 = (RCC->BDCR & RCC_BDCR_RTCSEL);
 8003c8a:	4b26      	ldr	r3, [pc, #152]	@ (8003d24 <HAL_RCCEx_PeriphCLKConfig+0x154>)
 8003c8c:	6f1b      	ldr	r3, [r3, #112]	@ 0x70
    if ((tmpreg1 != 0x00000000U) && ((tmpreg1) != (PeriphClkInit->RTCClockSelection & RCC_BDCR_RTCSEL)))
 8003c8e:	f413 7340 	ands.w	r3, r3, #768	@ 0x300
 8003c92:	d014      	beq.n	8003cbe <HAL_RCCEx_PeriphCLKConfig+0xee>
 8003c94:	68ea      	ldr	r2, [r5, #12]
 8003c96:	f402 7240 	and.w	r2, r2, #768	@ 0x300
 8003c9a:	429a      	cmp	r2, r3
 8003c9c:	d00f      	beq.n	8003cbe <HAL_RCCEx_PeriphCLKConfig+0xee>
      tmpreg1 = (RCC->BDCR & ~(RCC_BDCR_RTCSEL));
 8003c9e:	4b21      	ldr	r3, [pc, #132]	@ (8003d24 <HAL_RCCEx_PeriphCLKConfig+0x154>)
 8003ca0:	6f1a      	ldr	r2, [r3, #112]	@ 0x70
 8003ca2:	f422 7240 	bic.w	r2, r2, #768	@ 0x300
      __HAL_RCC_BACKUPRESET_FORCE();
 8003ca6:	491e      	ldr	r1, [pc, #120]	@ (8003d20 <HAL_RCCEx_PeriphCLKConfig+0x150>)
 8003ca8:	2001      	movs	r0, #1
 8003caa:	f8c1 0e40 	str.w	r0, [r1, #3648]	@ 0xe40
      __HAL_RCC_BACKUPRESET_RELEASE();
 8003cae:	2000      	movs	r0, #0
 8003cb0:	f8c1 0e40 	str.w	r0, [r1, #3648]	@ 0xe40
      RCC->BDCR = tmpreg1;
 8003cb4:	671a      	str	r2, [r3, #112]	@ 0x70
      if (HAL_IS_BIT_SET(RCC->BDCR, RCC_BDCR_LSEON))
 8003cb6:	6f1b      	ldr	r3, [r3, #112]	@ 0x70
 8003cb8:	f013 0f01 	tst.w	r3, #1
 8003cbc:	d113      	bne.n	8003ce6 <HAL_RCCEx_PeriphCLKConfig+0x116>
    __HAL_RCC_RTC_CONFIG(PeriphClkInit->RTCClockSelection);
 8003cbe:	68eb      	ldr	r3, [r5, #12]
 8003cc0:	f403 7240 	and.w	r2, r3, #768	@ 0x300
 8003cc4:	f5b2 7f40 	cmp.w	r2, #768	@ 0x300
 8003cc8:	d01e      	beq.n	8003d08 <HAL_RCCEx_PeriphCLKConfig+0x138>
 8003cca:	4a16      	ldr	r2, [pc, #88]	@ (8003d24 <HAL_RCCEx_PeriphCLKConfig+0x154>)
 8003ccc:	6893      	ldr	r3, [r2, #8]
 8003cce:	f423 13f8 	bic.w	r3, r3, #2031616	@ 0x1f0000
 8003cd2:	6093      	str	r3, [r2, #8]
 8003cd4:	4913      	ldr	r1, [pc, #76]	@ (8003d24 <HAL_RCCEx_PeriphCLKConfig+0x154>)
 8003cd6:	6f0b      	ldr	r3, [r1, #112]	@ 0x70
 8003cd8:	68ea      	ldr	r2, [r5, #12]
 8003cda:	f3c2 020b 	ubfx	r2, r2, #0, #12
 8003cde:	4313      	orrs	r3, r2
 8003ce0:	670b      	str	r3, [r1, #112]	@ 0x70
  return HAL_OK;
 8003ce2:	2000      	movs	r0, #0
 8003ce4:	e7af      	b.n	8003c46 <HAL_RCCEx_PeriphCLKConfig+0x76>
        tickstart = HAL_GetTick();
 8003ce6:	f7fd fe2b 	bl	8001940 <HAL_GetTick>
 8003cea:	4604      	mov	r4, r0
        while (__HAL_RCC_GET_FLAG(RCC_FLAG_LSERDY) == RESET)
 8003cec:	4b0d      	ldr	r3, [pc, #52]	@ (8003d24 <HAL_RCCEx_PeriphCLKConfig+0x154>)
 8003cee:	6f1b      	ldr	r3, [r3, #112]	@ 0x70
 8003cf0:	f013 0f02 	tst.w	r3, #2
 8003cf4:	d1e3      	bne.n	8003cbe <HAL_RCCEx_PeriphCLKConfig+0xee>
          if ((HAL_GetTick() - tickstart) > RCC_LSE_TIMEOUT_VALUE)
 8003cf6:	f7fd fe23 	bl	8001940 <HAL_GetTick>
 8003cfa:	1b03      	subs	r3, r0, r4
 8003cfc:	f241 3288 	movw	r2, #5000	@ 0x1388
 8003d00:	4293      	cmp	r3, r2
 8003d02:	d9f3      	bls.n	8003cec <HAL_RCCEx_PeriphCLKConfig+0x11c>
            return HAL_TIMEOUT;
 8003d04:	2003      	movs	r0, #3
 8003d06:	e79e      	b.n	8003c46 <HAL_RCCEx_PeriphCLKConfig+0x76>
    __HAL_RCC_RTC_CONFIG(PeriphClkInit->RTCClockSelection);
 8003d08:	4906      	ldr	r1, [pc, #24]	@ (8003d24 <HAL_RCCEx_PeriphCLKConfig+0x154>)
 8003d0a:	688a      	ldr	r2, [r1, #8]
 8003d0c:	f422 12f8 	bic.w	r2, r2, #2031616	@ 0x1f0000
 8003d10:	f023 4370 	bic.w	r3, r3, #4026531840	@ 0xf0000000
 8003d14:	f423 7340 	bic.w	r3, r3, #768	@ 0x300
 8003d18:	4313      	orrs	r3, r2
 8003d1a:	608b      	str	r3, [r1, #8]
 8003d1c:	e7da      	b.n	8003cd4 <HAL_RCCEx_PeriphCLKConfig+0x104>
 8003d1e:	bf00      	nop
 8003d20:	42470000 	.word	0x42470000
 8003d24:	40023800 	.word	0x40023800
 8003d28:	40007000 	.word	0x40007000

08003d2c <HAL_RCCEx_GetPeriphCLKFreq>:
  /* This variable used to store the VCO Input (value in Hz) */
  uint32_t vcoinput = 0U;
  uint32_t srcclk = 0U;
  /* This variable used to store the VCO Output (value in Hz) */
  uint32_t vcooutput = 0U;
  switch (PeriphClk)
 8003d2c:	2801      	cmp	r0, #1
 8003d2e:	d001      	beq.n	8003d34 <HAL_RCCEx_GetPeriphCLKFreq+0x8>
  uint32_t frequency = 0U;
 8003d30:	2000      	movs	r0, #0
 8003d32:	4770      	bx	lr
  {
    case RCC_PERIPHCLK_I2S:
    {
      /* Get the current I2S source */
      srcclk = __HAL_RCC_GET_I2S_SOURCE();
 8003d34:	4b15      	ldr	r3, [pc, #84]	@ (8003d8c <HAL_RCCEx_GetPeriphCLKFreq+0x60>)
 8003d36:	689b      	ldr	r3, [r3, #8]
      switch (srcclk)
 8003d38:	f413 0300 	ands.w	r3, r3, #8388608	@ 0x800000
 8003d3c:	d002      	beq.n	8003d44 <HAL_RCCEx_GetPeriphCLKFreq+0x18>
 8003d3e:	b31b      	cbz	r3, 8003d88 <HAL_RCCEx_GetPeriphCLKFreq+0x5c>
 8003d40:	4813      	ldr	r0, [pc, #76]	@ (8003d90 <HAL_RCCEx_GetPeriphCLKFreq+0x64>)
 8003d42:	4770      	bx	lr
            vcoinput = (uint32_t)(HSI_VALUE / (uint32_t)(RCC->PLLI2SCFGR & RCC_PLLI2SCFGR_PLLI2SM));
          }
#else
          /* Configure the PLLI2S division factor */
          /* PLLI2S_VCO Input  = PLL_SOURCE/PLLM */
          if ((RCC->PLLCFGR & RCC_PLLCFGR_PLLSRC) == RCC_PLLSOURCE_HSE)
 8003d44:	4b11      	ldr	r3, [pc, #68]	@ (8003d8c <HAL_RCCEx_GetPeriphCLKFreq+0x60>)
 8003d46:	685b      	ldr	r3, [r3, #4]
 8003d48:	f413 0f80 	tst.w	r3, #4194304	@ 0x400000
 8003d4c:	d014      	beq.n	8003d78 <HAL_RCCEx_GetPeriphCLKFreq+0x4c>
          {
            /* Get the I2S source clock value */
            vcoinput = (uint32_t)(HSE_VALUE / (uint32_t)(RCC->PLLCFGR & RCC_PLLCFGR_PLLM));
 8003d4e:	4b0f      	ldr	r3, [pc, #60]	@ (8003d8c <HAL_RCCEx_GetPeriphCLKFreq+0x60>)
 8003d50:	685a      	ldr	r2, [r3, #4]
 8003d52:	f002 023f 	and.w	r2, r2, #63	@ 0x3f
 8003d56:	4b0f      	ldr	r3, [pc, #60]	@ (8003d94 <HAL_RCCEx_GetPeriphCLKFreq+0x68>)
 8003d58:	fbb3 f3f2 	udiv	r3, r3, r2
            /* Get the I2S source clock value */
            vcoinput = (uint32_t)(HSI_VALUE / (uint32_t)(RCC->PLLCFGR & RCC_PLLCFGR_PLLM));
          }
#endif /* STM32F411xE */
          /* PLLI2S_VCO Output = PLLI2S_VCO Input * PLLI2SN */
          vcooutput = (uint32_t)(vcoinput * (((RCC->PLLI2SCFGR & RCC_PLLI2SCFGR_PLLI2SN) >> 6U) & (RCC_PLLI2SCFGR_PLLI2SN >> 6U)));
 8003d5c:	4a0b      	ldr	r2, [pc, #44]	@ (8003d8c <HAL_RCCEx_GetPeriphCLKFreq+0x60>)
 8003d5e:	f8d2 0084 	ldr.w	r0, [r2, #132]	@ 0x84
 8003d62:	f3c0 1088 	ubfx	r0, r0, #6, #9
 8003d66:	fb03 f000 	mul.w	r0, r3, r0
          /* I2S_CLK = PLLI2S_VCO Output/PLLI2SR */
          frequency = (uint32_t)(vcooutput / (((RCC->PLLI2SCFGR & RCC_PLLI2SCFGR_PLLI2SR) >> 28U) & (RCC_PLLI2SCFGR_PLLI2SR >> 28U)));
 8003d6a:	f8d2 3084 	ldr.w	r3, [r2, #132]	@ 0x84
 8003d6e:	f3c3 7302 	ubfx	r3, r3, #28, #3
 8003d72:	fbb0 f0f3 	udiv	r0, r0, r3
          break;
 8003d76:	4770      	bx	lr
            vcoinput = (uint32_t)(HSI_VALUE / (uint32_t)(RCC->PLLCFGR & RCC_PLLCFGR_PLLM));
 8003d78:	4b04      	ldr	r3, [pc, #16]	@ (8003d8c <HAL_RCCEx_GetPeriphCLKFreq+0x60>)
 8003d7a:	685a      	ldr	r2, [r3, #4]
 8003d7c:	f002 023f 	and.w	r2, r2, #63	@ 0x3f
 8003d80:	4b05      	ldr	r3, [pc, #20]	@ (8003d98 <HAL_RCCEx_GetPeriphCLKFreq+0x6c>)
 8003d82:	fbb3 f3f2 	udiv	r3, r3, r2
 8003d86:	e7e9      	b.n	8003d5c <HAL_RCCEx_GetPeriphCLKFreq+0x30>
        }
        /* Clock not enabled for I2S*/
        default:
        {
          frequency = 0U;
 8003d88:	4618      	mov	r0, r3
    {
      break;
    }
  }
  return frequency;
}
 8003d8a:	4770      	bx	lr
 8003d8c:	40023800 	.word	0x40023800
 8003d90:	00bb8000 	.word	0x00bb8000
 8003d94:	007a1200 	.word	0x007a1200
 8003d98:	00f42400 	.word	0x00f42400

08003d9c <SPI_WaitFlagStateUntilTimeout>:
  * @param  Tickstart tick start value
  * @retval HAL status
  */
static HAL_StatusTypeDef SPI_WaitFlagStateUntilTimeout(SPI_HandleTypeDef *hspi, uint32_t Flag, FlagStatus State,
                                                       uint32_t Timeout, uint32_t Tickstart)
{
 8003d9c:	e92d 43f0 	stmdb	sp!, {r4, r5, r6, r7, r8, r9, lr}
 8003da0:	b083      	sub	sp, #12
 8003da2:	4604      	mov	r4, r0
 8003da4:	460f      	mov	r7, r1
 8003da6:	4616      	mov	r6, r2
 8003da8:	461d      	mov	r5, r3
  __IO uint32_t count;
  uint32_t tmp_timeout;
  uint32_t tmp_tickstart;

  /* Adjust Timeout value  in case of end of transfer */
  tmp_timeout   = Timeout - (HAL_GetTick() - Tickstart);
 8003daa:	f7fd fdc9 	bl	8001940 <HAL_GetTick>
 8003dae:	9b0a      	ldr	r3, [sp, #40]	@ 0x28
 8003db0:	1a1b      	subs	r3, r3, r0
 8003db2:	eb03 0805 	add.w	r8, r3, r5
  tmp_tickstart = HAL_GetTick();
 8003db6:	f7fd fdc3 	bl	8001940 <HAL_GetTick>
 8003dba:	4681      	mov	r9, r0

  /* Calculate Timeout based on a software loop to avoid blocking issue if Systick is disabled */
  count = tmp_timeout * ((SystemCoreClock * 32U) >> 20U);
 8003dbc:	4b28      	ldr	r3, [pc, #160]	@ (8003e60 <SPI_WaitFlagStateUntilTimeout+0xc4>)
 8003dbe:	681b      	ldr	r3, [r3, #0]
 8003dc0:	f3c3 33cb 	ubfx	r3, r3, #15, #12
 8003dc4:	fb08 f303 	mul.w	r3, r8, r3
 8003dc8:	9301      	str	r3, [sp, #4]

  while ((__HAL_SPI_GET_FLAG(hspi, Flag) ? SET : RESET) != State)
 8003dca:	6823      	ldr	r3, [r4, #0]
 8003dcc:	689b      	ldr	r3, [r3, #8]
 8003dce:	ea37 0303 	bics.w	r3, r7, r3
 8003dd2:	bf0c      	ite	eq
 8003dd4:	2301      	moveq	r3, #1
 8003dd6:	2300      	movne	r3, #0
 8003dd8:	42b3      	cmp	r3, r6
 8003dda:	d03d      	beq.n	8003e58 <SPI_WaitFlagStateUntilTimeout+0xbc>
  {
    if (Timeout != HAL_MAX_DELAY)
 8003ddc:	f1b5 3fff 	cmp.w	r5, #4294967295
 8003de0:	d0f3      	beq.n	8003dca <SPI_WaitFlagStateUntilTimeout+0x2e>
    {
      if (((HAL_GetTick() - tmp_tickstart) >= tmp_timeout) || (tmp_timeout == 0U))
 8003de2:	f7fd fdad 	bl	8001940 <HAL_GetTick>
 8003de6:	464b      	mov	r3, r9
 8003de8:	1ac0      	subs	r0, r0, r3
 8003dea:	4540      	cmp	r0, r8
 8003dec:	d203      	bcs.n	8003df6 <SPI_WaitFlagStateUntilTimeout+0x5a>
        __HAL_UNLOCK(hspi);

        return HAL_TIMEOUT;
      }
      /* If Systick is disabled or not incremented, deactivate timeout to go in disable loop procedure */
      if (count == 0U)
 8003dee:	9b01      	ldr	r3, [sp, #4]
 8003df0:	bb73      	cbnz	r3, 8003e50 <SPI_WaitFlagStateUntilTimeout+0xb4>
      {
        tmp_timeout = 0U;
 8003df2:	4698      	mov	r8, r3
 8003df4:	e7e9      	b.n	8003dca <SPI_WaitFlagStateUntilTimeout+0x2e>
        __HAL_SPI_DISABLE_IT(hspi, (SPI_IT_TXE | SPI_IT_RXNE | SPI_IT_ERR));
 8003df6:	6822      	ldr	r2, [r4, #0]
 8003df8:	6853      	ldr	r3, [r2, #4]
 8003dfa:	f023 03e0 	bic.w	r3, r3, #224	@ 0xe0
 8003dfe:	6053      	str	r3, [r2, #4]
        if ((hspi->Init.Mode == SPI_MODE_MASTER) && ((hspi->Init.Direction == SPI_DIRECTION_1LINE)
 8003e00:	6863      	ldr	r3, [r4, #4]
 8003e02:	f5b3 7f82 	cmp.w	r3, #260	@ 0x104
 8003e06:	d00b      	beq.n	8003e20 <SPI_WaitFlagStateUntilTimeout+0x84>
        if (hspi->Init.CRCCalculation == SPI_CRCCALCULATION_ENABLE)
 8003e08:	6aa3      	ldr	r3, [r4, #40]	@ 0x28
 8003e0a:	f5b3 5f00 	cmp.w	r3, #8192	@ 0x2000
 8003e0e:	d014      	beq.n	8003e3a <SPI_WaitFlagStateUntilTimeout+0x9e>
        hspi->State = HAL_SPI_STATE_READY;
 8003e10:	2301      	movs	r3, #1
 8003e12:	f884 3051 	strb.w	r3, [r4, #81]	@ 0x51
        __HAL_UNLOCK(hspi);
 8003e16:	2300      	movs	r3, #0
 8003e18:	f884 3050 	strb.w	r3, [r4, #80]	@ 0x50
        return HAL_TIMEOUT;
 8003e1c:	2003      	movs	r0, #3
 8003e1e:	e01c      	b.n	8003e5a <SPI_WaitFlagStateUntilTimeout+0xbe>
        if ((hspi->Init.Mode == SPI_MODE_MASTER) && ((hspi->Init.Direction == SPI_DIRECTION_1LINE)
 8003e20:	68a3      	ldr	r3, [r4, #8]
 8003e22:	f5b3 4f00 	cmp.w	r3, #32768	@ 0x8000
 8003e26:	d002      	beq.n	8003e2e <SPI_WaitFlagStateUntilTimeout+0x92>
                                                     || (hspi->Init.Direction == SPI_DIRECTION_2LINES_RXONLY)))
 8003e28:	f5b3 6f80 	cmp.w	r3, #1024	@ 0x400
 8003e2c:	d1ec      	bne.n	8003e08 <SPI_WaitFlagStateUntilTimeout+0x6c>
          __HAL_SPI_DISABLE(hspi);
 8003e2e:	6822      	ldr	r2, [r4, #0]
 8003e30:	6813      	ldr	r3, [r2, #0]
 8003e32:	f023 0340 	bic.w	r3, r3, #64	@ 0x40
 8003e36:	6013      	str	r3, [r2, #0]
 8003e38:	e7e6      	b.n	8003e08 <SPI_WaitFlagStateUntilTimeout+0x6c>
          SPI_RESET_CRC(hspi);
 8003e3a:	6822      	ldr	r2, [r4, #0]
 8003e3c:	6813      	ldr	r3, [r2, #0]
 8003e3e:	f423 5300 	bic.w	r3, r3, #8192	@ 0x2000
 8003e42:	6013      	str	r3, [r2, #0]
 8003e44:	6822      	ldr	r2, [r4, #0]
 8003e46:	6813      	ldr	r3, [r2, #0]
 8003e48:	f443 5300 	orr.w	r3, r3, #8192	@ 0x2000
 8003e4c:	6013      	str	r3, [r2, #0]
 8003e4e:	e7df      	b.n	8003e10 <SPI_WaitFlagStateUntilTimeout+0x74>
      }
      else
      {
        count--;
 8003e50:	9b01      	ldr	r3, [sp, #4]
 8003e52:	3b01      	subs	r3, #1
 8003e54:	9301      	str	r3, [sp, #4]
 8003e56:	e7b8      	b.n	8003dca <SPI_WaitFlagStateUntilTimeout+0x2e>
      }
    }
  }

  return HAL_OK;
 8003e58:	2000      	movs	r0, #0
}
 8003e5a:	b003      	add	sp, #12
 8003e5c:	e8bd 83f0 	ldmia.w	sp!, {r4, r5, r6, r7, r8, r9, pc}
 8003e60:	20000018 	.word	0x20000018

08003e64 <SPI_EndRxTxTransaction>:
  * @param  Timeout Timeout duration
  * @param  Tickstart tick start value
  * @retval HAL status
  */
static HAL_StatusTypeDef SPI_EndRxTxTransaction(SPI_HandleTypeDef *hspi, uint32_t Timeout, uint32_t Tickstart)
{
 8003e64:	b570      	push	{r4, r5, r6, lr}
 8003e66:	b084      	sub	sp, #16
 8003e68:	4604      	mov	r4, r0
 8003e6a:	460b      	mov	r3, r1
 8003e6c:	460d      	mov	r5, r1
 8003e6e:	4616      	mov	r6, r2
  __IO uint32_t count;

  /* Wait until TXE flag */
  if (SPI_WaitFlagStateUntilTimeout(hspi, SPI_FLAG_TXE, SET, Timeout, Tickstart) != HAL_OK)
 8003e70:	9200      	str	r2, [sp, #0]
 8003e72:	2201      	movs	r2, #1
 8003e74:	2102      	movs	r1, #2
 8003e76:	f7ff ff91 	bl	8003d9c <SPI_WaitFlagStateUntilTimeout>
 8003e7a:	b9d0      	cbnz	r0, 8003eb2 <SPI_EndRxTxTransaction+0x4e>
    SET_BIT(hspi->ErrorCode, HAL_SPI_ERROR_FLAG);
    return HAL_TIMEOUT;
  }

  /* Timeout in us */
  count = SPI_BSY_FLAG_WORKAROUND_TIMEOUT * (SystemCoreClock / 24U / 1000000U);
 8003e7c:	4b17      	ldr	r3, [pc, #92]	@ (8003edc <SPI_EndRxTxTransaction+0x78>)
 8003e7e:	681b      	ldr	r3, [r3, #0]
 8003e80:	4a17      	ldr	r2, [pc, #92]	@ (8003ee0 <SPI_EndRxTxTransaction+0x7c>)
 8003e82:	fba2 2303 	umull	r2, r3, r2, r3
 8003e86:	0d5b      	lsrs	r3, r3, #21
 8003e88:	f44f 727a 	mov.w	r2, #1000	@ 0x3e8
 8003e8c:	fb02 f303 	mul.w	r3, r2, r3
 8003e90:	9303      	str	r3, [sp, #12]
  /* Erratasheet: BSY bit may stay high at the end of a data transfer in Slave mode */
  if (hspi->Init.Mode == SPI_MODE_MASTER)
 8003e92:	6863      	ldr	r3, [r4, #4]
 8003e94:	f5b3 7f82 	cmp.w	r3, #260	@ 0x104
 8003e98:	d011      	beq.n	8003ebe <SPI_EndRxTxTransaction+0x5a>
    * User have to calculate the timeout value to fit with the time of 1 byte transfer.
    * This time is directly link with the SPI clock from Master device.
    */
    do
    {
      if (count == 0U)
 8003e9a:	9b03      	ldr	r3, [sp, #12]
 8003e9c:	b13b      	cbz	r3, 8003eae <SPI_EndRxTxTransaction+0x4a>
      {
        break;
      }
      count--;
 8003e9e:	9b03      	ldr	r3, [sp, #12]
 8003ea0:	3b01      	subs	r3, #1
 8003ea2:	9303      	str	r3, [sp, #12]
    } while (__HAL_SPI_GET_FLAG(hspi, SPI_FLAG_BSY) != RESET);
 8003ea4:	6823      	ldr	r3, [r4, #0]
 8003ea6:	689b      	ldr	r3, [r3, #8]
 8003ea8:	f013 0f80 	tst.w	r3, #128	@ 0x80
 8003eac:	d1f5      	bne.n	8003e9a <SPI_EndRxTxTransaction+0x36>
  }

  return HAL_OK;
}
 8003eae:	b004      	add	sp, #16
 8003eb0:	bd70      	pop	{r4, r5, r6, pc}
    SET_BIT(hspi->ErrorCode, HAL_SPI_ERROR_FLAG);
 8003eb2:	6d63      	ldr	r3, [r4, #84]	@ 0x54
 8003eb4:	f043 0320 	orr.w	r3, r3, #32
 8003eb8:	6563      	str	r3, [r4, #84]	@ 0x54
    return HAL_TIMEOUT;
 8003eba:	2003      	movs	r0, #3
 8003ebc:	e7f7      	b.n	8003eae <SPI_EndRxTxTransaction+0x4a>
    if (SPI_WaitFlagStateUntilTimeout(hspi, SPI_FLAG_BSY, RESET, Timeout, Tickstart) != HAL_OK)
 8003ebe:	9600      	str	r6, [sp, #0]
 8003ec0:	462b      	mov	r3, r5
 8003ec2:	2200      	movs	r2, #0
 8003ec4:	2180      	movs	r1, #128	@ 0x80
 8003ec6:	4620      	mov	r0, r4
 8003ec8:	f7ff ff68 	bl	8003d9c <SPI_WaitFlagStateUntilTimeout>
 8003ecc:	2800      	cmp	r0, #0
 8003ece:	d0ee      	beq.n	8003eae <SPI_EndRxTxTransaction+0x4a>
      SET_BIT(hspi->ErrorCode, HAL_SPI_ERROR_FLAG);
 8003ed0:	6d63      	ldr	r3, [r4, #84]	@ 0x54
 8003ed2:	f043 0320 	orr.w	r3, r3, #32
 8003ed6:	6563      	str	r3, [r4, #84]	@ 0x54
      return HAL_TIMEOUT;
 8003ed8:	2003      	movs	r0, #3
 8003eda:	e7e8      	b.n	8003eae <SPI_EndRxTxTransaction+0x4a>
 8003edc:	20000018 	.word	0x20000018
 8003ee0:	165e9f81 	.word	0x165e9f81

08003ee4 <SPI_EndRxTransaction>:
{
 8003ee4:	b510      	push	{r4, lr}
 8003ee6:	b082      	sub	sp, #8
 8003ee8:	4604      	mov	r4, r0
 8003eea:	460b      	mov	r3, r1
  if ((hspi->Init.Mode == SPI_MODE_MASTER) && ((hspi->Init.Direction == SPI_DIRECTION_1LINE)
 8003eec:	6841      	ldr	r1, [r0, #4]
 8003eee:	f5b1 7f82 	cmp.w	r1, #260	@ 0x104
 8003ef2:	d014      	beq.n	8003f1e <SPI_EndRxTransaction+0x3a>
  if (hspi->Init.Mode == SPI_MODE_MASTER)
 8003ef4:	6861      	ldr	r1, [r4, #4]
 8003ef6:	f5b1 7f82 	cmp.w	r1, #260	@ 0x104
 8003efa:	d12a      	bne.n	8003f52 <SPI_EndRxTransaction+0x6e>
    if (hspi->Init.Direction != SPI_DIRECTION_2LINES_RXONLY)
 8003efc:	68a1      	ldr	r1, [r4, #8]
 8003efe:	f5b1 6f80 	cmp.w	r1, #1024	@ 0x400
 8003f02:	d019      	beq.n	8003f38 <SPI_EndRxTransaction+0x54>
      if (SPI_WaitFlagStateUntilTimeout(hspi, SPI_FLAG_BSY, RESET, Timeout, Tickstart) != HAL_OK)
 8003f04:	9200      	str	r2, [sp, #0]
 8003f06:	2200      	movs	r2, #0
 8003f08:	2180      	movs	r1, #128	@ 0x80
 8003f0a:	4620      	mov	r0, r4
 8003f0c:	f7ff ff46 	bl	8003d9c <SPI_WaitFlagStateUntilTimeout>
 8003f10:	b330      	cbz	r0, 8003f60 <SPI_EndRxTransaction+0x7c>
        SET_BIT(hspi->ErrorCode, HAL_SPI_ERROR_FLAG);
 8003f12:	6d63      	ldr	r3, [r4, #84]	@ 0x54
 8003f14:	f043 0320 	orr.w	r3, r3, #32
 8003f18:	6563      	str	r3, [r4, #84]	@ 0x54
        return HAL_TIMEOUT;
 8003f1a:	2003      	movs	r0, #3
 8003f1c:	e020      	b.n	8003f60 <SPI_EndRxTransaction+0x7c>
  if ((hspi->Init.Mode == SPI_MODE_MASTER) && ((hspi->Init.Direction == SPI_DIRECTION_1LINE)
 8003f1e:	6881      	ldr	r1, [r0, #8]
 8003f20:	f5b1 4f00 	cmp.w	r1, #32768	@ 0x8000
 8003f24:	d002      	beq.n	8003f2c <SPI_EndRxTransaction+0x48>
                                               || (hspi->Init.Direction == SPI_DIRECTION_2LINES_RXONLY)))
 8003f26:	f5b1 6f80 	cmp.w	r1, #1024	@ 0x400
 8003f2a:	d1e3      	bne.n	8003ef4 <SPI_EndRxTransaction+0x10>
    __HAL_SPI_DISABLE(hspi);
 8003f2c:	6820      	ldr	r0, [r4, #0]
 8003f2e:	6801      	ldr	r1, [r0, #0]
 8003f30:	f021 0140 	bic.w	r1, r1, #64	@ 0x40
 8003f34:	6001      	str	r1, [r0, #0]
 8003f36:	e7dd      	b.n	8003ef4 <SPI_EndRxTransaction+0x10>
      if (SPI_WaitFlagStateUntilTimeout(hspi, SPI_FLAG_RXNE, RESET, Timeout, Tickstart) != HAL_OK)
 8003f38:	9200      	str	r2, [sp, #0]
 8003f3a:	2200      	movs	r2, #0
 8003f3c:	2101      	movs	r1, #1
 8003f3e:	4620      	mov	r0, r4
 8003f40:	f7ff ff2c 	bl	8003d9c <SPI_WaitFlagStateUntilTimeout>
 8003f44:	b160      	cbz	r0, 8003f60 <SPI_EndRxTransaction+0x7c>
        SET_BIT(hspi->ErrorCode, HAL_SPI_ERROR_FLAG);
 8003f46:	6d63      	ldr	r3, [r4, #84]	@ 0x54
 8003f48:	f043 0320 	orr.w	r3, r3, #32
 8003f4c:	6563      	str	r3, [r4, #84]	@ 0x54
        return HAL_TIMEOUT;
 8003f4e:	2003      	movs	r0, #3
 8003f50:	e006      	b.n	8003f60 <SPI_EndRxTransaction+0x7c>
    if (SPI_WaitFlagStateUntilTimeout(hspi, SPI_FLAG_RXNE, RESET, Timeout, Tickstart) != HAL_OK)
 8003f52:	9200      	str	r2, [sp, #0]
 8003f54:	2200      	movs	r2, #0
 8003f56:	2101      	movs	r1, #1
 8003f58:	4620      	mov	r0, r4
 8003f5a:	f7ff ff1f 	bl	8003d9c <SPI_WaitFlagStateUntilTimeout>
 8003f5e:	b908      	cbnz	r0, 8003f64 <SPI_EndRxTransaction+0x80>
}
 8003f60:	b002      	add	sp, #8
 8003f62:	bd10      	pop	{r4, pc}
      SET_BIT(hspi->ErrorCode, HAL_SPI_ERROR_FLAG);
 8003f64:	6d63      	ldr	r3, [r4, #84]	@ 0x54
 8003f66:	f043 0320 	orr.w	r3, r3, #32
 8003f6a:	6563      	str	r3, [r4, #84]	@ 0x54
      return HAL_TIMEOUT;
 8003f6c:	2003      	movs	r0, #3
 8003f6e:	e7f7      	b.n	8003f60 <SPI_EndRxTransaction+0x7c>

08003f70 <HAL_SPI_Init>:
  if (hspi == NULL)
 8003f70:	2800      	cmp	r0, #0
 8003f72:	d05a      	beq.n	800402a <HAL_SPI_Init+0xba>
{
 8003f74:	b510      	push	{r4, lr}
 8003f76:	4604      	mov	r4, r0
  if (hspi->Init.TIMode == SPI_TIMODE_DISABLE)
 8003f78:	6a43      	ldr	r3, [r0, #36]	@ 0x24
 8003f7a:	b933      	cbnz	r3, 8003f8a <HAL_SPI_Init+0x1a>
    if (hspi->Init.Mode == SPI_MODE_MASTER)
 8003f7c:	6843      	ldr	r3, [r0, #4]
 8003f7e:	f5b3 7f82 	cmp.w	r3, #260	@ 0x104
 8003f82:	d005      	beq.n	8003f90 <HAL_SPI_Init+0x20>
      hspi->Init.BaudRatePrescaler = SPI_BAUDRATEPRESCALER_2;
 8003f84:	2300      	movs	r3, #0
 8003f86:	61c3      	str	r3, [r0, #28]
 8003f88:	e002      	b.n	8003f90 <HAL_SPI_Init+0x20>
    hspi->Init.CLKPolarity = SPI_POLARITY_LOW;
 8003f8a:	2300      	movs	r3, #0
 8003f8c:	6103      	str	r3, [r0, #16]
    hspi->Init.CLKPhase    = SPI_PHASE_1EDGE;
 8003f8e:	6143      	str	r3, [r0, #20]
  hspi->Init.CRCCalculation = SPI_CRCCALCULATION_DISABLE;
 8003f90:	2300      	movs	r3, #0
 8003f92:	62a3      	str	r3, [r4, #40]	@ 0x28
  if (hspi->State == HAL_SPI_STATE_RESET)
 8003f94:	f894 3051 	ldrb.w	r3, [r4, #81]	@ 0x51
 8003f98:	2b00      	cmp	r3, #0
 8003f9a:	d040      	beq.n	800401e <HAL_SPI_Init+0xae>
  hspi->State = HAL_SPI_STATE_BUSY;
 8003f9c:	2302      	movs	r3, #2
 8003f9e:	f884 3051 	strb.w	r3, [r4, #81]	@ 0x51
  __HAL_SPI_DISABLE(hspi);
 8003fa2:	6822      	ldr	r2, [r4, #0]
 8003fa4:	6813      	ldr	r3, [r2, #0]
 8003fa6:	f023 0340 	bic.w	r3, r3, #64	@ 0x40
 8003faa:	6013      	str	r3, [r2, #0]
  WRITE_REG(hspi->Instance->CR1, ((hspi->Init.Mode & (SPI_CR1_MSTR | SPI_CR1_SSI)) |
 8003fac:	6863      	ldr	r3, [r4, #4]
 8003fae:	f403 7382 	and.w	r3, r3, #260	@ 0x104
 8003fb2:	68a2      	ldr	r2, [r4, #8]
 8003fb4:	f402 4204 	and.w	r2, r2, #33792	@ 0x8400
 8003fb8:	4313      	orrs	r3, r2
 8003fba:	68e2      	ldr	r2, [r4, #12]
 8003fbc:	f402 6200 	and.w	r2, r2, #2048	@ 0x800
 8003fc0:	4313      	orrs	r3, r2
 8003fc2:	6922      	ldr	r2, [r4, #16]
 8003fc4:	f002 0202 	and.w	r2, r2, #2
 8003fc8:	4313      	orrs	r3, r2
 8003fca:	6962      	ldr	r2, [r4, #20]
 8003fcc:	f002 0201 	and.w	r2, r2, #1
 8003fd0:	4313      	orrs	r3, r2
 8003fd2:	69a2      	ldr	r2, [r4, #24]
 8003fd4:	f402 7200 	and.w	r2, r2, #512	@ 0x200
 8003fd8:	4313      	orrs	r3, r2
 8003fda:	69e2      	ldr	r2, [r4, #28]
 8003fdc:	f002 0238 	and.w	r2, r2, #56	@ 0x38
 8003fe0:	4313      	orrs	r3, r2
 8003fe2:	6a22      	ldr	r2, [r4, #32]
 8003fe4:	f002 0280 	and.w	r2, r2, #128	@ 0x80
 8003fe8:	4313      	orrs	r3, r2
 8003fea:	6aa2      	ldr	r2, [r4, #40]	@ 0x28
 8003fec:	f402 5200 	and.w	r2, r2, #8192	@ 0x2000
 8003ff0:	6821      	ldr	r1, [r4, #0]
 8003ff2:	4313      	orrs	r3, r2
 8003ff4:	600b      	str	r3, [r1, #0]
  WRITE_REG(hspi->Instance->CR2, (((hspi->Init.NSS >> 16U) & SPI_CR2_SSOE) | (hspi->Init.TIMode & SPI_CR2_FRF)));
 8003ff6:	8b63      	ldrh	r3, [r4, #26]
 8003ff8:	f003 0304 	and.w	r3, r3, #4
 8003ffc:	6a62      	ldr	r2, [r4, #36]	@ 0x24
 8003ffe:	f002 0210 	and.w	r2, r2, #16
 8004002:	6821      	ldr	r1, [r4, #0]
 8004004:	4313      	orrs	r3, r2
 8004006:	604b      	str	r3, [r1, #4]
  CLEAR_BIT(hspi->Instance->I2SCFGR, SPI_I2SCFGR_I2SMOD);
 8004008:	6822      	ldr	r2, [r4, #0]
 800400a:	69d3      	ldr	r3, [r2, #28]
 800400c:	f423 6300 	bic.w	r3, r3, #2048	@ 0x800
 8004010:	61d3      	str	r3, [r2, #28]
  hspi->ErrorCode = HAL_SPI_ERROR_NONE;
 8004012:	2000      	movs	r0, #0
 8004014:	6560      	str	r0, [r4, #84]	@ 0x54
  hspi->State     = HAL_SPI_STATE_READY;
 8004016:	2301      	movs	r3, #1
 8004018:	f884 3051 	strb.w	r3, [r4, #81]	@ 0x51
}
 800401c:	bd10      	pop	{r4, pc}
    hspi->Lock = HAL_UNLOCKED;
 800401e:	f884 3050 	strb.w	r3, [r4, #80]	@ 0x50
    HAL_SPI_MspInit(hspi);
 8004022:	4620      	mov	r0, r4
 8004024:	f7fe fcfc 	bl	8002a20 <HAL_SPI_MspInit>
 8004028:	e7b8      	b.n	8003f9c <HAL_SPI_Init+0x2c>
    return HAL_ERROR;
 800402a:	2001      	movs	r0, #1
}
 800402c:	4770      	bx	lr

0800402e <HAL_SPI_TransmitReceive>:
{
 800402e:	e92d 43f0 	stmdb	sp!, {r4, r5, r6, r7, r8, r9, lr}
 8004032:	b083      	sub	sp, #12
 8004034:	4604      	mov	r4, r0
 8004036:	460f      	mov	r7, r1
 8004038:	4691      	mov	r9, r2
 800403a:	4698      	mov	r8, r3
 800403c:	9d0a      	ldr	r5, [sp, #40]	@ 0x28
  tickstart = HAL_GetTick();
 800403e:	f7fd fc7f 	bl	8001940 <HAL_GetTick>
 8004042:	4606      	mov	r6, r0
  tmp_state           = hspi->State;
 8004044:	f894 3051 	ldrb.w	r3, [r4, #81]	@ 0x51
  tmp_mode            = hspi->Init.Mode;
 8004048:	6862      	ldr	r2, [r4, #4]
  if (!((tmp_state == HAL_SPI_STATE_READY) || \
 800404a:	2b01      	cmp	r3, #1
 800404c:	d00b      	beq.n	8004066 <HAL_SPI_TransmitReceive+0x38>
 800404e:	b2d9      	uxtb	r1, r3
 8004050:	f5b2 7f82 	cmp.w	r2, #260	@ 0x104
 8004054:	f040 810d 	bne.w	8004272 <HAL_SPI_TransmitReceive+0x244>
        ((tmp_mode == SPI_MODE_MASTER) && (hspi->Init.Direction == SPI_DIRECTION_2LINES) &&
 8004058:	68a3      	ldr	r3, [r4, #8]
 800405a:	2b00      	cmp	r3, #0
 800405c:	f040 810d 	bne.w	800427a <HAL_SPI_TransmitReceive+0x24c>
 8004060:	2904      	cmp	r1, #4
 8004062:	f040 810c 	bne.w	800427e <HAL_SPI_TransmitReceive+0x250>
  if ((pTxData == NULL) || (pRxData == NULL) || (Size == 0U))
 8004066:	2f00      	cmp	r7, #0
 8004068:	f000 810b 	beq.w	8004282 <HAL_SPI_TransmitReceive+0x254>
 800406c:	464b      	mov	r3, r9
 800406e:	2b00      	cmp	r3, #0
 8004070:	f000 8109 	beq.w	8004286 <HAL_SPI_TransmitReceive+0x258>
 8004074:	4643      	mov	r3, r8
 8004076:	2b00      	cmp	r3, #0
 8004078:	f000 8107 	beq.w	800428a <HAL_SPI_TransmitReceive+0x25c>
  __HAL_LOCK(hspi);
 800407c:	f894 3050 	ldrb.w	r3, [r4, #80]	@ 0x50
 8004080:	2b01      	cmp	r3, #1
 8004082:	f000 8104 	beq.w	800428e <HAL_SPI_TransmitReceive+0x260>
 8004086:	2301      	movs	r3, #1
 8004088:	f884 3050 	strb.w	r3, [r4, #80]	@ 0x50
  if (hspi->State != HAL_SPI_STATE_BUSY_RX)
 800408c:	f894 3051 	ldrb.w	r3, [r4, #81]	@ 0x51
 8004090:	2b04      	cmp	r3, #4
 8004092:	d002      	beq.n	800409a <HAL_SPI_TransmitReceive+0x6c>
    hspi->State = HAL_SPI_STATE_BUSY_TX_RX;
 8004094:	2305      	movs	r3, #5
 8004096:	f884 3051 	strb.w	r3, [r4, #81]	@ 0x51
  hspi->ErrorCode   = HAL_SPI_ERROR_NONE;
 800409a:	2300      	movs	r3, #0
 800409c:	6563      	str	r3, [r4, #84]	@ 0x54
  hspi->pRxBuffPtr  = (uint8_t *)pRxData;
 800409e:	f8c4 9038 	str.w	r9, [r4, #56]	@ 0x38
  hspi->RxXferCount = Size;
 80040a2:	f8a4 803e 	strh.w	r8, [r4, #62]	@ 0x3e
  hspi->RxXferSize  = Size;
 80040a6:	f8a4 803c 	strh.w	r8, [r4, #60]	@ 0x3c
  hspi->pTxBuffPtr  = (const uint8_t *)pTxData;
 80040aa:	6327      	str	r7, [r4, #48]	@ 0x30
  hspi->TxXferCount = Size;
 80040ac:	f8a4 8036 	strh.w	r8, [r4, #54]	@ 0x36
  hspi->TxXferSize  = Size;
 80040b0:	f8a4 8034 	strh.w	r8, [r4, #52]	@ 0x34
  hspi->RxISR       = NULL;
 80040b4:	6423      	str	r3, [r4, #64]	@ 0x40
  hspi->TxISR       = NULL;
 80040b6:	6463      	str	r3, [r4, #68]	@ 0x44
  if ((hspi->Instance->CR1 & SPI_CR1_SPE) != SPI_CR1_SPE)
 80040b8:	6823      	ldr	r3, [r4, #0]
 80040ba:	681a      	ldr	r2, [r3, #0]
 80040bc:	f012 0f40 	tst.w	r2, #64	@ 0x40
 80040c0:	d103      	bne.n	80040ca <HAL_SPI_TransmitReceive+0x9c>
    __HAL_SPI_ENABLE(hspi);
 80040c2:	681a      	ldr	r2, [r3, #0]
 80040c4:	f042 0240 	orr.w	r2, r2, #64	@ 0x40
 80040c8:	601a      	str	r2, [r3, #0]
  if (hspi->Init.DataSize == SPI_DATASIZE_16BIT)
 80040ca:	68e3      	ldr	r3, [r4, #12]
 80040cc:	f5b3 6f00 	cmp.w	r3, #2048	@ 0x800
 80040d0:	d013      	beq.n	80040fa <HAL_SPI_TransmitReceive+0xcc>
    if ((hspi->Init.Mode == SPI_MODE_SLAVE) || (initial_TxXferCount == 0x01U))
 80040d2:	6863      	ldr	r3, [r4, #4]
 80040d4:	b113      	cbz	r3, 80040dc <HAL_SPI_TransmitReceive+0xae>
 80040d6:	4643      	mov	r3, r8
 80040d8:	2b01      	cmp	r3, #1
 80040da:	d10b      	bne.n	80040f4 <HAL_SPI_TransmitReceive+0xc6>
      *((__IO uint8_t *)&hspi->Instance->DR) = *((const uint8_t *)hspi->pTxBuffPtr);
 80040dc:	6b22      	ldr	r2, [r4, #48]	@ 0x30
 80040de:	6823      	ldr	r3, [r4, #0]
 80040e0:	7812      	ldrb	r2, [r2, #0]
 80040e2:	731a      	strb	r2, [r3, #12]
      hspi->pTxBuffPtr += sizeof(uint8_t);
 80040e4:	6b23      	ldr	r3, [r4, #48]	@ 0x30
 80040e6:	3301      	adds	r3, #1
 80040e8:	6323      	str	r3, [r4, #48]	@ 0x30
      hspi->TxXferCount--;
 80040ea:	8ee3      	ldrh	r3, [r4, #54]	@ 0x36
 80040ec:	b29b      	uxth	r3, r3
 80040ee:	3b01      	subs	r3, #1
 80040f0:	b29b      	uxth	r3, r3
 80040f2:	86e3      	strh	r3, [r4, #54]	@ 0x36
        txallowed = 1U;
 80040f4:	2301      	movs	r3, #1
 80040f6:	461f      	mov	r7, r3
 80040f8:	e074      	b.n	80041e4 <HAL_SPI_TransmitReceive+0x1b6>
    if ((hspi->Init.Mode == SPI_MODE_SLAVE) || (initial_TxXferCount == 0x01U))
 80040fa:	6863      	ldr	r3, [r4, #4]
 80040fc:	b113      	cbz	r3, 8004104 <HAL_SPI_TransmitReceive+0xd6>
 80040fe:	4643      	mov	r3, r8
 8004100:	2b01      	cmp	r3, #1
 8004102:	d10b      	bne.n	800411c <HAL_SPI_TransmitReceive+0xee>
      hspi->Instance->DR = *((const uint16_t *)hspi->pTxBuffPtr);
 8004104:	6b22      	ldr	r2, [r4, #48]	@ 0x30
 8004106:	6823      	ldr	r3, [r4, #0]
 8004108:	8812      	ldrh	r2, [r2, #0]
 800410a:	60da      	str	r2, [r3, #12]
      hspi->pTxBuffPtr += sizeof(uint16_t);
 800410c:	6b23      	ldr	r3, [r4, #48]	@ 0x30
 800410e:	3302      	adds	r3, #2
 8004110:	6323      	str	r3, [r4, #48]	@ 0x30
      hspi->TxXferCount--;
 8004112:	8ee3      	ldrh	r3, [r4, #54]	@ 0x36
 8004114:	b29b      	uxth	r3, r3
 8004116:	3b01      	subs	r3, #1
 8004118:	b29b      	uxth	r3, r3
 800411a:	86e3      	strh	r3, [r4, #54]	@ 0x36
        txallowed = 1U;
 800411c:	2301      	movs	r3, #1
 800411e:	461f      	mov	r7, r3
 8004120:	e01b      	b.n	800415a <HAL_SPI_TransmitReceive+0x12c>
      if ((__HAL_SPI_GET_FLAG(hspi, SPI_FLAG_RXNE)) && (hspi->RxXferCount > 0U))
 8004122:	6822      	ldr	r2, [r4, #0]
 8004124:	6893      	ldr	r3, [r2, #8]
 8004126:	f013 0301 	ands.w	r3, r3, #1
 800412a:	d00e      	beq.n	800414a <HAL_SPI_TransmitReceive+0x11c>
 800412c:	8fe1      	ldrh	r1, [r4, #62]	@ 0x3e
 800412e:	b289      	uxth	r1, r1
 8004130:	b159      	cbz	r1, 800414a <HAL_SPI_TransmitReceive+0x11c>
        *((uint16_t *)hspi->pRxBuffPtr) = (uint16_t)hspi->Instance->DR;
 8004132:	68d1      	ldr	r1, [r2, #12]
 8004134:	6ba2      	ldr	r2, [r4, #56]	@ 0x38
 8004136:	8011      	strh	r1, [r2, #0]
        hspi->pRxBuffPtr += sizeof(uint16_t);
 8004138:	6ba2      	ldr	r2, [r4, #56]	@ 0x38
 800413a:	3202      	adds	r2, #2
 800413c:	63a2      	str	r2, [r4, #56]	@ 0x38
        hspi->RxXferCount--;
 800413e:	8fe2      	ldrh	r2, [r4, #62]	@ 0x3e
 8004140:	b292      	uxth	r2, r2
 8004142:	3a01      	subs	r2, #1
 8004144:	b292      	uxth	r2, r2
 8004146:	87e2      	strh	r2, [r4, #62]	@ 0x3e
        txallowed = 1U;
 8004148:	461f      	mov	r7, r3
      if (((HAL_GetTick() - tickstart) >=  Timeout) && (Timeout != HAL_MAX_DELAY))
 800414a:	f7fd fbf9 	bl	8001940 <HAL_GetTick>
 800414e:	1b80      	subs	r0, r0, r6
 8004150:	42a8      	cmp	r0, r5
 8004152:	d302      	bcc.n	800415a <HAL_SPI_TransmitReceive+0x12c>
 8004154:	f1b5 3fff 	cmp.w	r5, #4294967295
 8004158:	d11f      	bne.n	800419a <HAL_SPI_TransmitReceive+0x16c>
    while ((hspi->TxXferCount > 0U) || (hspi->RxXferCount > 0U))
 800415a:	8ee3      	ldrh	r3, [r4, #54]	@ 0x36
 800415c:	b29b      	uxth	r3, r3
 800415e:	b91b      	cbnz	r3, 8004168 <HAL_SPI_TransmitReceive+0x13a>
 8004160:	8fe3      	ldrh	r3, [r4, #62]	@ 0x3e
 8004162:	b29b      	uxth	r3, r3
 8004164:	2b00      	cmp	r3, #0
 8004166:	d064      	beq.n	8004232 <HAL_SPI_TransmitReceive+0x204>
      if ((__HAL_SPI_GET_FLAG(hspi, SPI_FLAG_TXE)) && (hspi->TxXferCount > 0U) && (txallowed == 1U))
 8004168:	6823      	ldr	r3, [r4, #0]
 800416a:	689a      	ldr	r2, [r3, #8]
 800416c:	f012 0f02 	tst.w	r2, #2
 8004170:	d0d7      	beq.n	8004122 <HAL_SPI_TransmitReceive+0xf4>
 8004172:	8ee2      	ldrh	r2, [r4, #54]	@ 0x36
 8004174:	b292      	uxth	r2, r2
 8004176:	2a00      	cmp	r2, #0
 8004178:	d0d3      	beq.n	8004122 <HAL_SPI_TransmitReceive+0xf4>
 800417a:	2f00      	cmp	r7, #0
 800417c:	d0d1      	beq.n	8004122 <HAL_SPI_TransmitReceive+0xf4>
        hspi->Instance->DR = *((const uint16_t *)hspi->pTxBuffPtr);
 800417e:	6b22      	ldr	r2, [r4, #48]	@ 0x30
 8004180:	8812      	ldrh	r2, [r2, #0]
 8004182:	60da      	str	r2, [r3, #12]
        hspi->pTxBuffPtr += sizeof(uint16_t);
 8004184:	6b23      	ldr	r3, [r4, #48]	@ 0x30
 8004186:	3302      	adds	r3, #2
 8004188:	6323      	str	r3, [r4, #48]	@ 0x30
        hspi->TxXferCount--;
 800418a:	8ee3      	ldrh	r3, [r4, #54]	@ 0x36
 800418c:	b29b      	uxth	r3, r3
 800418e:	3b01      	subs	r3, #1
 8004190:	b29b      	uxth	r3, r3
 8004192:	86e3      	strh	r3, [r4, #54]	@ 0x36
        txallowed = 0U;
 8004194:	2300      	movs	r3, #0
 8004196:	461f      	mov	r7, r3
 8004198:	e7c3      	b.n	8004122 <HAL_SPI_TransmitReceive+0xf4>
        hspi->State = HAL_SPI_STATE_READY;
 800419a:	2301      	movs	r3, #1
 800419c:	f884 3051 	strb.w	r3, [r4, #81]	@ 0x51
        __HAL_UNLOCK(hspi);
 80041a0:	2300      	movs	r3, #0
 80041a2:	f884 3050 	strb.w	r3, [r4, #80]	@ 0x50
        return HAL_TIMEOUT;
 80041a6:	2003      	movs	r0, #3
 80041a8:	e064      	b.n	8004274 <HAL_SPI_TransmitReceive+0x246>
      if ((__HAL_SPI_GET_FLAG(hspi, SPI_FLAG_RXNE)) && (hspi->RxXferCount > 0U))
 80041aa:	6822      	ldr	r2, [r4, #0]
 80041ac:	6893      	ldr	r3, [r2, #8]
 80041ae:	f013 0301 	ands.w	r3, r3, #1
 80041b2:	d00e      	beq.n	80041d2 <HAL_SPI_TransmitReceive+0x1a4>
 80041b4:	8fe1      	ldrh	r1, [r4, #62]	@ 0x3e
 80041b6:	b289      	uxth	r1, r1
 80041b8:	b159      	cbz	r1, 80041d2 <HAL_SPI_TransmitReceive+0x1a4>
        (*(uint8_t *)hspi->pRxBuffPtr) = hspi->Instance->DR;
 80041ba:	68d1      	ldr	r1, [r2, #12]
 80041bc:	6ba2      	ldr	r2, [r4, #56]	@ 0x38
 80041be:	7011      	strb	r1, [r2, #0]
        hspi->pRxBuffPtr++;
 80041c0:	6ba2      	ldr	r2, [r4, #56]	@ 0x38
 80041c2:	3201      	adds	r2, #1
 80041c4:	63a2      	str	r2, [r4, #56]	@ 0x38
        hspi->RxXferCount--;
 80041c6:	8fe2      	ldrh	r2, [r4, #62]	@ 0x3e
 80041c8:	b292      	uxth	r2, r2
 80041ca:	3a01      	subs	r2, #1
 80041cc:	b292      	uxth	r2, r2
 80041ce:	87e2      	strh	r2, [r4, #62]	@ 0x3e
        txallowed = 1U;
 80041d0:	461f      	mov	r7, r3
      if ((((HAL_GetTick() - tickstart) >=  Timeout) && ((Timeout != HAL_MAX_DELAY))) || (Timeout == 0U))
 80041d2:	f7fd fbb5 	bl	8001940 <HAL_GetTick>
 80041d6:	1b83      	subs	r3, r0, r6
 80041d8:	42ab      	cmp	r3, r5
 80041da:	d302      	bcc.n	80041e2 <HAL_SPI_TransmitReceive+0x1b4>
 80041dc:	f1b5 3fff 	cmp.w	r5, #4294967295
 80041e0:	d11f      	bne.n	8004222 <HAL_SPI_TransmitReceive+0x1f4>
 80041e2:	b1f5      	cbz	r5, 8004222 <HAL_SPI_TransmitReceive+0x1f4>
    while ((hspi->TxXferCount > 0U) || (hspi->RxXferCount > 0U))
 80041e4:	8ee3      	ldrh	r3, [r4, #54]	@ 0x36
 80041e6:	b29b      	uxth	r3, r3
 80041e8:	b913      	cbnz	r3, 80041f0 <HAL_SPI_TransmitReceive+0x1c2>
 80041ea:	8fe3      	ldrh	r3, [r4, #62]	@ 0x3e
 80041ec:	b29b      	uxth	r3, r3
 80041ee:	b303      	cbz	r3, 8004232 <HAL_SPI_TransmitReceive+0x204>
      if ((__HAL_SPI_GET_FLAG(hspi, SPI_FLAG_TXE)) && (hspi->TxXferCount > 0U) && (txallowed == 1U))
 80041f0:	6823      	ldr	r3, [r4, #0]
 80041f2:	689a      	ldr	r2, [r3, #8]
 80041f4:	f012 0f02 	tst.w	r2, #2
 80041f8:	d0d7      	beq.n	80041aa <HAL_SPI_TransmitReceive+0x17c>
 80041fa:	8ee2      	ldrh	r2, [r4, #54]	@ 0x36
 80041fc:	b292      	uxth	r2, r2
 80041fe:	2a00      	cmp	r2, #0
 8004200:	d0d3      	beq.n	80041aa <HAL_SPI_TransmitReceive+0x17c>
 8004202:	2f00      	cmp	r7, #0
 8004204:	d0d1      	beq.n	80041aa <HAL_SPI_TransmitReceive+0x17c>
        *(__IO uint8_t *)&hspi->Instance->DR = *((const uint8_t *)hspi->pTxBuffPtr);
 8004206:	6b22      	ldr	r2, [r4, #48]	@ 0x30
 8004208:	7812      	ldrb	r2, [r2, #0]
 800420a:	731a      	strb	r2, [r3, #12]
        hspi->pTxBuffPtr++;
 800420c:	6b23      	ldr	r3, [r4, #48]	@ 0x30
 800420e:	3301      	adds	r3, #1
 8004210:	6323      	str	r3, [r4, #48]	@ 0x30
        hspi->TxXferCount--;
 8004212:	8ee3      	ldrh	r3, [r4, #54]	@ 0x36
 8004214:	b29b      	uxth	r3, r3
 8004216:	3b01      	subs	r3, #1
 8004218:	b29b      	uxth	r3, r3
 800421a:	86e3      	strh	r3, [r4, #54]	@ 0x36
        txallowed = 0U;
 800421c:	2300      	movs	r3, #0
 800421e:	461f      	mov	r7, r3
 8004220:	e7c3      	b.n	80041aa <HAL_SPI_TransmitReceive+0x17c>
        hspi->State = HAL_SPI_STATE_READY;
 8004222:	2301      	movs	r3, #1
 8004224:	f884 3051 	strb.w	r3, [r4, #81]	@ 0x51
        __HAL_UNLOCK(hspi);
 8004228:	2300      	movs	r3, #0
 800422a:	f884 3050 	strb.w	r3, [r4, #80]	@ 0x50
        return HAL_TIMEOUT;
 800422e:	2003      	movs	r0, #3
 8004230:	e020      	b.n	8004274 <HAL_SPI_TransmitReceive+0x246>
  if (SPI_EndRxTxTransaction(hspi, Timeout, tickstart) != HAL_OK)
 8004232:	4632      	mov	r2, r6
 8004234:	4629      	mov	r1, r5
 8004236:	4620      	mov	r0, r4
 8004238:	f7ff fe14 	bl	8003e64 <SPI_EndRxTxTransaction>
 800423c:	b990      	cbnz	r0, 8004264 <HAL_SPI_TransmitReceive+0x236>
  if (hspi->Init.Direction == SPI_DIRECTION_2LINES)
 800423e:	68a3      	ldr	r3, [r4, #8]
 8004240:	b933      	cbnz	r3, 8004250 <HAL_SPI_TransmitReceive+0x222>
    __HAL_SPI_CLEAR_OVRFLAG(hspi);
 8004242:	9301      	str	r3, [sp, #4]
 8004244:	6823      	ldr	r3, [r4, #0]
 8004246:	68da      	ldr	r2, [r3, #12]
 8004248:	9201      	str	r2, [sp, #4]
 800424a:	689b      	ldr	r3, [r3, #8]
 800424c:	9301      	str	r3, [sp, #4]
 800424e:	9b01      	ldr	r3, [sp, #4]
  hspi->State = HAL_SPI_STATE_READY;
 8004250:	2301      	movs	r3, #1
 8004252:	f884 3051 	strb.w	r3, [r4, #81]	@ 0x51
  __HAL_UNLOCK(hspi);
 8004256:	2300      	movs	r3, #0
 8004258:	f884 3050 	strb.w	r3, [r4, #80]	@ 0x50
  if (hspi->ErrorCode != HAL_SPI_ERROR_NONE)
 800425c:	6d63      	ldr	r3, [r4, #84]	@ 0x54
 800425e:	b14b      	cbz	r3, 8004274 <HAL_SPI_TransmitReceive+0x246>
    return HAL_ERROR;
 8004260:	2001      	movs	r0, #1
 8004262:	e007      	b.n	8004274 <HAL_SPI_TransmitReceive+0x246>
    hspi->ErrorCode = HAL_SPI_ERROR_FLAG;
 8004264:	2320      	movs	r3, #32
 8004266:	6563      	str	r3, [r4, #84]	@ 0x54
    __HAL_UNLOCK(hspi);
 8004268:	2300      	movs	r3, #0
 800426a:	f884 3050 	strb.w	r3, [r4, #80]	@ 0x50
    return HAL_ERROR;
 800426e:	2001      	movs	r0, #1
 8004270:	e000      	b.n	8004274 <HAL_SPI_TransmitReceive+0x246>
    return HAL_BUSY;
 8004272:	2002      	movs	r0, #2
}
 8004274:	b003      	add	sp, #12
 8004276:	e8bd 83f0 	ldmia.w	sp!, {r4, r5, r6, r7, r8, r9, pc}
    return HAL_BUSY;
 800427a:	2002      	movs	r0, #2
 800427c:	e7fa      	b.n	8004274 <HAL_SPI_TransmitReceive+0x246>
 800427e:	2002      	movs	r0, #2
 8004280:	e7f8      	b.n	8004274 <HAL_SPI_TransmitReceive+0x246>
    return HAL_ERROR;
 8004282:	2001      	movs	r0, #1
 8004284:	e7f6      	b.n	8004274 <HAL_SPI_TransmitReceive+0x246>
 8004286:	2001      	movs	r0, #1
 8004288:	e7f4      	b.n	8004274 <HAL_SPI_TransmitReceive+0x246>
 800428a:	2001      	movs	r0, #1
 800428c:	e7f2      	b.n	8004274 <HAL_SPI_TransmitReceive+0x246>
  __HAL_LOCK(hspi);
 800428e:	2002      	movs	r0, #2
 8004290:	e7f0      	b.n	8004274 <HAL_SPI_TransmitReceive+0x246>

08004292 <HAL_SPI_Receive>:
{
 8004292:	e92d 43f0 	stmdb	sp!, {r4, r5, r6, r7, r8, r9, lr}
 8004296:	b083      	sub	sp, #12
 8004298:	461d      	mov	r5, r3
  if (hspi->State != HAL_SPI_STATE_READY)
 800429a:	f890 3051 	ldrb.w	r3, [r0, #81]	@ 0x51
 800429e:	2b01      	cmp	r3, #1
 80042a0:	f040 80b2 	bne.w	8004408 <HAL_SPI_Receive+0x176>
 80042a4:	4604      	mov	r4, r0
 80042a6:	4688      	mov	r8, r1
 80042a8:	4691      	mov	r9, r2
 80042aa:	b2de      	uxtb	r6, r3
  if ((pData == NULL) || (Size == 0U))
 80042ac:	2900      	cmp	r1, #0
 80042ae:	f000 80ac 	beq.w	800440a <HAL_SPI_Receive+0x178>
 80042b2:	2a00      	cmp	r2, #0
 80042b4:	f000 80a9 	beq.w	800440a <HAL_SPI_Receive+0x178>
  if ((hspi->Init.Mode == SPI_MODE_MASTER) && (hspi->Init.Direction == SPI_DIRECTION_2LINES))
 80042b8:	6843      	ldr	r3, [r0, #4]
 80042ba:	f5b3 7f82 	cmp.w	r3, #260	@ 0x104
 80042be:	d101      	bne.n	80042c4 <HAL_SPI_Receive+0x32>
 80042c0:	6883      	ldr	r3, [r0, #8]
 80042c2:	b353      	cbz	r3, 800431a <HAL_SPI_Receive+0x88>
  tickstart = HAL_GetTick();
 80042c4:	f7fd fb3c 	bl	8001940 <HAL_GetTick>
 80042c8:	4607      	mov	r7, r0
  __HAL_LOCK(hspi);
 80042ca:	f894 3050 	ldrb.w	r3, [r4, #80]	@ 0x50
 80042ce:	2b01      	cmp	r3, #1
 80042d0:	f000 809f 	beq.w	8004412 <HAL_SPI_Receive+0x180>
 80042d4:	2301      	movs	r3, #1
 80042d6:	f884 3050 	strb.w	r3, [r4, #80]	@ 0x50
  hspi->State       = HAL_SPI_STATE_BUSY_RX;
 80042da:	2304      	movs	r3, #4
 80042dc:	f884 3051 	strb.w	r3, [r4, #81]	@ 0x51
  hspi->ErrorCode   = HAL_SPI_ERROR_NONE;
 80042e0:	2300      	movs	r3, #0
 80042e2:	6563      	str	r3, [r4, #84]	@ 0x54
  hspi->pRxBuffPtr  = (uint8_t *)pData;
 80042e4:	f8c4 8038 	str.w	r8, [r4, #56]	@ 0x38
  hspi->RxXferSize  = Size;
 80042e8:	f8a4 903c 	strh.w	r9, [r4, #60]	@ 0x3c
  hspi->RxXferCount = Size;
 80042ec:	f8a4 903e 	strh.w	r9, [r4, #62]	@ 0x3e
  hspi->pTxBuffPtr  = (uint8_t *)NULL;
 80042f0:	6323      	str	r3, [r4, #48]	@ 0x30
  hspi->TxXferSize  = 0U;
 80042f2:	86a3      	strh	r3, [r4, #52]	@ 0x34
  hspi->TxXferCount = 0U;
 80042f4:	86e3      	strh	r3, [r4, #54]	@ 0x36
  hspi->RxISR       = NULL;
 80042f6:	6423      	str	r3, [r4, #64]	@ 0x40
  hspi->TxISR       = NULL;
 80042f8:	6463      	str	r3, [r4, #68]	@ 0x44
  if (hspi->Init.Direction == SPI_DIRECTION_1LINE)
 80042fa:	68a3      	ldr	r3, [r4, #8]
 80042fc:	f5b3 4f00 	cmp.w	r3, #32768	@ 0x8000
 8004300:	d015      	beq.n	800432e <HAL_SPI_Receive+0x9c>
  if ((hspi->Instance->CR1 & SPI_CR1_SPE) != SPI_CR1_SPE)
 8004302:	6823      	ldr	r3, [r4, #0]
 8004304:	681a      	ldr	r2, [r3, #0]
 8004306:	f012 0f40 	tst.w	r2, #64	@ 0x40
 800430a:	d103      	bne.n	8004314 <HAL_SPI_Receive+0x82>
    __HAL_SPI_ENABLE(hspi);
 800430c:	681a      	ldr	r2, [r3, #0]
 800430e:	f042 0240 	orr.w	r2, r2, #64	@ 0x40
 8004312:	601a      	str	r2, [r3, #0]
  if (hspi->Init.DataSize == SPI_DATASIZE_8BIT)
 8004314:	68e3      	ldr	r3, [r4, #12]
 8004316:	b1f3      	cbz	r3, 8004356 <HAL_SPI_Receive+0xc4>
 8004318:	e043      	b.n	80043a2 <HAL_SPI_Receive+0x110>
    hspi->State = HAL_SPI_STATE_BUSY_RX;
 800431a:	2304      	movs	r3, #4
 800431c:	f880 3051 	strb.w	r3, [r0, #81]	@ 0x51
    return HAL_SPI_TransmitReceive(hspi, pData, pData, Size, Timeout);
 8004320:	9500      	str	r5, [sp, #0]
 8004322:	4613      	mov	r3, r2
 8004324:	460a      	mov	r2, r1
 8004326:	f7ff fe82 	bl	800402e <HAL_SPI_TransmitReceive>
 800432a:	4606      	mov	r6, r0
 800432c:	e06d      	b.n	800440a <HAL_SPI_Receive+0x178>
    __HAL_SPI_DISABLE(hspi);
 800432e:	6822      	ldr	r2, [r4, #0]
 8004330:	6813      	ldr	r3, [r2, #0]
 8004332:	f023 0340 	bic.w	r3, r3, #64	@ 0x40
 8004336:	6013      	str	r3, [r2, #0]
    SPI_1LINE_RX(hspi);
 8004338:	6822      	ldr	r2, [r4, #0]
 800433a:	6813      	ldr	r3, [r2, #0]
 800433c:	f423 4380 	bic.w	r3, r3, #16384	@ 0x4000
 8004340:	6013      	str	r3, [r2, #0]
 8004342:	e7de      	b.n	8004302 <HAL_SPI_Receive+0x70>
        if ((((HAL_GetTick() - tickstart) >=  Timeout) && (Timeout != HAL_MAX_DELAY)) || (Timeout == 0U))
 8004344:	f7fd fafc 	bl	8001940 <HAL_GetTick>
 8004348:	1bc0      	subs	r0, r0, r7
 800434a:	42a8      	cmp	r0, r5
 800434c:	d302      	bcc.n	8004354 <HAL_SPI_Receive+0xc2>
 800434e:	f1b5 3fff 	cmp.w	r5, #4294967295
 8004352:	d115      	bne.n	8004380 <HAL_SPI_Receive+0xee>
 8004354:	b1a5      	cbz	r5, 8004380 <HAL_SPI_Receive+0xee>
    while (hspi->RxXferCount > 0U)
 8004356:	8fe3      	ldrh	r3, [r4, #62]	@ 0x3e
 8004358:	b29b      	uxth	r3, r3
 800435a:	2b00      	cmp	r3, #0
 800435c:	d042      	beq.n	80043e4 <HAL_SPI_Receive+0x152>
      if (__HAL_SPI_GET_FLAG(hspi, SPI_FLAG_RXNE))
 800435e:	6823      	ldr	r3, [r4, #0]
 8004360:	689a      	ldr	r2, [r3, #8]
 8004362:	f012 0f01 	tst.w	r2, #1
 8004366:	d0ed      	beq.n	8004344 <HAL_SPI_Receive+0xb2>
        (* (uint8_t *)hspi->pRxBuffPtr) = *(__IO uint8_t *)&hspi->Instance->DR;
 8004368:	6ba2      	ldr	r2, [r4, #56]	@ 0x38
 800436a:	7b1b      	ldrb	r3, [r3, #12]
 800436c:	7013      	strb	r3, [r2, #0]
        hspi->pRxBuffPtr += sizeof(uint8_t);
 800436e:	6ba3      	ldr	r3, [r4, #56]	@ 0x38
 8004370:	3301      	adds	r3, #1
 8004372:	63a3      	str	r3, [r4, #56]	@ 0x38
        hspi->RxXferCount--;
 8004374:	8fe3      	ldrh	r3, [r4, #62]	@ 0x3e
 8004376:	b29b      	uxth	r3, r3
 8004378:	3b01      	subs	r3, #1
 800437a:	b29b      	uxth	r3, r3
 800437c:	87e3      	strh	r3, [r4, #62]	@ 0x3e
 800437e:	e7ea      	b.n	8004356 <HAL_SPI_Receive+0xc4>
          hspi->State = HAL_SPI_STATE_READY;
 8004380:	2301      	movs	r3, #1
 8004382:	f884 3051 	strb.w	r3, [r4, #81]	@ 0x51
          __HAL_UNLOCK(hspi);
 8004386:	2300      	movs	r3, #0
 8004388:	f884 3050 	strb.w	r3, [r4, #80]	@ 0x50
          return HAL_TIMEOUT;
 800438c:	2603      	movs	r6, #3
 800438e:	e03c      	b.n	800440a <HAL_SPI_Receive+0x178>
        if ((((HAL_GetTick() - tickstart) >=  Timeout) && (Timeout != HAL_MAX_DELAY)) || (Timeout == 0U))
 8004390:	f7fd fad6 	bl	8001940 <HAL_GetTick>
 8004394:	1bc0      	subs	r0, r0, r7
 8004396:	42a8      	cmp	r0, r5
 8004398:	d302      	bcc.n	80043a0 <HAL_SPI_Receive+0x10e>
 800439a:	f1b5 3fff 	cmp.w	r5, #4294967295
 800439e:	d119      	bne.n	80043d4 <HAL_SPI_Receive+0x142>
 80043a0:	b1c5      	cbz	r5, 80043d4 <HAL_SPI_Receive+0x142>
    while (hspi->RxXferCount > 0U)
 80043a2:	8fe3      	ldrh	r3, [r4, #62]	@ 0x3e
 80043a4:	b29b      	uxth	r3, r3
 80043a6:	b1eb      	cbz	r3, 80043e4 <HAL_SPI_Receive+0x152>
      if (__HAL_SPI_GET_FLAG(hspi, SPI_FLAG_RXNE))
 80043a8:	6823      	ldr	r3, [r4, #0]
 80043aa:	689a      	ldr	r2, [r3, #8]
 80043ac:	f012 0f01 	tst.w	r2, #1
 80043b0:	d0ee      	beq.n	8004390 <HAL_SPI_Receive+0xfe>
        *((uint16_t *)hspi->pRxBuffPtr) = (uint16_t)hspi->Instance->DR;
 80043b2:	68da      	ldr	r2, [r3, #12]
 80043b4:	6ba3      	ldr	r3, [r4, #56]	@ 0x38
 80043b6:	801a      	strh	r2, [r3, #0]
        hspi->pRxBuffPtr += sizeof(uint16_t);
 80043b8:	6ba3      	ldr	r3, [r4, #56]	@ 0x38
 80043ba:	3302      	adds	r3, #2
 80043bc:	63a3      	str	r3, [r4, #56]	@ 0x38
        hspi->RxXferCount--;
 80043be:	f8b4 c03e 	ldrh.w	ip, [r4, #62]	@ 0x3e
 80043c2:	fa1f fc8c 	uxth.w	ip, ip
 80043c6:	f10c 3cff 	add.w	ip, ip, #4294967295
 80043ca:	fa1f fc8c 	uxth.w	ip, ip
 80043ce:	f8a4 c03e 	strh.w	ip, [r4, #62]	@ 0x3e
 80043d2:	e7e6      	b.n	80043a2 <HAL_SPI_Receive+0x110>
          hspi->State = HAL_SPI_STATE_READY;
 80043d4:	2301      	movs	r3, #1
 80043d6:	f884 3051 	strb.w	r3, [r4, #81]	@ 0x51
          __HAL_UNLOCK(hspi);
 80043da:	2300      	movs	r3, #0
 80043dc:	f884 3050 	strb.w	r3, [r4, #80]	@ 0x50
          return HAL_TIMEOUT;
 80043e0:	2603      	movs	r6, #3
 80043e2:	e012      	b.n	800440a <HAL_SPI_Receive+0x178>
  if (SPI_EndRxTransaction(hspi, Timeout, tickstart) != HAL_OK)
 80043e4:	463a      	mov	r2, r7
 80043e6:	4629      	mov	r1, r5
 80043e8:	4620      	mov	r0, r4
 80043ea:	f7ff fd7b 	bl	8003ee4 <SPI_EndRxTransaction>
 80043ee:	b108      	cbz	r0, 80043f4 <HAL_SPI_Receive+0x162>
    hspi->ErrorCode = HAL_SPI_ERROR_FLAG;
 80043f0:	2320      	movs	r3, #32
 80043f2:	6563      	str	r3, [r4, #84]	@ 0x54
  hspi->State = HAL_SPI_STATE_READY;
 80043f4:	2301      	movs	r3, #1
 80043f6:	f884 3051 	strb.w	r3, [r4, #81]	@ 0x51
  __HAL_UNLOCK(hspi);
 80043fa:	2300      	movs	r3, #0
 80043fc:	f884 3050 	strb.w	r3, [r4, #80]	@ 0x50
  if (hspi->ErrorCode != HAL_SPI_ERROR_NONE)
 8004400:	6d63      	ldr	r3, [r4, #84]	@ 0x54
 8004402:	b913      	cbnz	r3, 800440a <HAL_SPI_Receive+0x178>
    return HAL_OK;
 8004404:	461e      	mov	r6, r3
 8004406:	e000      	b.n	800440a <HAL_SPI_Receive+0x178>
    return HAL_BUSY;
 8004408:	2602      	movs	r6, #2
}
 800440a:	4630      	mov	r0, r6
 800440c:	b003      	add	sp, #12
 800440e:	e8bd 83f0 	ldmia.w	sp!, {r4, r5, r6, r7, r8, r9, pc}
  __HAL_LOCK(hspi);
 8004412:	2602      	movs	r6, #2
 8004414:	e7f9      	b.n	800440a <HAL_SPI_Receive+0x178>

08004416 <HAL_TIM_Base_MspInit>:
  UNUSED(htim);

  /* NOTE : This function should not be modified, when the callback is needed,
            the HAL_TIM_Base_MspInit could be implemented in the user file
   */
}
 8004416:	4770      	bx	lr

08004418 <HAL_TIM_Base_Start_IT>:

  /* Check the parameters */
  assert_param(IS_TIM_INSTANCE(htim->Instance));

  /* Check the TIM state */
  if (htim->State != HAL_TIM_STATE_READY)
 8004418:	f890 303d 	ldrb.w	r3, [r0, #61]	@ 0x3d
 800441c:	2b01      	cmp	r3, #1
 800441e:	d137      	bne.n	8004490 <HAL_TIM_Base_Start_IT+0x78>
  {
    return HAL_ERROR;
  }

  /* Set the TIM state */
  htim->State = HAL_TIM_STATE_BUSY;
 8004420:	2302      	movs	r3, #2
 8004422:	f880 303d 	strb.w	r3, [r0, #61]	@ 0x3d

  /* Enable the TIM Update interrupt */
  __HAL_TIM_ENABLE_IT(htim, TIM_IT_UPDATE);
 8004426:	6802      	ldr	r2, [r0, #0]
 8004428:	68d3      	ldr	r3, [r2, #12]
 800442a:	f043 0301 	orr.w	r3, r3, #1
 800442e:	60d3      	str	r3, [r2, #12]

  /* Enable the Peripheral, except in trigger mode where enable is automatically done with trigger */
  if (IS_TIM_SLAVE_INSTANCE(htim->Instance))
 8004430:	6803      	ldr	r3, [r0, #0]
 8004432:	4a19      	ldr	r2, [pc, #100]	@ (8004498 <HAL_TIM_Base_Start_IT+0x80>)
 8004434:	4293      	cmp	r3, r2
 8004436:	d020      	beq.n	800447a <HAL_TIM_Base_Start_IT+0x62>
 8004438:	f1b3 4f80 	cmp.w	r3, #1073741824	@ 0x40000000
 800443c:	d01d      	beq.n	800447a <HAL_TIM_Base_Start_IT+0x62>
 800443e:	f5a2 427c 	sub.w	r2, r2, #64512	@ 0xfc00
 8004442:	4293      	cmp	r3, r2
 8004444:	d019      	beq.n	800447a <HAL_TIM_Base_Start_IT+0x62>
 8004446:	f502 6280 	add.w	r2, r2, #1024	@ 0x400
 800444a:	4293      	cmp	r3, r2
 800444c:	d015      	beq.n	800447a <HAL_TIM_Base_Start_IT+0x62>
 800444e:	f502 6280 	add.w	r2, r2, #1024	@ 0x400
 8004452:	4293      	cmp	r3, r2
 8004454:	d011      	beq.n	800447a <HAL_TIM_Base_Start_IT+0x62>
 8004456:	f502 4278 	add.w	r2, r2, #63488	@ 0xf800
 800445a:	4293      	cmp	r3, r2
 800445c:	d00d      	beq.n	800447a <HAL_TIM_Base_Start_IT+0x62>
 800445e:	f502 5270 	add.w	r2, r2, #15360	@ 0x3c00
 8004462:	4293      	cmp	r3, r2
 8004464:	d009      	beq.n	800447a <HAL_TIM_Base_Start_IT+0x62>
 8004466:	f5a2 3294 	sub.w	r2, r2, #75776	@ 0x12800
 800446a:	4293      	cmp	r3, r2
 800446c:	d005      	beq.n	800447a <HAL_TIM_Base_Start_IT+0x62>
      __HAL_TIM_ENABLE(htim);
    }
  }
  else
  {
    __HAL_TIM_ENABLE(htim);
 800446e:	681a      	ldr	r2, [r3, #0]
 8004470:	f042 0201 	orr.w	r2, r2, #1
 8004474:	601a      	str	r2, [r3, #0]
  }

  /* Return function status */
  return HAL_OK;
 8004476:	2000      	movs	r0, #0
 8004478:	4770      	bx	lr
    tmpsmcr = htim->Instance->SMCR & TIM_SMCR_SMS;
 800447a:	689a      	ldr	r2, [r3, #8]
 800447c:	f002 0207 	and.w	r2, r2, #7
    if (!IS_TIM_SLAVEMODE_TRIGGER_ENABLED(tmpsmcr))
 8004480:	2a06      	cmp	r2, #6
 8004482:	d007      	beq.n	8004494 <HAL_TIM_Base_Start_IT+0x7c>
      __HAL_TIM_ENABLE(htim);
 8004484:	681a      	ldr	r2, [r3, #0]
 8004486:	f042 0201 	orr.w	r2, r2, #1
 800448a:	601a      	str	r2, [r3, #0]
  return HAL_OK;
 800448c:	2000      	movs	r0, #0
 800448e:	4770      	bx	lr
    return HAL_ERROR;
 8004490:	2001      	movs	r0, #1
 8004492:	4770      	bx	lr
  return HAL_OK;
 8004494:	2000      	movs	r0, #0
}
 8004496:	4770      	bx	lr
 8004498:	40010000 	.word	0x40010000

0800449c <HAL_TIM_OC_DelayElapsedCallback>:
  UNUSED(htim);

  /* NOTE : This function should not be modified, when the callback is needed,
            the HAL_TIM_OC_DelayElapsedCallback could be implemented in the user file
   */
}
 800449c:	4770      	bx	lr

0800449e <HAL_TIM_IC_CaptureCallback>:
  UNUSED(htim);

  /* NOTE : This function should not be modified, when the callback is needed,
            the HAL_TIM_IC_CaptureCallback could be implemented in the user file
   */
}
 800449e:	4770      	bx	lr

080044a0 <HAL_TIM_PWM_PulseFinishedCallback>:
  UNUSED(htim);

  /* NOTE : This function should not be modified, when the callback is needed,
            the HAL_TIM_PWM_PulseFinishedCallback could be implemented in the user file
   */
}
 80044a0:	4770      	bx	lr

080044a2 <HAL_TIM_TriggerCallback>:
  UNUSED(htim);

  /* NOTE : This function should not be modified, when the callback is needed,
            the HAL_TIM_TriggerCallback could be implemented in the user file
   */
}
 80044a2:	4770      	bx	lr

080044a4 <HAL_TIM_IRQHandler>:
{
 80044a4:	b570      	push	{r4, r5, r6, lr}
 80044a6:	4604      	mov	r4, r0
  uint32_t itsource = htim->Instance->DIER;
 80044a8:	6803      	ldr	r3, [r0, #0]
 80044aa:	68de      	ldr	r6, [r3, #12]
  uint32_t itflag   = htim->Instance->SR;
 80044ac:	691d      	ldr	r5, [r3, #16]
  if ((itflag & (TIM_FLAG_CC1)) == (TIM_FLAG_CC1))
 80044ae:	f015 0f02 	tst.w	r5, #2
 80044b2:	d010      	beq.n	80044d6 <HAL_TIM_IRQHandler+0x32>
    if ((itsource & (TIM_IT_CC1)) == (TIM_IT_CC1))
 80044b4:	f016 0f02 	tst.w	r6, #2
 80044b8:	d00d      	beq.n	80044d6 <HAL_TIM_IRQHandler+0x32>
        __HAL_TIM_CLEAR_FLAG(htim, TIM_FLAG_CC1);
 80044ba:	f06f 0202 	mvn.w	r2, #2
 80044be:	611a      	str	r2, [r3, #16]
        htim->Channel = HAL_TIM_ACTIVE_CHANNEL_1;
 80044c0:	2301      	movs	r3, #1
 80044c2:	7703      	strb	r3, [r0, #28]
        if ((htim->Instance->CCMR1 & TIM_CCMR1_CC1S) != 0x00U)
 80044c4:	6803      	ldr	r3, [r0, #0]
 80044c6:	699b      	ldr	r3, [r3, #24]
 80044c8:	f013 0f03 	tst.w	r3, #3
 80044cc:	d05e      	beq.n	800458c <HAL_TIM_IRQHandler+0xe8>
          HAL_TIM_IC_CaptureCallback(htim);
 80044ce:	f7ff ffe6 	bl	800449e <HAL_TIM_IC_CaptureCallback>
        htim->Channel = HAL_TIM_ACTIVE_CHANNEL_CLEARED;
 80044d2:	2300      	movs	r3, #0
 80044d4:	7723      	strb	r3, [r4, #28]
  if ((itflag & (TIM_FLAG_CC2)) == (TIM_FLAG_CC2))
 80044d6:	f015 0f04 	tst.w	r5, #4
 80044da:	d012      	beq.n	8004502 <HAL_TIM_IRQHandler+0x5e>
    if ((itsource & (TIM_IT_CC2)) == (TIM_IT_CC2))
 80044dc:	f016 0f04 	tst.w	r6, #4
 80044e0:	d00f      	beq.n	8004502 <HAL_TIM_IRQHandler+0x5e>
      __HAL_TIM_CLEAR_FLAG(htim, TIM_FLAG_CC2);
 80044e2:	6823      	ldr	r3, [r4, #0]
 80044e4:	f06f 0204 	mvn.w	r2, #4
 80044e8:	611a      	str	r2, [r3, #16]
      htim->Channel = HAL_TIM_ACTIVE_CHANNEL_2;
 80044ea:	2302      	movs	r3, #2
 80044ec:	7723      	strb	r3, [r4, #28]
      if ((htim->Instance->CCMR1 & TIM_CCMR1_CC2S) != 0x00U)
 80044ee:	6823      	ldr	r3, [r4, #0]
 80044f0:	699b      	ldr	r3, [r3, #24]
 80044f2:	f413 7f40 	tst.w	r3, #768	@ 0x300
 80044f6:	d04f      	beq.n	8004598 <HAL_TIM_IRQHandler+0xf4>
        HAL_TIM_IC_CaptureCallback(htim);
 80044f8:	4620      	mov	r0, r4
 80044fa:	f7ff ffd0 	bl	800449e <HAL_TIM_IC_CaptureCallback>
      htim->Channel = HAL_TIM_ACTIVE_CHANNEL_CLEARED;
 80044fe:	2300      	movs	r3, #0
 8004500:	7723      	strb	r3, [r4, #28]
  if ((itflag & (TIM_FLAG_CC3)) == (TIM_FLAG_CC3))
 8004502:	f015 0f08 	tst.w	r5, #8
 8004506:	d012      	beq.n	800452e <HAL_TIM_IRQHandler+0x8a>
    if ((itsource & (TIM_IT_CC3)) == (TIM_IT_CC3))
 8004508:	f016 0f08 	tst.w	r6, #8
 800450c:	d00f      	beq.n	800452e <HAL_TIM_IRQHandler+0x8a>
      __HAL_TIM_CLEAR_FLAG(htim, TIM_FLAG_CC3);
 800450e:	6823      	ldr	r3, [r4, #0]
 8004510:	f06f 0208 	mvn.w	r2, #8
 8004514:	611a      	str	r2, [r3, #16]
      htim->Channel = HAL_TIM_ACTIVE_CHANNEL_3;
 8004516:	2304      	movs	r3, #4
 8004518:	7723      	strb	r3, [r4, #28]
      if ((htim->Instance->CCMR2 & TIM_CCMR2_CC3S) != 0x00U)
 800451a:	6823      	ldr	r3, [r4, #0]
 800451c:	69db      	ldr	r3, [r3, #28]
 800451e:	f013 0f03 	tst.w	r3, #3
 8004522:	d040      	beq.n	80045a6 <HAL_TIM_IRQHandler+0x102>
        HAL_TIM_IC_CaptureCallback(htim);
 8004524:	4620      	mov	r0, r4
 8004526:	f7ff ffba 	bl	800449e <HAL_TIM_IC_CaptureCallback>
      htim->Channel = HAL_TIM_ACTIVE_CHANNEL_CLEARED;
 800452a:	2300      	movs	r3, #0
 800452c:	7723      	strb	r3, [r4, #28]
  if ((itflag & (TIM_FLAG_CC4)) == (TIM_FLAG_CC4))
 800452e:	f015 0f10 	tst.w	r5, #16
 8004532:	d012      	beq.n	800455a <HAL_TIM_IRQHandler+0xb6>
    if ((itsource & (TIM_IT_CC4)) == (TIM_IT_CC4))
 8004534:	f016 0f10 	tst.w	r6, #16
 8004538:	d00f      	beq.n	800455a <HAL_TIM_IRQHandler+0xb6>
      __HAL_TIM_CLEAR_FLAG(htim, TIM_FLAG_CC4);
 800453a:	6823      	ldr	r3, [r4, #0]
 800453c:	f06f 0210 	mvn.w	r2, #16
 8004540:	611a      	str	r2, [r3, #16]
      htim->Channel = HAL_TIM_ACTIVE_CHANNEL_4;
 8004542:	2308      	movs	r3, #8
 8004544:	7723      	strb	r3, [r4, #28]
      if ((htim->Instance->CCMR2 & TIM_CCMR2_CC4S) != 0x00U)
 8004546:	6823      	ldr	r3, [r4, #0]
 8004548:	69db      	ldr	r3, [r3, #28]
 800454a:	f413 7f40 	tst.w	r3, #768	@ 0x300
 800454e:	d031      	beq.n	80045b4 <HAL_TIM_IRQHandler+0x110>
        HAL_TIM_IC_CaptureCallback(htim);
 8004550:	4620      	mov	r0, r4
 8004552:	f7ff ffa4 	bl	800449e <HAL_TIM_IC_CaptureCallback>
      htim->Channel = HAL_TIM_ACTIVE_CHANNEL_CLEARED;
 8004556:	2300      	movs	r3, #0
 8004558:	7723      	strb	r3, [r4, #28]
  if ((itflag & (TIM_FLAG_UPDATE)) == (TIM_FLAG_UPDATE))
 800455a:	f015 0f01 	tst.w	r5, #1
 800455e:	d002      	beq.n	8004566 <HAL_TIM_IRQHandler+0xc2>
    if ((itsource & (TIM_IT_UPDATE)) == (TIM_IT_UPDATE))
 8004560:	f016 0f01 	tst.w	r6, #1
 8004564:	d12d      	bne.n	80045c2 <HAL_TIM_IRQHandler+0x11e>
  if ((itflag & (TIM_FLAG_BREAK)) == (TIM_FLAG_BREAK))
 8004566:	f015 0f80 	tst.w	r5, #128	@ 0x80
 800456a:	d002      	beq.n	8004572 <HAL_TIM_IRQHandler+0xce>
    if ((itsource & (TIM_IT_BREAK)) == (TIM_IT_BREAK))
 800456c:	f016 0f80 	tst.w	r6, #128	@ 0x80
 8004570:	d12f      	bne.n	80045d2 <HAL_TIM_IRQHandler+0x12e>
  if ((itflag & (TIM_FLAG_TRIGGER)) == (TIM_FLAG_TRIGGER))
 8004572:	f015 0f40 	tst.w	r5, #64	@ 0x40
 8004576:	d002      	beq.n	800457e <HAL_TIM_IRQHandler+0xda>
    if ((itsource & (TIM_IT_TRIGGER)) == (TIM_IT_TRIGGER))
 8004578:	f016 0f40 	tst.w	r6, #64	@ 0x40
 800457c:	d131      	bne.n	80045e2 <HAL_TIM_IRQHandler+0x13e>
  if ((itflag & (TIM_FLAG_COM)) == (TIM_FLAG_COM))
 800457e:	f015 0f20 	tst.w	r5, #32
 8004582:	d002      	beq.n	800458a <HAL_TIM_IRQHandler+0xe6>
    if ((itsource & (TIM_IT_COM)) == (TIM_IT_COM))
 8004584:	f016 0f20 	tst.w	r6, #32
 8004588:	d133      	bne.n	80045f2 <HAL_TIM_IRQHandler+0x14e>
}
 800458a:	bd70      	pop	{r4, r5, r6, pc}
          HAL_TIM_OC_DelayElapsedCallback(htim);
 800458c:	f7ff ff86 	bl	800449c <HAL_TIM_OC_DelayElapsedCallback>
          HAL_TIM_PWM_PulseFinishedCallback(htim);
 8004590:	4620      	mov	r0, r4
 8004592:	f7ff ff85 	bl	80044a0 <HAL_TIM_PWM_PulseFinishedCallback>
 8004596:	e79c      	b.n	80044d2 <HAL_TIM_IRQHandler+0x2e>
        HAL_TIM_OC_DelayElapsedCallback(htim);
 8004598:	4620      	mov	r0, r4
 800459a:	f7ff ff7f 	bl	800449c <HAL_TIM_OC_DelayElapsedCallback>
        HAL_TIM_PWM_PulseFinishedCallback(htim);
 800459e:	4620      	mov	r0, r4
 80045a0:	f7ff ff7e 	bl	80044a0 <HAL_TIM_PWM_PulseFinishedCallback>
 80045a4:	e7ab      	b.n	80044fe <HAL_TIM_IRQHandler+0x5a>
        HAL_TIM_OC_DelayElapsedCallback(htim);
 80045a6:	4620      	mov	r0, r4
 80045a8:	f7ff ff78 	bl	800449c <HAL_TIM_OC_DelayElapsedCallback>
        HAL_TIM_PWM_PulseFinishedCallback(htim);
 80045ac:	4620      	mov	r0, r4
 80045ae:	f7ff ff77 	bl	80044a0 <HAL_TIM_PWM_PulseFinishedCallback>
 80045b2:	e7ba      	b.n	800452a <HAL_TIM_IRQHandler+0x86>
        HAL_TIM_OC_DelayElapsedCallback(htim);
 80045b4:	4620      	mov	r0, r4
 80045b6:	f7ff ff71 	bl	800449c <HAL_TIM_OC_DelayElapsedCallback>
        HAL_TIM_PWM_PulseFinishedCallback(htim);
 80045ba:	4620      	mov	r0, r4
 80045bc:	f7ff ff70 	bl	80044a0 <HAL_TIM_PWM_PulseFinishedCallback>
 80045c0:	e7c9      	b.n	8004556 <HAL_TIM_IRQHandler+0xb2>
      __HAL_TIM_CLEAR_FLAG(htim, TIM_FLAG_UPDATE);
 80045c2:	6823      	ldr	r3, [r4, #0]
 80045c4:	f06f 0201 	mvn.w	r2, #1
 80045c8:	611a      	str	r2, [r3, #16]
      HAL_TIM_PeriodElapsedCallback(htim);
 80045ca:	4620      	mov	r0, r4
 80045cc:	f7fc fa34 	bl	8000a38 <HAL_TIM_PeriodElapsedCallback>
 80045d0:	e7c9      	b.n	8004566 <HAL_TIM_IRQHandler+0xc2>
      __HAL_TIM_CLEAR_FLAG(htim, TIM_FLAG_BREAK);
 80045d2:	6823      	ldr	r3, [r4, #0]
 80045d4:	f06f 0280 	mvn.w	r2, #128	@ 0x80
 80045d8:	611a      	str	r2, [r3, #16]
      HAL_TIMEx_BreakCallback(htim);
 80045da:	4620      	mov	r0, r4
 80045dc:	f000 f8a7 	bl	800472e <HAL_TIMEx_BreakCallback>
 80045e0:	e7c7      	b.n	8004572 <HAL_TIM_IRQHandler+0xce>
      __HAL_TIM_CLEAR_FLAG(htim, TIM_FLAG_TRIGGER);
 80045e2:	6823      	ldr	r3, [r4, #0]
 80045e4:	f06f 0240 	mvn.w	r2, #64	@ 0x40
 80045e8:	611a      	str	r2, [r3, #16]
      HAL_TIM_TriggerCallback(htim);
 80045ea:	4620      	mov	r0, r4
 80045ec:	f7ff ff59 	bl	80044a2 <HAL_TIM_TriggerCallback>
 80045f0:	e7c5      	b.n	800457e <HAL_TIM_IRQHandler+0xda>
      __HAL_TIM_CLEAR_FLAG(htim, TIM_FLAG_COM);
 80045f2:	6823      	ldr	r3, [r4, #0]
 80045f4:	f06f 0220 	mvn.w	r2, #32
 80045f8:	611a      	str	r2, [r3, #16]
      HAL_TIMEx_CommutCallback(htim);
 80045fa:	4620      	mov	r0, r4
 80045fc:	f000 f896 	bl	800472c <HAL_TIMEx_CommutCallback>
}
 8004600:	e7c3      	b.n	800458a <HAL_TIM_IRQHandler+0xe6>
	...

08004604 <TIM_Base_SetConfig>:
  * @retval None
  */
void TIM_Base_SetConfig(TIM_TypeDef *TIMx, const TIM_Base_InitTypeDef *Structure)
{
  uint32_t tmpcr1;
  tmpcr1 = TIMx->CR1;
 8004604:	6803      	ldr	r3, [r0, #0]

  /* Set TIM Time Base Unit parameters ---------------------------------------*/
  if (IS_TIM_COUNTER_MODE_SELECT_INSTANCE(TIMx))
 8004606:	4a32      	ldr	r2, [pc, #200]	@ (80046d0 <TIM_Base_SetConfig+0xcc>)
 8004608:	4290      	cmp	r0, r2
 800460a:	d012      	beq.n	8004632 <TIM_Base_SetConfig+0x2e>
 800460c:	f1b0 4f80 	cmp.w	r0, #1073741824	@ 0x40000000
 8004610:	d00f      	beq.n	8004632 <TIM_Base_SetConfig+0x2e>
 8004612:	f5a2 427c 	sub.w	r2, r2, #64512	@ 0xfc00
 8004616:	4290      	cmp	r0, r2
 8004618:	d00b      	beq.n	8004632 <TIM_Base_SetConfig+0x2e>
 800461a:	f502 6280 	add.w	r2, r2, #1024	@ 0x400
 800461e:	4290      	cmp	r0, r2
 8004620:	d007      	beq.n	8004632 <TIM_Base_SetConfig+0x2e>
 8004622:	f502 6280 	add.w	r2, r2, #1024	@ 0x400
 8004626:	4290      	cmp	r0, r2
 8004628:	d003      	beq.n	8004632 <TIM_Base_SetConfig+0x2e>
 800462a:	f502 4278 	add.w	r2, r2, #63488	@ 0xf800
 800462e:	4290      	cmp	r0, r2
 8004630:	d103      	bne.n	800463a <TIM_Base_SetConfig+0x36>
  {
    /* Select the Counter Mode */
    tmpcr1 &= ~(TIM_CR1_DIR | TIM_CR1_CMS);
 8004632:	f023 0370 	bic.w	r3, r3, #112	@ 0x70
    tmpcr1 |= Structure->CounterMode;
 8004636:	684a      	ldr	r2, [r1, #4]
 8004638:	4313      	orrs	r3, r2
  }

  if (IS_TIM_CLOCK_DIVISION_INSTANCE(TIMx))
 800463a:	4a25      	ldr	r2, [pc, #148]	@ (80046d0 <TIM_Base_SetConfig+0xcc>)
 800463c:	4290      	cmp	r0, r2
 800463e:	d02a      	beq.n	8004696 <TIM_Base_SetConfig+0x92>
 8004640:	f1b0 4f80 	cmp.w	r0, #1073741824	@ 0x40000000
 8004644:	d027      	beq.n	8004696 <TIM_Base_SetConfig+0x92>
 8004646:	f5a2 427c 	sub.w	r2, r2, #64512	@ 0xfc00
 800464a:	4290      	cmp	r0, r2
 800464c:	d023      	beq.n	8004696 <TIM_Base_SetConfig+0x92>
 800464e:	f502 6280 	add.w	r2, r2, #1024	@ 0x400
 8004652:	4290      	cmp	r0, r2
 8004654:	d01f      	beq.n	8004696 <TIM_Base_SetConfig+0x92>
 8004656:	f502 6280 	add.w	r2, r2, #1024	@ 0x400
 800465a:	4290      	cmp	r0, r2
 800465c:	d01b      	beq.n	8004696 <TIM_Base_SetConfig+0x92>
 800465e:	f502 4278 	add.w	r2, r2, #63488	@ 0xf800
 8004662:	4290      	cmp	r0, r2
 8004664:	d017      	beq.n	8004696 <TIM_Base_SetConfig+0x92>
 8004666:	f502 5270 	add.w	r2, r2, #15360	@ 0x3c00
 800466a:	4290      	cmp	r0, r2
 800466c:	d013      	beq.n	8004696 <TIM_Base_SetConfig+0x92>
 800466e:	f502 6280 	add.w	r2, r2, #1024	@ 0x400
 8004672:	4290      	cmp	r0, r2
 8004674:	d00f      	beq.n	8004696 <TIM_Base_SetConfig+0x92>
 8004676:	f502 6280 	add.w	r2, r2, #1024	@ 0x400
 800467a:	4290      	cmp	r0, r2
 800467c:	d00b      	beq.n	8004696 <TIM_Base_SetConfig+0x92>
 800467e:	f5a2 3298 	sub.w	r2, r2, #77824	@ 0x13000
 8004682:	4290      	cmp	r0, r2
 8004684:	d007      	beq.n	8004696 <TIM_Base_SetConfig+0x92>
 8004686:	f502 6280 	add.w	r2, r2, #1024	@ 0x400
 800468a:	4290      	cmp	r0, r2
 800468c:	d003      	beq.n	8004696 <TIM_Base_SetConfig+0x92>
 800468e:	f502 6280 	add.w	r2, r2, #1024	@ 0x400
 8004692:	4290      	cmp	r0, r2
 8004694:	d103      	bne.n	800469e <TIM_Base_SetConfig+0x9a>
  {
    /* Set the clock division */
    tmpcr1 &= ~TIM_CR1_CKD;
 8004696:	f423 7340 	bic.w	r3, r3, #768	@ 0x300
    tmpcr1 |= (uint32_t)Structure->ClockDivision;
 800469a:	68ca      	ldr	r2, [r1, #12]
 800469c:	4313      	orrs	r3, r2
  }

  /* Set the auto-reload preload */
  MODIFY_REG(tmpcr1, TIM_CR1_ARPE, Structure->AutoReloadPreload);
 800469e:	f023 0380 	bic.w	r3, r3, #128	@ 0x80
 80046a2:	694a      	ldr	r2, [r1, #20]
 80046a4:	4313      	orrs	r3, r2

  /* Set the Autoreload value */
  TIMx->ARR = (uint32_t)Structure->Period ;
 80046a6:	688a      	ldr	r2, [r1, #8]
 80046a8:	62c2      	str	r2, [r0, #44]	@ 0x2c

  /* Set the Prescaler value */
  TIMx->PSC = Structure->Prescaler;
 80046aa:	680a      	ldr	r2, [r1, #0]
 80046ac:	6282      	str	r2, [r0, #40]	@ 0x28

  if (IS_TIM_REPETITION_COUNTER_INSTANCE(TIMx))
 80046ae:	4a08      	ldr	r2, [pc, #32]	@ (80046d0 <TIM_Base_SetConfig+0xcc>)
 80046b0:	4290      	cmp	r0, r2
 80046b2:	d003      	beq.n	80046bc <TIM_Base_SetConfig+0xb8>
 80046b4:	f502 6280 	add.w	r2, r2, #1024	@ 0x400
 80046b8:	4290      	cmp	r0, r2
 80046ba:	d101      	bne.n	80046c0 <TIM_Base_SetConfig+0xbc>
  {
    /* Set the Repetition Counter value */
    TIMx->RCR = Structure->RepetitionCounter;
 80046bc:	690a      	ldr	r2, [r1, #16]
 80046be:	6302      	str	r2, [r0, #48]	@ 0x30
  }

  /* Disable Update Event (UEV) with Update Generation (UG)
     by changing Update Request Source (URS) to avoid Update flag (UIF) */
  SET_BIT(TIMx->CR1, TIM_CR1_URS);
 80046c0:	6802      	ldr	r2, [r0, #0]
 80046c2:	f042 0204 	orr.w	r2, r2, #4
 80046c6:	6002      	str	r2, [r0, #0]

  /* Generate an update event to reload the Prescaler
     and the repetition counter (only for advanced timer) value immediately */
  TIMx->EGR = TIM_EGR_UG;
 80046c8:	2201      	movs	r2, #1
 80046ca:	6142      	str	r2, [r0, #20]

  TIMx->CR1 = tmpcr1;
 80046cc:	6003      	str	r3, [r0, #0]
}
 80046ce:	4770      	bx	lr
 80046d0:	40010000 	.word	0x40010000

080046d4 <HAL_TIM_Base_Init>:
  if (htim == NULL)
 80046d4:	b340      	cbz	r0, 8004728 <HAL_TIM_Base_Init+0x54>
{
 80046d6:	b510      	push	{r4, lr}
 80046d8:	4604      	mov	r4, r0
  if (htim->State == HAL_TIM_STATE_RESET)
 80046da:	f890 303d 	ldrb.w	r3, [r0, #61]	@ 0x3d
 80046de:	b1f3      	cbz	r3, 800471e <HAL_TIM_Base_Init+0x4a>
  htim->State = HAL_TIM_STATE_BUSY;
 80046e0:	2302      	movs	r3, #2
 80046e2:	f884 303d 	strb.w	r3, [r4, #61]	@ 0x3d
  TIM_Base_SetConfig(htim->Instance, &htim->Init);
 80046e6:	4621      	mov	r1, r4
 80046e8:	f851 0b04 	ldr.w	r0, [r1], #4
 80046ec:	f7ff ff8a 	bl	8004604 <TIM_Base_SetConfig>
  htim->DMABurstState = HAL_DMA_BURST_STATE_READY;
 80046f0:	2301      	movs	r3, #1
 80046f2:	f884 3046 	strb.w	r3, [r4, #70]	@ 0x46
  TIM_CHANNEL_STATE_SET_ALL(htim, HAL_TIM_CHANNEL_STATE_READY);
 80046f6:	f884 303e 	strb.w	r3, [r4, #62]	@ 0x3e
 80046fa:	f884 303f 	strb.w	r3, [r4, #63]	@ 0x3f
 80046fe:	f884 3040 	strb.w	r3, [r4, #64]	@ 0x40
 8004702:	f884 3041 	strb.w	r3, [r4, #65]	@ 0x41
  TIM_CHANNEL_N_STATE_SET_ALL(htim, HAL_TIM_CHANNEL_STATE_READY);
 8004706:	f884 3042 	strb.w	r3, [r4, #66]	@ 0x42
 800470a:	f884 3043 	strb.w	r3, [r4, #67]	@ 0x43
 800470e:	f884 3044 	strb.w	r3, [r4, #68]	@ 0x44
 8004712:	f884 3045 	strb.w	r3, [r4, #69]	@ 0x45
  htim->State = HAL_TIM_STATE_READY;
 8004716:	f884 303d 	strb.w	r3, [r4, #61]	@ 0x3d
  return HAL_OK;
 800471a:	2000      	movs	r0, #0
}
 800471c:	bd10      	pop	{r4, pc}
    htim->Lock = HAL_UNLOCKED;
 800471e:	f880 303c 	strb.w	r3, [r0, #60]	@ 0x3c
    HAL_TIM_Base_MspInit(htim);
 8004722:	f7ff fe78 	bl	8004416 <HAL_TIM_Base_MspInit>
 8004726:	e7db      	b.n	80046e0 <HAL_TIM_Base_Init+0xc>
    return HAL_ERROR;
 8004728:	2001      	movs	r0, #1
}
 800472a:	4770      	bx	lr

0800472c <HAL_TIMEx_CommutCallback>:
  UNUSED(htim);

  /* NOTE : This function should not be modified, when the callback is needed,
            the HAL_TIMEx_CommutCallback could be implemented in the user file
   */
}
 800472c:	4770      	bx	lr

0800472e <HAL_TIMEx_BreakCallback>:
  UNUSED(htim);

  /* NOTE : This function should not be modified, when the callback is needed,
            the HAL_TIMEx_BreakCallback could be implemented in the user file
   */
}
 800472e:	4770      	bx	lr

08004730 <HAL_InitTick>:
  *         reset by HAL_Init() or at any time when clock is configured, by HAL_RCC_ClockConfig().
  * @param  TickPriority: Tick interrupt priority.
  * @retval HAL status
  */
HAL_StatusTypeDef HAL_InitTick(uint32_t TickPriority)
{
 8004730:	b530      	push	{r4, r5, lr}
 8004732:	b089      	sub	sp, #36	@ 0x24
 8004734:	4605      	mov	r5, r0
  uint32_t              pFLatency;

  HAL_StatusTypeDef     status;

  /* Enable TIM1 clock */
  __HAL_RCC_TIM1_CLK_ENABLE();
 8004736:	2400      	movs	r4, #0
 8004738:	9401      	str	r4, [sp, #4]
 800473a:	4b1e      	ldr	r3, [pc, #120]	@ (80047b4 <HAL_InitTick+0x84>)
 800473c:	6c5a      	ldr	r2, [r3, #68]	@ 0x44
 800473e:	f042 0201 	orr.w	r2, r2, #1
 8004742:	645a      	str	r2, [r3, #68]	@ 0x44
 8004744:	6c5b      	ldr	r3, [r3, #68]	@ 0x44
 8004746:	f003 0301 	and.w	r3, r3, #1
 800474a:	9301      	str	r3, [sp, #4]
 800474c:	9b01      	ldr	r3, [sp, #4]

  /* Get clock configuration */
  HAL_RCC_GetClockConfig(&clkconfig, &pFLatency);
 800474e:	a902      	add	r1, sp, #8
 8004750:	a803      	add	r0, sp, #12
 8004752:	f7ff fa1f 	bl	8003b94 <HAL_RCC_GetClockConfig>

  /* Compute TIM1 clock */
      uwTimclock = 2*HAL_RCC_GetPCLK2Freq();
 8004756:	f7ff fa0d 	bl	8003b74 <HAL_RCC_GetPCLK2Freq>
 800475a:	0043      	lsls	r3, r0, #1

  /* Compute the prescaler value to have TIM1 counter clock equal to 1MHz */
  uwPrescalerValue = (uint32_t) ((uwTimclock / 1000000U) - 1U);
 800475c:	4a16      	ldr	r2, [pc, #88]	@ (80047b8 <HAL_InitTick+0x88>)
 800475e:	fba2 2303 	umull	r2, r3, r2, r3
 8004762:	0c9b      	lsrs	r3, r3, #18
 8004764:	3b01      	subs	r3, #1

  /* Initialize TIM1 */
  htim1.Instance = TIM1;
 8004766:	4815      	ldr	r0, [pc, #84]	@ (80047bc <HAL_InitTick+0x8c>)
 8004768:	4a15      	ldr	r2, [pc, #84]	@ (80047c0 <HAL_InitTick+0x90>)
 800476a:	6002      	str	r2, [r0, #0]
   * Period = [(TIM1CLK/1000) - 1]. to have a (1/1000) s time base.
   * Prescaler = (uwTimclock/1000000 - 1) to have a 1MHz counter clock.
   * ClockDivision = 0
   * Counter direction = Up
   */
  htim1.Init.Period = (1000000U / 1000U) - 1U;
 800476c:	f240 32e7 	movw	r2, #999	@ 0x3e7
 8004770:	60c2      	str	r2, [r0, #12]
  htim1.Init.Prescaler = uwPrescalerValue;
 8004772:	6043      	str	r3, [r0, #4]
  htim1.Init.ClockDivision = 0;
 8004774:	6104      	str	r4, [r0, #16]
  htim1.Init.CounterMode = TIM_COUNTERMODE_UP;
 8004776:	6084      	str	r4, [r0, #8]
  htim1.Init.AutoReloadPreload = TIM_AUTORELOAD_PRELOAD_DISABLE;
 8004778:	6184      	str	r4, [r0, #24]

  status = HAL_TIM_Base_Init(&htim1);
 800477a:	f7ff ffab 	bl	80046d4 <HAL_TIM_Base_Init>
  if (status == HAL_OK)
 800477e:	4604      	mov	r4, r0
 8004780:	b110      	cbz	r0, 8004788 <HAL_InitTick+0x58>
    }
  }

 /* Return function status */
  return status;
}
 8004782:	4620      	mov	r0, r4
 8004784:	b009      	add	sp, #36	@ 0x24
 8004786:	bd30      	pop	{r4, r5, pc}
    status = HAL_TIM_Base_Start_IT(&htim1);
 8004788:	480c      	ldr	r0, [pc, #48]	@ (80047bc <HAL_InitTick+0x8c>)
 800478a:	f7ff fe45 	bl	8004418 <HAL_TIM_Base_Start_IT>
    if (status == HAL_OK)
 800478e:	4604      	mov	r4, r0
 8004790:	2800      	cmp	r0, #0
 8004792:	d1f6      	bne.n	8004782 <HAL_InitTick+0x52>
        HAL_NVIC_EnableIRQ(TIM1_UP_TIM10_IRQn);
 8004794:	2019      	movs	r0, #25
 8004796:	f7fd f955 	bl	8001a44 <HAL_NVIC_EnableIRQ>
      if (TickPriority < (1UL << __NVIC_PRIO_BITS))
 800479a:	2d0f      	cmp	r5, #15
 800479c:	d901      	bls.n	80047a2 <HAL_InitTick+0x72>
        status = HAL_ERROR;
 800479e:	2401      	movs	r4, #1
 80047a0:	e7ef      	b.n	8004782 <HAL_InitTick+0x52>
        HAL_NVIC_SetPriority(TIM1_UP_TIM10_IRQn, TickPriority, 0U);
 80047a2:	2200      	movs	r2, #0
 80047a4:	4629      	mov	r1, r5
 80047a6:	2019      	movs	r0, #25
 80047a8:	f7fd f93c 	bl	8001a24 <HAL_NVIC_SetPriority>
        uwTickPrio = TickPriority;
 80047ac:	4b05      	ldr	r3, [pc, #20]	@ (80047c4 <HAL_InitTick+0x94>)
 80047ae:	601d      	str	r5, [r3, #0]
 80047b0:	e7e7      	b.n	8004782 <HAL_InitTick+0x52>
 80047b2:	bf00      	nop
 80047b4:	40023800 	.word	0x40023800
 80047b8:	431bde83 	.word	0x431bde83
 80047bc:	20004d84 	.word	0x20004d84
 80047c0:	40010000 	.word	0x40010000
 80047c4:	20000014 	.word	0x20000014

080047c8 <NMI_Handler>:
{
  /* USER CODE BEGIN NonMaskableInt_IRQn 0 */

  /* USER CODE END NonMaskableInt_IRQn 0 */
  /* USER CODE BEGIN NonMaskableInt_IRQn 1 */
   while (1)
 80047c8:	e7fe      	b.n	80047c8 <NMI_Handler>

080047ca <HardFault_Handler>:
void HardFault_Handler(void)
{
  /* USER CODE BEGIN HardFault_IRQn 0 */

  /* USER CODE END HardFault_IRQn 0 */
  while (1)
 80047ca:	e7fe      	b.n	80047ca <HardFault_Handler>

080047cc <MemManage_Handler>:
void MemManage_Handler(void)
{
  /* USER CODE BEGIN MemoryManagement_IRQn 0 */

  /* USER CODE END MemoryManagement_IRQn 0 */
  while (1)
 80047cc:	e7fe      	b.n	80047cc <MemManage_Handler>

080047ce <BusFault_Handler>:
void BusFault_Handler(void)
{
  /* USER CODE BEGIN BusFault_IRQn 0 */

  /* USER CODE END BusFault_IRQn 0 */
  while (1)
 80047ce:	e7fe      	b.n	80047ce <BusFault_Handler>

080047d0 <UsageFault_Handler>:
void UsageFault_Handler(void)
{
  /* USER CODE BEGIN UsageFault_IRQn 0 */

  /* USER CODE END UsageFault_IRQn 0 */
  while (1)
 80047d0:	e7fe      	b.n	80047d0 <UsageFault_Handler>

080047d2 <DebugMon_Handler>:

  /* USER CODE END DebugMonitor_IRQn 0 */
  /* USER CODE BEGIN DebugMonitor_IRQn 1 */

  /* USER CODE END DebugMonitor_IRQn 1 */
}
 80047d2:	4770      	bx	lr

080047d4 <TIM1_UP_TIM10_IRQHandler>:

/**
  * @brief This function handles TIM1 update interrupt and TIM10 global interrupt.
  */
void TIM1_UP_TIM10_IRQHandler(void)
{
 80047d4:	b508      	push	{r3, lr}
  /* USER CODE BEGIN TIM1_UP_TIM10_IRQn 0 */

  /* USER CODE END TIM1_UP_TIM10_IRQn 0 */
  HAL_TIM_IRQHandler(&htim1);
 80047d6:	4802      	ldr	r0, [pc, #8]	@ (80047e0 <TIM1_UP_TIM10_IRQHandler+0xc>)
 80047d8:	f7ff fe64 	bl	80044a4 <HAL_TIM_IRQHandler>
  /* USER CODE BEGIN TIM1_UP_TIM10_IRQn 1 */

  /* USER CODE END TIM1_UP_TIM10_IRQn 1 */
}
 80047dc:	bd08      	pop	{r3, pc}
 80047de:	bf00      	nop
 80047e0:	20004d84 	.word	0x20004d84

080047e4 <OTG_FS_IRQHandler>:

/**
  * @brief This function handles USB On The Go FS global interrupt.
  */
void OTG_FS_IRQHandler(void)
{
 80047e4:	b508      	push	{r3, lr}
  /* USER CODE BEGIN OTG_FS_IRQn 0 */

  /* USER CODE END OTG_FS_IRQn 0 */
  HAL_PCD_IRQHandler(&hpcd_USB_OTG_FS);
 80047e6:	4802      	ldr	r0, [pc, #8]	@ (80047f0 <OTG_FS_IRQHandler+0xc>)
 80047e8:	f7fe fb98 	bl	8002f1c <HAL_PCD_IRQHandler>
  /* USER CODE BEGIN OTG_FS_IRQn 1 */

  /* USER CODE END OTG_FS_IRQn 1 */
}
 80047ec:	bd08      	pop	{r3, pc}
 80047ee:	bf00      	nop
 80047f0:	20004748 	.word	0x20004748

080047f4 <USB_CoreReset>:
  * @brief  Reset the USB Core (needed after USB clock settings change)
  * @param  USBx  Selected device
  * @retval HAL status
  */
static HAL_StatusTypeDef USB_CoreReset(USB_OTG_GlobalTypeDef *USBx)
{
 80047f4:	b082      	sub	sp, #8
  __IO uint32_t count = 0U;
 80047f6:	2300      	movs	r3, #0
 80047f8:	9301      	str	r3, [sp, #4]

  /* Wait for AHB master IDLE state. */
  do
  {
    count++;
 80047fa:	9b01      	ldr	r3, [sp, #4]
 80047fc:	3301      	adds	r3, #1
 80047fe:	9301      	str	r3, [sp, #4]

    if (count > HAL_USB_TIMEOUT)
 8004800:	9b01      	ldr	r3, [sp, #4]
 8004802:	f1b3 6f70 	cmp.w	r3, #251658240	@ 0xf000000
 8004806:	d81c      	bhi.n	8004842 <USB_CoreReset+0x4e>
    {
      return HAL_TIMEOUT;
    }
  } while ((USBx->GRSTCTL & USB_OTG_GRSTCTL_AHBIDL) == 0U);
 8004808:	6903      	ldr	r3, [r0, #16]
 800480a:	2b00      	cmp	r3, #0
 800480c:	daf5      	bge.n	80047fa <USB_CoreReset+0x6>

  count = 10U;
 800480e:	230a      	movs	r3, #10
 8004810:	9301      	str	r3, [sp, #4]

  /* few cycles before setting core reset */
  while (count > 0U)
 8004812:	e002      	b.n	800481a <USB_CoreReset+0x26>
  {
    count--;
 8004814:	9b01      	ldr	r3, [sp, #4]
 8004816:	3b01      	subs	r3, #1
 8004818:	9301      	str	r3, [sp, #4]
  while (count > 0U)
 800481a:	9b01      	ldr	r3, [sp, #4]
 800481c:	2b00      	cmp	r3, #0
 800481e:	d1f9      	bne.n	8004814 <USB_CoreReset+0x20>
  }

  /* Core Soft Reset */
  USBx->GRSTCTL |= USB_OTG_GRSTCTL_CSRST;
 8004820:	6903      	ldr	r3, [r0, #16]
 8004822:	f043 0301 	orr.w	r3, r3, #1
 8004826:	6103      	str	r3, [r0, #16]

  do
  {
    count++;
 8004828:	9b01      	ldr	r3, [sp, #4]
 800482a:	3301      	adds	r3, #1
 800482c:	9301      	str	r3, [sp, #4]

    if (count > HAL_USB_TIMEOUT)
 800482e:	9b01      	ldr	r3, [sp, #4]
 8004830:	f1b3 6f70 	cmp.w	r3, #251658240	@ 0xf000000
 8004834:	d808      	bhi.n	8004848 <USB_CoreReset+0x54>
    {
      return HAL_TIMEOUT;
    }
  } while ((USBx->GRSTCTL & USB_OTG_GRSTCTL_CSRST) == USB_OTG_GRSTCTL_CSRST);
 8004836:	6903      	ldr	r3, [r0, #16]
 8004838:	f013 0f01 	tst.w	r3, #1
 800483c:	d1f4      	bne.n	8004828 <USB_CoreReset+0x34>

  return HAL_OK;
 800483e:	2000      	movs	r0, #0
 8004840:	e000      	b.n	8004844 <USB_CoreReset+0x50>
      return HAL_TIMEOUT;
 8004842:	2003      	movs	r0, #3
}
 8004844:	b002      	add	sp, #8
 8004846:	4770      	bx	lr
      return HAL_TIMEOUT;
 8004848:	2003      	movs	r0, #3
 800484a:	e7fb      	b.n	8004844 <USB_CoreReset+0x50>

0800484c <USB_CoreInit>:
{
 800484c:	b084      	sub	sp, #16
 800484e:	b510      	push	{r4, lr}
 8004850:	4604      	mov	r4, r0
 8004852:	a803      	add	r0, sp, #12
 8004854:	e880 000e 	stmia.w	r0, {r1, r2, r3}
  if (cfg.phy_itface == USB_OTG_ULPI_PHY)
 8004858:	f89d 3011 	ldrb.w	r3, [sp, #17]
 800485c:	2b01      	cmp	r3, #1
 800485e:	d121      	bne.n	80048a4 <USB_CoreInit+0x58>
    USBx->GCCFG &= ~(USB_OTG_GCCFG_PWRDWN);
 8004860:	6ba3      	ldr	r3, [r4, #56]	@ 0x38
 8004862:	f423 3380 	bic.w	r3, r3, #65536	@ 0x10000
 8004866:	63a3      	str	r3, [r4, #56]	@ 0x38
    USBx->GUSBCFG &= ~(USB_OTG_GUSBCFG_TSDPS | USB_OTG_GUSBCFG_ULPIFSLS | USB_OTG_GUSBCFG_PHYSEL);
 8004868:	68e3      	ldr	r3, [r4, #12]
 800486a:	f423 0384 	bic.w	r3, r3, #4325376	@ 0x420000
 800486e:	f023 0340 	bic.w	r3, r3, #64	@ 0x40
 8004872:	60e3      	str	r3, [r4, #12]
    USBx->GUSBCFG &= ~(USB_OTG_GUSBCFG_ULPIEVBUSD | USB_OTG_GUSBCFG_ULPIEVBUSI);
 8004874:	68e3      	ldr	r3, [r4, #12]
 8004876:	f423 1340 	bic.w	r3, r3, #3145728	@ 0x300000
 800487a:	60e3      	str	r3, [r4, #12]
    if (cfg.use_external_vbus == 1U)
 800487c:	f89d 3018 	ldrb.w	r3, [sp, #24]
 8004880:	2b01      	cmp	r3, #1
 8004882:	d00a      	beq.n	800489a <USB_CoreInit+0x4e>
    ret = USB_CoreReset(USBx);
 8004884:	4620      	mov	r0, r4
 8004886:	f7ff ffb5 	bl	80047f4 <USB_CoreReset>
  if (cfg.dma_enable == 1U)
 800488a:	f89d 300e 	ldrb.w	r3, [sp, #14]
 800488e:	2b01      	cmp	r3, #1
 8004890:	d01c      	beq.n	80048cc <USB_CoreInit+0x80>
}
 8004892:	e8bd 4010 	ldmia.w	sp!, {r4, lr}
 8004896:	b004      	add	sp, #16
 8004898:	4770      	bx	lr
      USBx->GUSBCFG |= USB_OTG_GUSBCFG_ULPIEVBUSD;
 800489a:	68e3      	ldr	r3, [r4, #12]
 800489c:	f443 1380 	orr.w	r3, r3, #1048576	@ 0x100000
 80048a0:	60e3      	str	r3, [r4, #12]
 80048a2:	e7ef      	b.n	8004884 <USB_CoreInit+0x38>
    USBx->GUSBCFG |= USB_OTG_GUSBCFG_PHYSEL;
 80048a4:	68e3      	ldr	r3, [r4, #12]
 80048a6:	f043 0340 	orr.w	r3, r3, #64	@ 0x40
 80048aa:	60e3      	str	r3, [r4, #12]
    ret = USB_CoreReset(USBx);
 80048ac:	4620      	mov	r0, r4
 80048ae:	f7ff ffa1 	bl	80047f4 <USB_CoreReset>
    if (cfg.battery_charging_enable == 0U)
 80048b2:	f89d 3015 	ldrb.w	r3, [sp, #21]
 80048b6:	b923      	cbnz	r3, 80048c2 <USB_CoreInit+0x76>
      USBx->GCCFG |= USB_OTG_GCCFG_PWRDWN;
 80048b8:	6ba3      	ldr	r3, [r4, #56]	@ 0x38
 80048ba:	f443 3380 	orr.w	r3, r3, #65536	@ 0x10000
 80048be:	63a3      	str	r3, [r4, #56]	@ 0x38
 80048c0:	e7e3      	b.n	800488a <USB_CoreInit+0x3e>
      USBx->GCCFG &= ~(USB_OTG_GCCFG_PWRDWN);
 80048c2:	6ba3      	ldr	r3, [r4, #56]	@ 0x38
 80048c4:	f423 3380 	bic.w	r3, r3, #65536	@ 0x10000
 80048c8:	63a3      	str	r3, [r4, #56]	@ 0x38
 80048ca:	e7de      	b.n	800488a <USB_CoreInit+0x3e>
    USBx->GAHBCFG |= USB_OTG_GAHBCFG_HBSTLEN_2;
 80048cc:	68a3      	ldr	r3, [r4, #8]
 80048ce:	f043 0306 	orr.w	r3, r3, #6
 80048d2:	60a3      	str	r3, [r4, #8]
    USBx->GAHBCFG |= USB_OTG_GAHBCFG_DMAEN;
 80048d4:	68a3      	ldr	r3, [r4, #8]
 80048d6:	f043 0320 	orr.w	r3, r3, #32
 80048da:	60a3      	str	r3, [r4, #8]
 80048dc:	e7d9      	b.n	8004892 <USB_CoreInit+0x46>
	...

080048e0 <USB_SetTurnaroundTime>:
  if (speed == USBD_FS_SPEED)
 80048e0:	2a02      	cmp	r2, #2
 80048e2:	d00a      	beq.n	80048fa <USB_SetTurnaroundTime+0x1a>
    UsbTrd = USBD_HS_TRDT_VALUE;
 80048e4:	2209      	movs	r2, #9
  USBx->GUSBCFG &= ~USB_OTG_GUSBCFG_TRDT;
 80048e6:	68c3      	ldr	r3, [r0, #12]
 80048e8:	f423 5370 	bic.w	r3, r3, #15360	@ 0x3c00
 80048ec:	60c3      	str	r3, [r0, #12]
  USBx->GUSBCFG |= (uint32_t)((UsbTrd << 10) & USB_OTG_GUSBCFG_TRDT);
 80048ee:	68c3      	ldr	r3, [r0, #12]
 80048f0:	ea43 2382 	orr.w	r3, r3, r2, lsl #10
 80048f4:	60c3      	str	r3, [r0, #12]
}
 80048f6:	2000      	movs	r0, #0
 80048f8:	4770      	bx	lr
    if ((hclk >= 14200000U) && (hclk < 15000000U))
 80048fa:	4b23      	ldr	r3, [pc, #140]	@ (8004988 <USB_SetTurnaroundTime+0xa8>)
 80048fc:	440b      	add	r3, r1
 80048fe:	4a23      	ldr	r2, [pc, #140]	@ (800498c <USB_SetTurnaroundTime+0xac>)
 8004900:	4293      	cmp	r3, r2
 8004902:	d92f      	bls.n	8004964 <USB_SetTurnaroundTime+0x84>
    else if ((hclk >= 15000000U) && (hclk < 16000000U))
 8004904:	4b22      	ldr	r3, [pc, #136]	@ (8004990 <USB_SetTurnaroundTime+0xb0>)
 8004906:	440b      	add	r3, r1
 8004908:	4a22      	ldr	r2, [pc, #136]	@ (8004994 <USB_SetTurnaroundTime+0xb4>)
 800490a:	4293      	cmp	r3, r2
 800490c:	d92c      	bls.n	8004968 <USB_SetTurnaroundTime+0x88>
    else if ((hclk >= 16000000U) && (hclk < 17200000U))
 800490e:	f5a1 0374 	sub.w	r3, r1, #15990784	@ 0xf40000
 8004912:	f5a3 5310 	sub.w	r3, r3, #9216	@ 0x2400
 8004916:	4a20      	ldr	r2, [pc, #128]	@ (8004998 <USB_SetTurnaroundTime+0xb8>)
 8004918:	4293      	cmp	r3, r2
 800491a:	d927      	bls.n	800496c <USB_SetTurnaroundTime+0x8c>
    else if ((hclk >= 17200000U) && (hclk < 18500000U))
 800491c:	f1a1 7383 	sub.w	r3, r1, #17170432	@ 0x1060000
 8004920:	f5a3 43e7 	sub.w	r3, r3, #29568	@ 0x7380
 8004924:	4a1d      	ldr	r2, [pc, #116]	@ (800499c <USB_SetTurnaroundTime+0xbc>)
 8004926:	4293      	cmp	r3, r2
 8004928:	d322      	bcc.n	8004970 <USB_SetTurnaroundTime+0x90>
    else if ((hclk >= 18500000U) && (hclk < 20000000U))
 800492a:	4b1d      	ldr	r3, [pc, #116]	@ (80049a0 <USB_SetTurnaroundTime+0xc0>)
 800492c:	440b      	add	r3, r1
 800492e:	4a1d      	ldr	r2, [pc, #116]	@ (80049a4 <USB_SetTurnaroundTime+0xc4>)
 8004930:	4293      	cmp	r3, r2
 8004932:	d91f      	bls.n	8004974 <USB_SetTurnaroundTime+0x94>
    else if ((hclk >= 20000000U) && (hclk < 21800000U))
 8004934:	4b1c      	ldr	r3, [pc, #112]	@ (80049a8 <USB_SetTurnaroundTime+0xc8>)
 8004936:	440b      	add	r3, r1
 8004938:	4a1c      	ldr	r2, [pc, #112]	@ (80049ac <USB_SetTurnaroundTime+0xcc>)
 800493a:	4293      	cmp	r3, r2
 800493c:	d31c      	bcc.n	8004978 <USB_SetTurnaroundTime+0x98>
    else if ((hclk >= 21800000U) && (hclk < 24000000U))
 800493e:	4b1c      	ldr	r3, [pc, #112]	@ (80049b0 <USB_SetTurnaroundTime+0xd0>)
 8004940:	440b      	add	r3, r1
 8004942:	4a1c      	ldr	r2, [pc, #112]	@ (80049b4 <USB_SetTurnaroundTime+0xd4>)
 8004944:	4293      	cmp	r3, r2
 8004946:	d319      	bcc.n	800497c <USB_SetTurnaroundTime+0x9c>
    else if ((hclk >= 24000000U) && (hclk < 27700000U))
 8004948:	f1a1 73b7 	sub.w	r3, r1, #23986176	@ 0x16e0000
 800494c:	f5a3 5358 	sub.w	r3, r3, #13824	@ 0x3600
 8004950:	4a19      	ldr	r2, [pc, #100]	@ (80049b8 <USB_SetTurnaroundTime+0xd8>)
 8004952:	4293      	cmp	r3, r2
 8004954:	d314      	bcc.n	8004980 <USB_SetTurnaroundTime+0xa0>
    else if ((hclk >= 27700000U) && (hclk < 32000000U))
 8004956:	4b19      	ldr	r3, [pc, #100]	@ (80049bc <USB_SetTurnaroundTime+0xdc>)
 8004958:	440b      	add	r3, r1
 800495a:	4a19      	ldr	r2, [pc, #100]	@ (80049c0 <USB_SetTurnaroundTime+0xe0>)
 800495c:	4293      	cmp	r3, r2
 800495e:	d211      	bcs.n	8004984 <USB_SetTurnaroundTime+0xa4>
      UsbTrd = 0x7U;
 8004960:	2207      	movs	r2, #7
 8004962:	e7c0      	b.n	80048e6 <USB_SetTurnaroundTime+0x6>
      UsbTrd = 0xFU;
 8004964:	220f      	movs	r2, #15
 8004966:	e7be      	b.n	80048e6 <USB_SetTurnaroundTime+0x6>
      UsbTrd = 0xEU;
 8004968:	220e      	movs	r2, #14
 800496a:	e7bc      	b.n	80048e6 <USB_SetTurnaroundTime+0x6>
      UsbTrd = 0xDU;
 800496c:	220d      	movs	r2, #13
 800496e:	e7ba      	b.n	80048e6 <USB_SetTurnaroundTime+0x6>
      UsbTrd = 0xCU;
 8004970:	220c      	movs	r2, #12
 8004972:	e7b8      	b.n	80048e6 <USB_SetTurnaroundTime+0x6>
      UsbTrd = 0xBU;
 8004974:	220b      	movs	r2, #11
 8004976:	e7b6      	b.n	80048e6 <USB_SetTurnaroundTime+0x6>
      UsbTrd = 0xAU;
 8004978:	220a      	movs	r2, #10
 800497a:	e7b4      	b.n	80048e6 <USB_SetTurnaroundTime+0x6>
      UsbTrd = 0x9U;
 800497c:	2209      	movs	r2, #9
 800497e:	e7b2      	b.n	80048e6 <USB_SetTurnaroundTime+0x6>
      UsbTrd = 0x8U;
 8004980:	2208      	movs	r2, #8
 8004982:	e7b0      	b.n	80048e6 <USB_SetTurnaroundTime+0x6>
      UsbTrd = 0x6U;
 8004984:	2206      	movs	r2, #6
 8004986:	e7ae      	b.n	80048e6 <USB_SetTurnaroundTime+0x6>
 8004988:	ff275340 	.word	0xff275340
 800498c:	000c34ff 	.word	0x000c34ff
 8004990:	ff1b1e40 	.word	0xff1b1e40
 8004994:	000f423f 	.word	0x000f423f
 8004998:	00124f7f 	.word	0x00124f7f
 800499c:	0013d620 	.word	0x0013d620
 80049a0:	fee5b660 	.word	0xfee5b660
 80049a4:	0016e35f 	.word	0x0016e35f
 80049a8:	feced300 	.word	0xfeced300
 80049ac:	001b7740 	.word	0x001b7740
 80049b0:	feb35bc0 	.word	0xfeb35bc0
 80049b4:	002191c0 	.word	0x002191c0
 80049b8:	00387520 	.word	0x00387520
 80049bc:	fe5954e0 	.word	0xfe5954e0
 80049c0:	00419ce0 	.word	0x00419ce0

080049c4 <USB_DisableGlobalInt>:
  USBx->GAHBCFG &= ~USB_OTG_GAHBCFG_GINT;
 80049c4:	6883      	ldr	r3, [r0, #8]
 80049c6:	f023 0301 	bic.w	r3, r3, #1
 80049ca:	6083      	str	r3, [r0, #8]
}
 80049cc:	2000      	movs	r0, #0
 80049ce:	4770      	bx	lr

080049d0 <USB_FlushTxFifo>:
{
 80049d0:	b082      	sub	sp, #8
  __IO uint32_t count = 0U;
 80049d2:	2300      	movs	r3, #0
 80049d4:	9301      	str	r3, [sp, #4]
    count++;
 80049d6:	9b01      	ldr	r3, [sp, #4]
 80049d8:	3301      	adds	r3, #1
 80049da:	9301      	str	r3, [sp, #4]
    if (count > HAL_USB_TIMEOUT)
 80049dc:	9b01      	ldr	r3, [sp, #4]
 80049de:	f1b3 6f70 	cmp.w	r3, #251658240	@ 0xf000000
 80049e2:	d815      	bhi.n	8004a10 <USB_FlushTxFifo+0x40>
  } while ((USBx->GRSTCTL & USB_OTG_GRSTCTL_AHBIDL) == 0U);
 80049e4:	6903      	ldr	r3, [r0, #16]
 80049e6:	2b00      	cmp	r3, #0
 80049e8:	daf5      	bge.n	80049d6 <USB_FlushTxFifo+0x6>
  count = 0U;
 80049ea:	2300      	movs	r3, #0
 80049ec:	9301      	str	r3, [sp, #4]
  USBx->GRSTCTL = (USB_OTG_GRSTCTL_TXFFLSH | (num << 6));
 80049ee:	0189      	lsls	r1, r1, #6
 80049f0:	f041 0120 	orr.w	r1, r1, #32
 80049f4:	6101      	str	r1, [r0, #16]
    count++;
 80049f6:	9b01      	ldr	r3, [sp, #4]
 80049f8:	3301      	adds	r3, #1
 80049fa:	9301      	str	r3, [sp, #4]
    if (count > HAL_USB_TIMEOUT)
 80049fc:	9b01      	ldr	r3, [sp, #4]
 80049fe:	f1b3 6f70 	cmp.w	r3, #251658240	@ 0xf000000
 8004a02:	d808      	bhi.n	8004a16 <USB_FlushTxFifo+0x46>
  } while ((USBx->GRSTCTL & USB_OTG_GRSTCTL_TXFFLSH) == USB_OTG_GRSTCTL_TXFFLSH);
 8004a04:	6903      	ldr	r3, [r0, #16]
 8004a06:	f013 0f20 	tst.w	r3, #32
 8004a0a:	d1f4      	bne.n	80049f6 <USB_FlushTxFifo+0x26>
  return HAL_OK;
 8004a0c:	2000      	movs	r0, #0
 8004a0e:	e000      	b.n	8004a12 <USB_FlushTxFifo+0x42>
      return HAL_TIMEOUT;
 8004a10:	2003      	movs	r0, #3
}
 8004a12:	b002      	add	sp, #8
 8004a14:	4770      	bx	lr
      return HAL_TIMEOUT;
 8004a16:	2003      	movs	r0, #3
 8004a18:	e7fb      	b.n	8004a12 <USB_FlushTxFifo+0x42>

08004a1a <USB_FlushRxFifo>:
{
 8004a1a:	b082      	sub	sp, #8
  __IO uint32_t count = 0U;
 8004a1c:	2300      	movs	r3, #0
 8004a1e:	9301      	str	r3, [sp, #4]
    count++;
 8004a20:	9b01      	ldr	r3, [sp, #4]
 8004a22:	3301      	adds	r3, #1
 8004a24:	9301      	str	r3, [sp, #4]
    if (count > HAL_USB_TIMEOUT)
 8004a26:	9b01      	ldr	r3, [sp, #4]
 8004a28:	f1b3 6f70 	cmp.w	r3, #251658240	@ 0xf000000
 8004a2c:	d813      	bhi.n	8004a56 <USB_FlushRxFifo+0x3c>
  } while ((USBx->GRSTCTL & USB_OTG_GRSTCTL_AHBIDL) == 0U);
 8004a2e:	6903      	ldr	r3, [r0, #16]
 8004a30:	2b00      	cmp	r3, #0
 8004a32:	daf5      	bge.n	8004a20 <USB_FlushRxFifo+0x6>
  count = 0U;
 8004a34:	2300      	movs	r3, #0
 8004a36:	9301      	str	r3, [sp, #4]
  USBx->GRSTCTL = USB_OTG_GRSTCTL_RXFFLSH;
 8004a38:	2310      	movs	r3, #16
 8004a3a:	6103      	str	r3, [r0, #16]
    count++;
 8004a3c:	9b01      	ldr	r3, [sp, #4]
 8004a3e:	3301      	adds	r3, #1
 8004a40:	9301      	str	r3, [sp, #4]
    if (count > HAL_USB_TIMEOUT)
 8004a42:	9b01      	ldr	r3, [sp, #4]
 8004a44:	f1b3 6f70 	cmp.w	r3, #251658240	@ 0xf000000
 8004a48:	d808      	bhi.n	8004a5c <USB_FlushRxFifo+0x42>
  } while ((USBx->GRSTCTL & USB_OTG_GRSTCTL_RXFFLSH) == USB_OTG_GRSTCTL_RXFFLSH);
 8004a4a:	6903      	ldr	r3, [r0, #16]
 8004a4c:	f013 0f10 	tst.w	r3, #16
 8004a50:	d1f4      	bne.n	8004a3c <USB_FlushRxFifo+0x22>
  return HAL_OK;
 8004a52:	2000      	movs	r0, #0
 8004a54:	e000      	b.n	8004a58 <USB_FlushRxFifo+0x3e>
      return HAL_TIMEOUT;
 8004a56:	2003      	movs	r0, #3
}
 8004a58:	b002      	add	sp, #8
 8004a5a:	4770      	bx	lr
      return HAL_TIMEOUT;
 8004a5c:	2003      	movs	r0, #3
 8004a5e:	e7fb      	b.n	8004a58 <USB_FlushRxFifo+0x3e>

08004a60 <USB_SetDevSpeed>:
  USBx_DEVICE->DCFG |= speed;
 8004a60:	f8d0 3800 	ldr.w	r3, [r0, #2048]	@ 0x800
 8004a64:	4319      	orrs	r1, r3
 8004a66:	f8c0 1800 	str.w	r1, [r0, #2048]	@ 0x800
}
 8004a6a:	2000      	movs	r0, #0
 8004a6c:	4770      	bx	lr
	...

08004a70 <USB_DevInit>:
{
 8004a70:	b084      	sub	sp, #16
 8004a72:	b570      	push	{r4, r5, r6, lr}
 8004a74:	4604      	mov	r4, r0
 8004a76:	a805      	add	r0, sp, #20
 8004a78:	e880 000e 	stmia.w	r0, {r1, r2, r3}
  for (i = 0U; i < 15U; i++)
 8004a7c:	2300      	movs	r3, #0
 8004a7e:	e006      	b.n	8004a8e <USB_DevInit+0x1e>
    USBx->DIEPTXF[i] = 0U;
 8004a80:	f103 0240 	add.w	r2, r3, #64	@ 0x40
 8004a84:	eb04 0282 	add.w	r2, r4, r2, lsl #2
 8004a88:	2100      	movs	r1, #0
 8004a8a:	6051      	str	r1, [r2, #4]
  for (i = 0U; i < 15U; i++)
 8004a8c:	3301      	adds	r3, #1
 8004a8e:	2b0e      	cmp	r3, #14
 8004a90:	d9f6      	bls.n	8004a80 <USB_DevInit+0x10>
  if (cfg.vbus_sensing_enable == 0U)
 8004a92:	f89d 501e 	ldrb.w	r5, [sp, #30]
 8004a96:	bb05      	cbnz	r5, 8004ada <USB_DevInit+0x6a>
    USBx_DEVICE->DCTL |= USB_OTG_DCTL_SDIS;
 8004a98:	f8d4 3804 	ldr.w	r3, [r4, #2052]	@ 0x804
 8004a9c:	f043 0302 	orr.w	r3, r3, #2
 8004aa0:	f8c4 3804 	str.w	r3, [r4, #2052]	@ 0x804
    USBx->GCCFG |= USB_OTG_GCCFG_NOVBUSSENS;
 8004aa4:	6ba3      	ldr	r3, [r4, #56]	@ 0x38
 8004aa6:	f443 1300 	orr.w	r3, r3, #2097152	@ 0x200000
 8004aaa:	63a3      	str	r3, [r4, #56]	@ 0x38
    USBx->GCCFG &= ~USB_OTG_GCCFG_VBUSBSEN;
 8004aac:	6ba3      	ldr	r3, [r4, #56]	@ 0x38
 8004aae:	f423 2300 	bic.w	r3, r3, #524288	@ 0x80000
 8004ab2:	63a3      	str	r3, [r4, #56]	@ 0x38
    USBx->GCCFG &= ~USB_OTG_GCCFG_VBUSASEN;
 8004ab4:	6ba3      	ldr	r3, [r4, #56]	@ 0x38
 8004ab6:	f423 2380 	bic.w	r3, r3, #262144	@ 0x40000
 8004aba:	63a3      	str	r3, [r4, #56]	@ 0x38
  USBx_PCGCCTL = 0U;
 8004abc:	2300      	movs	r3, #0
 8004abe:	f8c4 3e00 	str.w	r3, [r4, #3584]	@ 0xe00
  if (cfg.phy_itface == USB_OTG_ULPI_PHY)
 8004ac2:	f89d 3019 	ldrb.w	r3, [sp, #25]
 8004ac6:	2b01      	cmp	r3, #1
 8004ac8:	d115      	bne.n	8004af6 <USB_DevInit+0x86>
    if (cfg.speed == USBD_HS_SPEED)
 8004aca:	f89d 3017 	ldrb.w	r3, [sp, #23]
 8004ace:	b96b      	cbnz	r3, 8004aec <USB_DevInit+0x7c>
      (void)USB_SetDevSpeed(USBx, USB_OTG_SPEED_HIGH);
 8004ad0:	4619      	mov	r1, r3
 8004ad2:	4620      	mov	r0, r4
 8004ad4:	f7ff ffc4 	bl	8004a60 <USB_SetDevSpeed>
 8004ad8:	e011      	b.n	8004afe <USB_DevInit+0x8e>
    USBx->GCCFG &= ~USB_OTG_GCCFG_NOVBUSSENS;
 8004ada:	6ba3      	ldr	r3, [r4, #56]	@ 0x38
 8004adc:	f423 1300 	bic.w	r3, r3, #2097152	@ 0x200000
 8004ae0:	63a3      	str	r3, [r4, #56]	@ 0x38
    USBx->GCCFG |= USB_OTG_GCCFG_VBUSBSEN;
 8004ae2:	6ba3      	ldr	r3, [r4, #56]	@ 0x38
 8004ae4:	f443 2300 	orr.w	r3, r3, #524288	@ 0x80000
 8004ae8:	63a3      	str	r3, [r4, #56]	@ 0x38
 8004aea:	e7e7      	b.n	8004abc <USB_DevInit+0x4c>
      (void)USB_SetDevSpeed(USBx, USB_OTG_SPEED_HIGH_IN_FULL);
 8004aec:	2101      	movs	r1, #1
 8004aee:	4620      	mov	r0, r4
 8004af0:	f7ff ffb6 	bl	8004a60 <USB_SetDevSpeed>
 8004af4:	e003      	b.n	8004afe <USB_DevInit+0x8e>
    (void)USB_SetDevSpeed(USBx, USB_OTG_SPEED_FULL);
 8004af6:	2103      	movs	r1, #3
 8004af8:	4620      	mov	r0, r4
 8004afa:	f7ff ffb1 	bl	8004a60 <USB_SetDevSpeed>
  if (USB_FlushTxFifo(USBx, 0x10U) != HAL_OK) /* all Tx FIFOs */
 8004afe:	2110      	movs	r1, #16
 8004b00:	4620      	mov	r0, r4
 8004b02:	f7ff ff65 	bl	80049d0 <USB_FlushTxFifo>
 8004b06:	4606      	mov	r6, r0
 8004b08:	b108      	cbz	r0, 8004b0e <USB_DevInit+0x9e>
    ret = HAL_ERROR;
 8004b0a:	2301      	movs	r3, #1
 8004b0c:	461e      	mov	r6, r3
  if (USB_FlushRxFifo(USBx) != HAL_OK)
 8004b0e:	4620      	mov	r0, r4
 8004b10:	f7ff ff83 	bl	8004a1a <USB_FlushRxFifo>
 8004b14:	b108      	cbz	r0, 8004b1a <USB_DevInit+0xaa>
    ret = HAL_ERROR;
 8004b16:	2301      	movs	r3, #1
 8004b18:	461e      	mov	r6, r3
  USBx_DEVICE->DIEPMSK = 0U;
 8004b1a:	f504 6c00 	add.w	ip, r4, #2048	@ 0x800
 8004b1e:	2300      	movs	r3, #0
 8004b20:	f8cc 3010 	str.w	r3, [ip, #16]
  USBx_DEVICE->DOEPMSK = 0U;
 8004b24:	f8cc 3014 	str.w	r3, [ip, #20]
  USBx_DEVICE->DAINTMSK = 0U;
 8004b28:	f8cc 301c 	str.w	r3, [ip, #28]
  for (i = 0U; i < cfg.dev_endpoints; i++)
 8004b2c:	e00d      	b.n	8004b4a <USB_DevInit+0xda>
        USBx_INEP(i)->DIEPCTL = USB_OTG_DIEPCTL_EPDIS | USB_OTG_DIEPCTL_SNAK;
 8004b2e:	f04f 4090 	mov.w	r0, #1207959552	@ 0x48000000
 8004b32:	f8c2 0900 	str.w	r0, [r2, #2304]	@ 0x900
 8004b36:	e002      	b.n	8004b3e <USB_DevInit+0xce>
      USBx_INEP(i)->DIEPCTL = 0U;
 8004b38:	2000      	movs	r0, #0
 8004b3a:	f8c2 0900 	str.w	r0, [r2, #2304]	@ 0x900
    USBx_INEP(i)->DIEPTSIZ = 0U;
 8004b3e:	2200      	movs	r2, #0
 8004b40:	610a      	str	r2, [r1, #16]
    USBx_INEP(i)->DIEPINT  = 0xFB7FU;
 8004b42:	f64f 327f 	movw	r2, #64383	@ 0xfb7f
 8004b46:	608a      	str	r2, [r1, #8]
  for (i = 0U; i < cfg.dev_endpoints; i++)
 8004b48:	3301      	adds	r3, #1
 8004b4a:	f89d 1014 	ldrb.w	r1, [sp, #20]
 8004b4e:	4299      	cmp	r1, r3
 8004b50:	d90e      	bls.n	8004b70 <USB_DevInit+0x100>
    if ((USBx_INEP(i)->DIEPCTL & USB_OTG_DIEPCTL_EPENA) == USB_OTG_DIEPCTL_EPENA)
 8004b52:	eb04 1243 	add.w	r2, r4, r3, lsl #5
 8004b56:	f502 6110 	add.w	r1, r2, #2304	@ 0x900
 8004b5a:	f8d2 0900 	ldr.w	r0, [r2, #2304]	@ 0x900
 8004b5e:	2800      	cmp	r0, #0
 8004b60:	daea      	bge.n	8004b38 <USB_DevInit+0xc8>
      if (i == 0U)
 8004b62:	2b00      	cmp	r3, #0
 8004b64:	d1e3      	bne.n	8004b2e <USB_DevInit+0xbe>
        USBx_INEP(i)->DIEPCTL = USB_OTG_DIEPCTL_SNAK;
 8004b66:	f04f 6000 	mov.w	r0, #134217728	@ 0x8000000
 8004b6a:	f8c2 0900 	str.w	r0, [r2, #2304]	@ 0x900
 8004b6e:	e7e6      	b.n	8004b3e <USB_DevInit+0xce>
  for (i = 0U; i < cfg.dev_endpoints; i++)
 8004b70:	2300      	movs	r3, #0
 8004b72:	e00a      	b.n	8004b8a <USB_DevInit+0x11a>
      if (i == 0U)
 8004b74:	b1cb      	cbz	r3, 8004baa <USB_DevInit+0x13a>
        USBx_OUTEP(i)->DOEPCTL = USB_OTG_DOEPCTL_EPDIS | USB_OTG_DOEPCTL_SNAK;
 8004b76:	f04f 4e90 	mov.w	lr, #1207959552	@ 0x48000000
 8004b7a:	f8c2 eb00 	str.w	lr, [r2, #2816]	@ 0xb00
    USBx_OUTEP(i)->DOEPTSIZ = 0U;
 8004b7e:	2200      	movs	r2, #0
 8004b80:	6102      	str	r2, [r0, #16]
    USBx_OUTEP(i)->DOEPINT  = 0xFB7FU;
 8004b82:	f64f 327f 	movw	r2, #64383	@ 0xfb7f
 8004b86:	6082      	str	r2, [r0, #8]
  for (i = 0U; i < cfg.dev_endpoints; i++)
 8004b88:	3301      	adds	r3, #1
 8004b8a:	4299      	cmp	r1, r3
 8004b8c:	d912      	bls.n	8004bb4 <USB_DevInit+0x144>
    if ((USBx_OUTEP(i)->DOEPCTL & USB_OTG_DOEPCTL_EPENA) == USB_OTG_DOEPCTL_EPENA)
 8004b8e:	eb04 1243 	add.w	r2, r4, r3, lsl #5
 8004b92:	f502 6030 	add.w	r0, r2, #2816	@ 0xb00
 8004b96:	f8d2 eb00 	ldr.w	lr, [r2, #2816]	@ 0xb00
 8004b9a:	f1be 0f00 	cmp.w	lr, #0
 8004b9e:	dbe9      	blt.n	8004b74 <USB_DevInit+0x104>
      USBx_OUTEP(i)->DOEPCTL = 0U;
 8004ba0:	f04f 0e00 	mov.w	lr, #0
 8004ba4:	f8c2 eb00 	str.w	lr, [r2, #2816]	@ 0xb00
 8004ba8:	e7e9      	b.n	8004b7e <USB_DevInit+0x10e>
        USBx_OUTEP(i)->DOEPCTL = USB_OTG_DOEPCTL_SNAK;
 8004baa:	f04f 6e00 	mov.w	lr, #134217728	@ 0x8000000
 8004bae:	f8c2 eb00 	str.w	lr, [r2, #2816]	@ 0xb00
 8004bb2:	e7e4      	b.n	8004b7e <USB_DevInit+0x10e>
  USBx_DEVICE->DIEPMSK &= ~(USB_OTG_DIEPMSK_TXFURM);
 8004bb4:	f8dc 3010 	ldr.w	r3, [ip, #16]
 8004bb8:	f423 7380 	bic.w	r3, r3, #256	@ 0x100
 8004bbc:	f8cc 3010 	str.w	r3, [ip, #16]
  USBx->GINTMSK = 0U;
 8004bc0:	2300      	movs	r3, #0
 8004bc2:	61a3      	str	r3, [r4, #24]
  USBx->GINTSTS = 0xBFFFFFFFU;
 8004bc4:	f06f 4380 	mvn.w	r3, #1073741824	@ 0x40000000
 8004bc8:	6163      	str	r3, [r4, #20]
  if (cfg.dma_enable == 0U)
 8004bca:	f89d 3016 	ldrb.w	r3, [sp, #22]
 8004bce:	b91b      	cbnz	r3, 8004bd8 <USB_DevInit+0x168>
    USBx->GINTMSK |= USB_OTG_GINTMSK_RXFLVLM;
 8004bd0:	69a3      	ldr	r3, [r4, #24]
 8004bd2:	f043 0310 	orr.w	r3, r3, #16
 8004bd6:	61a3      	str	r3, [r4, #24]
  USBx->GINTMSK |= USB_OTG_GINTMSK_USBSUSPM | USB_OTG_GINTMSK_USBRST |
 8004bd8:	69a2      	ldr	r2, [r4, #24]
 8004bda:	4b0c      	ldr	r3, [pc, #48]	@ (8004c0c <USB_DevInit+0x19c>)
 8004bdc:	4313      	orrs	r3, r2
 8004bde:	61a3      	str	r3, [r4, #24]
  if (cfg.Sof_enable != 0U)
 8004be0:	f89d 301a 	ldrb.w	r3, [sp, #26]
 8004be4:	b11b      	cbz	r3, 8004bee <USB_DevInit+0x17e>
    USBx->GINTMSK |= USB_OTG_GINTMSK_SOFM;
 8004be6:	69a3      	ldr	r3, [r4, #24]
 8004be8:	f043 0308 	orr.w	r3, r3, #8
 8004bec:	61a3      	str	r3, [r4, #24]
  if (cfg.vbus_sensing_enable == 1U)
 8004bee:	2d01      	cmp	r5, #1
 8004bf0:	d004      	beq.n	8004bfc <USB_DevInit+0x18c>
}
 8004bf2:	4630      	mov	r0, r6
 8004bf4:	e8bd 4070 	ldmia.w	sp!, {r4, r5, r6, lr}
 8004bf8:	b004      	add	sp, #16
 8004bfa:	4770      	bx	lr
    USBx->GINTMSK |= (USB_OTG_GINTMSK_SRQIM | USB_OTG_GINTMSK_OTGINT);
 8004bfc:	69a3      	ldr	r3, [r4, #24]
 8004bfe:	f043 4380 	orr.w	r3, r3, #1073741824	@ 0x40000000
 8004c02:	f043 0304 	orr.w	r3, r3, #4
 8004c06:	61a3      	str	r3, [r4, #24]
 8004c08:	e7f3      	b.n	8004bf2 <USB_DevInit+0x182>
 8004c0a:	bf00      	nop
 8004c0c:	803c3800 	.word	0x803c3800

08004c10 <USB_GetDevSpeed>:
  uint32_t DevEnumSpeed = USBx_DEVICE->DSTS & USB_OTG_DSTS_ENUMSPD;
 8004c10:	f8d0 3808 	ldr.w	r3, [r0, #2056]	@ 0x808
  if (DevEnumSpeed == DSTS_ENUMSPD_HS_PHY_30MHZ_OR_60MHZ)
 8004c14:	f013 0306 	ands.w	r3, r3, #6
 8004c18:	d007      	beq.n	8004c2a <USB_GetDevSpeed+0x1a>
  else if ((DevEnumSpeed == DSTS_ENUMSPD_FS_PHY_30MHZ_OR_60MHZ) ||
 8004c1a:	2b02      	cmp	r3, #2
 8004c1c:	d007      	beq.n	8004c2e <USB_GetDevSpeed+0x1e>
 8004c1e:	2b06      	cmp	r3, #6
 8004c20:	d001      	beq.n	8004c26 <USB_GetDevSpeed+0x16>
    speed = 0xFU;
 8004c22:	200f      	movs	r0, #15
}
 8004c24:	4770      	bx	lr
    speed = USBD_FS_SPEED;
 8004c26:	2002      	movs	r0, #2
 8004c28:	4770      	bx	lr
    speed = USBD_HS_SPEED;
 8004c2a:	2000      	movs	r0, #0
 8004c2c:	4770      	bx	lr
    speed = USBD_FS_SPEED;
 8004c2e:	2002      	movs	r0, #2
 8004c30:	4770      	bx	lr

08004c32 <USB_EPStopXfer>:
{
 8004c32:	b082      	sub	sp, #8
 8004c34:	4602      	mov	r2, r0
  __IO uint32_t count = 0U;
 8004c36:	2300      	movs	r3, #0
 8004c38:	9301      	str	r3, [sp, #4]
  if (ep->is_in == 1U)
 8004c3a:	7848      	ldrb	r0, [r1, #1]
 8004c3c:	2801      	cmp	r0, #1
 8004c3e:	d009      	beq.n	8004c54 <USB_EPStopXfer+0x22>
    if (((USBx_OUTEP(ep->num)->DOEPCTL) & USB_OTG_DOEPCTL_EPENA) == USB_OTG_DOEPCTL_EPENA)
 8004c40:	780b      	ldrb	r3, [r1, #0]
 8004c42:	eb02 1343 	add.w	r3, r2, r3, lsl #5
 8004c46:	f8d3 0b00 	ldr.w	r0, [r3, #2816]	@ 0xb00
 8004c4a:	2800      	cmp	r0, #0
 8004c4c:	db2d      	blt.n	8004caa <USB_EPStopXfer+0x78>
  HAL_StatusTypeDef ret = HAL_OK;
 8004c4e:	2000      	movs	r0, #0
}
 8004c50:	b002      	add	sp, #8
 8004c52:	4770      	bx	lr
    if (((USBx_INEP(ep->num)->DIEPCTL) & USB_OTG_DIEPCTL_EPENA) == USB_OTG_DIEPCTL_EPENA)
 8004c54:	780b      	ldrb	r3, [r1, #0]
 8004c56:	eb02 1343 	add.w	r3, r2, r3, lsl #5
 8004c5a:	f8d3 c900 	ldr.w	ip, [r3, #2304]	@ 0x900
 8004c5e:	f1bc 0f00 	cmp.w	ip, #0
 8004c62:	db01      	blt.n	8004c68 <USB_EPStopXfer+0x36>
  HAL_StatusTypeDef ret = HAL_OK;
 8004c64:	2000      	movs	r0, #0
 8004c66:	e7f3      	b.n	8004c50 <USB_EPStopXfer+0x1e>
      USBx_INEP(ep->num)->DIEPCTL |= (USB_OTG_DIEPCTL_SNAK);
 8004c68:	f8d3 c900 	ldr.w	ip, [r3, #2304]	@ 0x900
 8004c6c:	f04c 6c00 	orr.w	ip, ip, #134217728	@ 0x8000000
 8004c70:	f8c3 c900 	str.w	ip, [r3, #2304]	@ 0x900
      USBx_INEP(ep->num)->DIEPCTL |= (USB_OTG_DIEPCTL_EPDIS);
 8004c74:	780b      	ldrb	r3, [r1, #0]
 8004c76:	eb02 1343 	add.w	r3, r2, r3, lsl #5
 8004c7a:	f8d3 c900 	ldr.w	ip, [r3, #2304]	@ 0x900
 8004c7e:	f04c 4c80 	orr.w	ip, ip, #1073741824	@ 0x40000000
 8004c82:	f8c3 c900 	str.w	ip, [r3, #2304]	@ 0x900
        count++;
 8004c86:	9b01      	ldr	r3, [sp, #4]
 8004c88:	3301      	adds	r3, #1
 8004c8a:	9301      	str	r3, [sp, #4]
        if (count > 10000U)
 8004c8c:	f8dd c004 	ldr.w	ip, [sp, #4]
 8004c90:	f242 7310 	movw	r3, #10000	@ 0x2710
 8004c94:	459c      	cmp	ip, r3
 8004c96:	d8db      	bhi.n	8004c50 <USB_EPStopXfer+0x1e>
      } while (((USBx_INEP(ep->num)->DIEPCTL) & USB_OTG_DIEPCTL_EPENA) ==  USB_OTG_DIEPCTL_EPENA);
 8004c98:	780b      	ldrb	r3, [r1, #0]
 8004c9a:	eb02 1343 	add.w	r3, r2, r3, lsl #5
 8004c9e:	f8d3 3900 	ldr.w	r3, [r3, #2304]	@ 0x900
 8004ca2:	2b00      	cmp	r3, #0
 8004ca4:	dbef      	blt.n	8004c86 <USB_EPStopXfer+0x54>
  HAL_StatusTypeDef ret = HAL_OK;
 8004ca6:	2000      	movs	r0, #0
 8004ca8:	e7d2      	b.n	8004c50 <USB_EPStopXfer+0x1e>
      USBx_OUTEP(ep->num)->DOEPCTL |= (USB_OTG_DOEPCTL_SNAK);
 8004caa:	f8d3 0b00 	ldr.w	r0, [r3, #2816]	@ 0xb00
 8004cae:	f040 6000 	orr.w	r0, r0, #134217728	@ 0x8000000
 8004cb2:	f8c3 0b00 	str.w	r0, [r3, #2816]	@ 0xb00
      USBx_OUTEP(ep->num)->DOEPCTL |= (USB_OTG_DOEPCTL_EPDIS);
 8004cb6:	780b      	ldrb	r3, [r1, #0]
 8004cb8:	eb02 1343 	add.w	r3, r2, r3, lsl #5
 8004cbc:	f8d3 0b00 	ldr.w	r0, [r3, #2816]	@ 0xb00
 8004cc0:	f040 4080 	orr.w	r0, r0, #1073741824	@ 0x40000000
 8004cc4:	f8c3 0b00 	str.w	r0, [r3, #2816]	@ 0xb00
        count++;
 8004cc8:	9b01      	ldr	r3, [sp, #4]
 8004cca:	3301      	adds	r3, #1
 8004ccc:	9301      	str	r3, [sp, #4]
        if (count > 10000U)
 8004cce:	9801      	ldr	r0, [sp, #4]
 8004cd0:	f242 7310 	movw	r3, #10000	@ 0x2710
 8004cd4:	4298      	cmp	r0, r3
 8004cd6:	d808      	bhi.n	8004cea <USB_EPStopXfer+0xb8>
      } while (((USBx_OUTEP(ep->num)->DOEPCTL) & USB_OTG_DOEPCTL_EPENA) ==  USB_OTG_DOEPCTL_EPENA);
 8004cd8:	780b      	ldrb	r3, [r1, #0]
 8004cda:	eb02 1343 	add.w	r3, r2, r3, lsl #5
 8004cde:	f8d3 3b00 	ldr.w	r3, [r3, #2816]	@ 0xb00
 8004ce2:	2b00      	cmp	r3, #0
 8004ce4:	dbf0      	blt.n	8004cc8 <USB_EPStopXfer+0x96>
  HAL_StatusTypeDef ret = HAL_OK;
 8004ce6:	2000      	movs	r0, #0
 8004ce8:	e7b2      	b.n	8004c50 <USB_EPStopXfer+0x1e>
          ret = HAL_ERROR;
 8004cea:	2001      	movs	r0, #1
 8004cec:	e7b0      	b.n	8004c50 <USB_EPStopXfer+0x1e>

08004cee <USB_WritePacket>:
{
 8004cee:	b510      	push	{r4, lr}
 8004cf0:	4604      	mov	r4, r0
 8004cf2:	f89d 0008 	ldrb.w	r0, [sp, #8]
  if (dma == 0U)
 8004cf6:	b978      	cbnz	r0, 8004d18 <USB_WritePacket+0x2a>
    count32b = ((uint32_t)len + 3U) / 4U;
 8004cf8:	3303      	adds	r3, #3
 8004cfa:	ea4f 0e93 	mov.w	lr, r3, lsr #2
    for (i = 0U; i < count32b; i++)
 8004cfe:	4684      	mov	ip, r0
 8004d00:	e008      	b.n	8004d14 <USB_WritePacket+0x26>
      USBx_DFIFO((uint32_t)ch_ep_num) = __UNALIGNED_UINT32_READ(pSrc);
 8004d02:	eb04 3302 	add.w	r3, r4, r2, lsl #12
 8004d06:	f503 5380 	add.w	r3, r3, #4096	@ 0x1000
 8004d0a:	f851 0b04 	ldr.w	r0, [r1], #4
 8004d0e:	6018      	str	r0, [r3, #0]
    for (i = 0U; i < count32b; i++)
 8004d10:	f10c 0c01 	add.w	ip, ip, #1
 8004d14:	45f4      	cmp	ip, lr
 8004d16:	d3f4      	bcc.n	8004d02 <USB_WritePacket+0x14>
}
 8004d18:	2000      	movs	r0, #0
 8004d1a:	bd10      	pop	{r4, pc}

08004d1c <USB_ReadPacket>:
{
 8004d1c:	b500      	push	{lr}
 8004d1e:	4684      	mov	ip, r0
 8004d20:	4608      	mov	r0, r1
  uint32_t count32b = (uint32_t)len >> 2U;
 8004d22:	ea4f 0e92 	mov.w	lr, r2, lsr #2
  uint16_t remaining_bytes = len % 4U;
 8004d26:	f002 0203 	and.w	r2, r2, #3
  for (i = 0U; i < count32b; i++)
 8004d2a:	2300      	movs	r3, #0
 8004d2c:	e005      	b.n	8004d3a <USB_ReadPacket+0x1e>
    __UNALIGNED_UINT32_WRITE(pDest, USBx_DFIFO(0U));
 8004d2e:	f50c 5180 	add.w	r1, ip, #4096	@ 0x1000
 8004d32:	6809      	ldr	r1, [r1, #0]
 8004d34:	f840 1b04 	str.w	r1, [r0], #4
  for (i = 0U; i < count32b; i++)
 8004d38:	3301      	adds	r3, #1
 8004d3a:	4573      	cmp	r3, lr
 8004d3c:	d3f7      	bcc.n	8004d2e <USB_ReadPacket+0x12>
  if (remaining_bytes != 0U)
 8004d3e:	b17a      	cbz	r2, 8004d60 <USB_ReadPacket+0x44>
    __UNALIGNED_UINT32_WRITE(&pData, USBx_DFIFO(0U));
 8004d40:	f50c 5c80 	add.w	ip, ip, #4096	@ 0x1000
 8004d44:	f8dc c000 	ldr.w	ip, [ip]
    i = 0U;
 8004d48:	2100      	movs	r1, #0
      *(uint8_t *)pDest = (uint8_t)(pData >> (8U * (uint8_t)(i)));
 8004d4a:	b2cb      	uxtb	r3, r1
 8004d4c:	00db      	lsls	r3, r3, #3
 8004d4e:	fa2c f303 	lsr.w	r3, ip, r3
 8004d52:	f800 3b01 	strb.w	r3, [r0], #1
      i++;
 8004d56:	3101      	adds	r1, #1
      remaining_bytes--;
 8004d58:	3a01      	subs	r2, #1
 8004d5a:	b292      	uxth	r2, r2
    } while (remaining_bytes != 0U);
 8004d5c:	2a00      	cmp	r2, #0
 8004d5e:	d1f4      	bne.n	8004d4a <USB_ReadPacket+0x2e>
}
 8004d60:	bd00      	pop	{pc}

08004d62 <USB_DevDisconnect>:
  USBx_PCGCCTL &= ~(USB_OTG_PCGCCTL_STOPCLK | USB_OTG_PCGCCTL_GATECLK);
 8004d62:	f8d0 3e00 	ldr.w	r3, [r0, #3584]	@ 0xe00
 8004d66:	f023 0303 	bic.w	r3, r3, #3
 8004d6a:	f8c0 3e00 	str.w	r3, [r0, #3584]	@ 0xe00
  USBx_DEVICE->DCTL |= USB_OTG_DCTL_SDIS;
 8004d6e:	f8d0 3804 	ldr.w	r3, [r0, #2052]	@ 0x804
 8004d72:	f043 0302 	orr.w	r3, r3, #2
 8004d76:	f8c0 3804 	str.w	r3, [r0, #2052]	@ 0x804
}
 8004d7a:	2000      	movs	r0, #0
 8004d7c:	4770      	bx	lr

08004d7e <USB_ReadInterrupts>:
  tmpreg = USBx->GINTSTS;
 8004d7e:	6942      	ldr	r2, [r0, #20]
  tmpreg &= USBx->GINTMSK;
 8004d80:	6980      	ldr	r0, [r0, #24]
}
 8004d82:	4010      	ands	r0, r2
 8004d84:	4770      	bx	lr

08004d86 <USB_ReadDevAllOutEpInterrupt>:
  tmpreg  = USBx_DEVICE->DAINT;
 8004d86:	f8d0 3818 	ldr.w	r3, [r0, #2072]	@ 0x818
 8004d8a:	f500 6000 	add.w	r0, r0, #2048	@ 0x800
  tmpreg &= USBx_DEVICE->DAINTMSK;
 8004d8e:	69c0      	ldr	r0, [r0, #28]
 8004d90:	4018      	ands	r0, r3
}
 8004d92:	0c00      	lsrs	r0, r0, #16
 8004d94:	4770      	bx	lr

08004d96 <USB_ReadDevAllInEpInterrupt>:
  tmpreg  = USBx_DEVICE->DAINT;
 8004d96:	f8d0 3818 	ldr.w	r3, [r0, #2072]	@ 0x818
 8004d9a:	f500 6000 	add.w	r0, r0, #2048	@ 0x800
  tmpreg &= USBx_DEVICE->DAINTMSK;
 8004d9e:	69c0      	ldr	r0, [r0, #28]
 8004da0:	4018      	ands	r0, r3
}
 8004da2:	b280      	uxth	r0, r0
 8004da4:	4770      	bx	lr

08004da6 <USB_ReadDevOutEPInterrupt>:
  tmpreg  = USBx_OUTEP((uint32_t)epnum)->DOEPINT;
 8004da6:	eb00 1141 	add.w	r1, r0, r1, lsl #5
 8004daa:	f8d1 2b08 	ldr.w	r2, [r1, #2824]	@ 0xb08
  tmpreg &= USBx_DEVICE->DOEPMSK;
 8004dae:	f500 6000 	add.w	r0, r0, #2048	@ 0x800
 8004db2:	6940      	ldr	r0, [r0, #20]
}
 8004db4:	4010      	ands	r0, r2
 8004db6:	4770      	bx	lr

08004db8 <USB_ReadDevInEPInterrupt>:
  msk = USBx_DEVICE->DIEPMSK;
 8004db8:	f8d0 2810 	ldr.w	r2, [r0, #2064]	@ 0x810
  emp = USBx_DEVICE->DIEPEMPMSK;
 8004dbc:	f8d0 3834 	ldr.w	r3, [r0, #2100]	@ 0x834
  msk |= ((emp >> (epnum & EP_ADDR_MSK)) & 0x1U) << 7;
 8004dc0:	f001 0c0f 	and.w	ip, r1, #15
 8004dc4:	fa23 f30c 	lsr.w	r3, r3, ip
 8004dc8:	01db      	lsls	r3, r3, #7
 8004dca:	b2db      	uxtb	r3, r3
 8004dcc:	4313      	orrs	r3, r2
  tmpreg = USBx_INEP((uint32_t)epnum)->DIEPINT & msk;
 8004dce:	eb00 1041 	add.w	r0, r0, r1, lsl #5
 8004dd2:	f500 6010 	add.w	r0, r0, #2304	@ 0x900
 8004dd6:	6880      	ldr	r0, [r0, #8]
}
 8004dd8:	4018      	ands	r0, r3
 8004dda:	4770      	bx	lr

08004ddc <USB_GetMode>:
  return ((USBx->GINTSTS) & 0x1U);
 8004ddc:	6940      	ldr	r0, [r0, #20]
}
 8004dde:	f000 0001 	and.w	r0, r0, #1
 8004de2:	4770      	bx	lr

08004de4 <USB_SetCurrentMode>:
{
 8004de4:	b538      	push	{r3, r4, r5, lr}
 8004de6:	4605      	mov	r5, r0
  USBx->GUSBCFG &= ~(USB_OTG_GUSBCFG_FHMOD | USB_OTG_GUSBCFG_FDMOD);
 8004de8:	68c3      	ldr	r3, [r0, #12]
 8004dea:	f023 43c0 	bic.w	r3, r3, #1610612736	@ 0x60000000
 8004dee:	60c3      	str	r3, [r0, #12]
  if (mode == USB_HOST_MODE)
 8004df0:	2901      	cmp	r1, #1
 8004df2:	d013      	beq.n	8004e1c <USB_SetCurrentMode+0x38>
  else if (mode == USB_DEVICE_MODE)
 8004df4:	bb19      	cbnz	r1, 8004e3e <USB_SetCurrentMode+0x5a>
    USBx->GUSBCFG |= USB_OTG_GUSBCFG_FDMOD;
 8004df6:	68c3      	ldr	r3, [r0, #12]
 8004df8:	f043 4380 	orr.w	r3, r3, #1073741824	@ 0x40000000
 8004dfc:	60c3      	str	r3, [r0, #12]
  uint32_t ms = 0U;
 8004dfe:	460c      	mov	r4, r1
      HAL_Delay(10U);
 8004e00:	200a      	movs	r0, #10
 8004e02:	f7fc fda3 	bl	800194c <HAL_Delay>
      ms += 10U;
 8004e06:	340a      	adds	r4, #10
    } while ((USB_GetMode(USBx) != (uint32_t)USB_DEVICE_MODE) && (ms < HAL_USB_CURRENT_MODE_MAX_DELAY_MS));
 8004e08:	4628      	mov	r0, r5
 8004e0a:	f7ff ffe7 	bl	8004ddc <USB_GetMode>
 8004e0e:	b108      	cbz	r0, 8004e14 <USB_SetCurrentMode+0x30>
 8004e10:	2cc7      	cmp	r4, #199	@ 0xc7
 8004e12:	d9f5      	bls.n	8004e00 <USB_SetCurrentMode+0x1c>
  if (ms == HAL_USB_CURRENT_MODE_MAX_DELAY_MS)
 8004e14:	2cc8      	cmp	r4, #200	@ 0xc8
 8004e16:	d014      	beq.n	8004e42 <USB_SetCurrentMode+0x5e>
  return HAL_OK;
 8004e18:	2000      	movs	r0, #0
}
 8004e1a:	bd38      	pop	{r3, r4, r5, pc}
    USBx->GUSBCFG |= USB_OTG_GUSBCFG_FHMOD;
 8004e1c:	68c3      	ldr	r3, [r0, #12]
 8004e1e:	f043 5300 	orr.w	r3, r3, #536870912	@ 0x20000000
 8004e22:	60c3      	str	r3, [r0, #12]
  uint32_t ms = 0U;
 8004e24:	2400      	movs	r4, #0
      HAL_Delay(10U);
 8004e26:	200a      	movs	r0, #10
 8004e28:	f7fc fd90 	bl	800194c <HAL_Delay>
      ms += 10U;
 8004e2c:	340a      	adds	r4, #10
    } while ((USB_GetMode(USBx) != (uint32_t)USB_HOST_MODE) && (ms < HAL_USB_CURRENT_MODE_MAX_DELAY_MS));
 8004e2e:	4628      	mov	r0, r5
 8004e30:	f7ff ffd4 	bl	8004ddc <USB_GetMode>
 8004e34:	2801      	cmp	r0, #1
 8004e36:	d0ed      	beq.n	8004e14 <USB_SetCurrentMode+0x30>
 8004e38:	2cc7      	cmp	r4, #199	@ 0xc7
 8004e3a:	d9f4      	bls.n	8004e26 <USB_SetCurrentMode+0x42>
 8004e3c:	e7ea      	b.n	8004e14 <USB_SetCurrentMode+0x30>
    return HAL_ERROR;
 8004e3e:	2001      	movs	r0, #1
 8004e40:	e7eb      	b.n	8004e1a <USB_SetCurrentMode+0x36>
    return HAL_ERROR;
 8004e42:	2001      	movs	r0, #1
 8004e44:	e7e9      	b.n	8004e1a <USB_SetCurrentMode+0x36>

08004e46 <USB_ActivateSetup>:
  USBx_INEP(0U)->DIEPCTL &= ~USB_OTG_DIEPCTL_MPSIZ;
 8004e46:	f8d0 3900 	ldr.w	r3, [r0, #2304]	@ 0x900
 8004e4a:	f36f 030a 	bfc	r3, #0, #11
 8004e4e:	f8c0 3900 	str.w	r3, [r0, #2304]	@ 0x900
  USBx_DEVICE->DCTL |= USB_OTG_DCTL_CGINAK;
 8004e52:	f8d0 3804 	ldr.w	r3, [r0, #2052]	@ 0x804
 8004e56:	f443 7380 	orr.w	r3, r3, #256	@ 0x100
 8004e5a:	f8c0 3804 	str.w	r3, [r0, #2052]	@ 0x804
}
 8004e5e:	2000      	movs	r0, #0
 8004e60:	4770      	bx	lr
	...

08004e64 <USB_EP0_OutStart>:
{
 8004e64:	468c      	mov	ip, r1
  uint32_t gSNPSiD = *(__IO const uint32_t *)(&USBx->CID + 0x1U);
 8004e66:	6c01      	ldr	r1, [r0, #64]	@ 0x40
  if (gSNPSiD > USB_OTG_CORE_ID_300A)
 8004e68:	4b14      	ldr	r3, [pc, #80]	@ (8004ebc <USB_EP0_OutStart+0x58>)
 8004e6a:	4299      	cmp	r1, r3
 8004e6c:	d903      	bls.n	8004e76 <USB_EP0_OutStart+0x12>
    if ((USBx_OUTEP(0U)->DOEPCTL & USB_OTG_DOEPCTL_EPENA) == USB_OTG_DOEPCTL_EPENA)
 8004e6e:	f8d0 3b00 	ldr.w	r3, [r0, #2816]	@ 0xb00
 8004e72:	2b00      	cmp	r3, #0
 8004e74:	db17      	blt.n	8004ea6 <USB_EP0_OutStart+0x42>
  USBx_OUTEP(0U)->DOEPTSIZ = 0U;
 8004e76:	2100      	movs	r1, #0
 8004e78:	f8c0 1b10 	str.w	r1, [r0, #2832]	@ 0xb10
  USBx_OUTEP(0U)->DOEPTSIZ |= (USB_OTG_DOEPTSIZ_PKTCNT & (1U << 19));
 8004e7c:	f8d0 1b10 	ldr.w	r1, [r0, #2832]	@ 0xb10
 8004e80:	f441 2100 	orr.w	r1, r1, #524288	@ 0x80000
 8004e84:	f8c0 1b10 	str.w	r1, [r0, #2832]	@ 0xb10
  USBx_OUTEP(0U)->DOEPTSIZ |= (3U * 8U);
 8004e88:	f8d0 1b10 	ldr.w	r1, [r0, #2832]	@ 0xb10
 8004e8c:	f041 0118 	orr.w	r1, r1, #24
 8004e90:	f8c0 1b10 	str.w	r1, [r0, #2832]	@ 0xb10
  USBx_OUTEP(0U)->DOEPTSIZ |=  USB_OTG_DOEPTSIZ_STUPCNT;
 8004e94:	f8d0 1b10 	ldr.w	r1, [r0, #2832]	@ 0xb10
 8004e98:	f041 41c0 	orr.w	r1, r1, #1610612736	@ 0x60000000
 8004e9c:	f8c0 1b10 	str.w	r1, [r0, #2832]	@ 0xb10
  if (dma == 1U)
 8004ea0:	f1bc 0f01 	cmp.w	ip, #1
 8004ea4:	d001      	beq.n	8004eaa <USB_EP0_OutStart+0x46>
}
 8004ea6:	2000      	movs	r0, #0
 8004ea8:	4770      	bx	lr
    USBx_OUTEP(0U)->DOEPDMA = (uint32_t)psetup;
 8004eaa:	f8c0 2b14 	str.w	r2, [r0, #2836]	@ 0xb14
    USBx_OUTEP(0U)->DOEPCTL |= USB_OTG_DOEPCTL_EPENA | USB_OTG_DOEPCTL_USBAEP;
 8004eae:	f8d0 3b00 	ldr.w	r3, [r0, #2816]	@ 0xb00
 8004eb2:	f043 2380 	orr.w	r3, r3, #2147516416	@ 0x80008000
 8004eb6:	f8c0 3b00 	str.w	r3, [r0, #2816]	@ 0xb00
 8004eba:	e7f4      	b.n	8004ea6 <USB_EP0_OutStart+0x42>
 8004ebc:	4f54300a 	.word	0x4f54300a

08004ec0 <SystemInit>:
  */
void SystemInit(void)
{
  /* FPU settings ------------------------------------------------------------*/
  #if (__FPU_PRESENT == 1) && (__FPU_USED == 1)
    SCB->CPACR |= ((3UL << 10*2)|(3UL << 11*2));  /* set CP10 and CP11 Full Access */
 8004ec0:	4a03      	ldr	r2, [pc, #12]	@ (8004ed0 <SystemInit+0x10>)
 8004ec2:	f8d2 3088 	ldr.w	r3, [r2, #136]	@ 0x88
 8004ec6:	f443 0370 	orr.w	r3, r3, #15728640	@ 0xf00000
 8004eca:	f8c2 3088 	str.w	r3, [r2, #136]	@ 0x88

  /* Configure the Vector Table location -------------------------------------*/
#if defined(USER_VECT_TAB_ADDRESS)
  SCB->VTOR = VECT_TAB_BASE_ADDRESS | VECT_TAB_OFFSET; /* Vector Table Relocation in Internal SRAM */
#endif /* USER_VECT_TAB_ADDRESS */
}
 8004ece:	4770      	bx	lr
 8004ed0:	e000ed00 	.word	0xe000ed00

08004ed4 <prvResetNextTaskUnblockTime>:

static void prvResetNextTaskUnblockTime( void )
{
TCB_t *pxTCB;

	if( listLIST_IS_EMPTY( pxDelayedTaskList ) != pdFALSE )
 8004ed4:	4b08      	ldr	r3, [pc, #32]	@ (8004ef8 <prvResetNextTaskUnblockTime+0x24>)
 8004ed6:	681b      	ldr	r3, [r3, #0]
 8004ed8:	681b      	ldr	r3, [r3, #0]
 8004eda:	b923      	cbnz	r3, 8004ee6 <prvResetNextTaskUnblockTime+0x12>
	{
		/* The new current delayed list is empty.  Set xNextTaskUnblockTime to
		the maximum possible value so it is	extremely unlikely that the
		if( xTickCount >= xNextTaskUnblockTime ) test will pass until
		there is an item in the delayed list. */
		xNextTaskUnblockTime = portMAX_DELAY;
 8004edc:	4b07      	ldr	r3, [pc, #28]	@ (8004efc <prvResetNextTaskUnblockTime+0x28>)
 8004ede:	f04f 32ff 	mov.w	r2, #4294967295
 8004ee2:	601a      	str	r2, [r3, #0]
 8004ee4:	4770      	bx	lr
	{
		/* The new current delayed list is not empty, get the value of
		the item at the head of the delayed list.  This is the time at
		which the task at the head of the delayed list should be removed
		from the Blocked state. */
		( pxTCB ) = listGET_OWNER_OF_HEAD_ENTRY( pxDelayedTaskList ); /*lint !e9079 void * is used as this macro is used with timers and co-routines too.  Alignment is known to be fine as the type of the pointer stored and retrieved is the same. */
 8004ee6:	4b04      	ldr	r3, [pc, #16]	@ (8004ef8 <prvResetNextTaskUnblockTime+0x24>)
 8004ee8:	681b      	ldr	r3, [r3, #0]
 8004eea:	68db      	ldr	r3, [r3, #12]
 8004eec:	68db      	ldr	r3, [r3, #12]
		xNextTaskUnblockTime = listGET_LIST_ITEM_VALUE( &( ( pxTCB )->xStateListItem ) );
 8004eee:	685a      	ldr	r2, [r3, #4]
 8004ef0:	4b02      	ldr	r3, [pc, #8]	@ (8004efc <prvResetNextTaskUnblockTime+0x28>)
 8004ef2:	601a      	str	r2, [r3, #0]
	}
}
 8004ef4:	4770      	bx	lr
 8004ef6:	bf00      	nop
 8004ef8:	20004e3c 	.word	0x20004e3c
 8004efc:	20004dd4 	.word	0x20004dd4

08004f00 <prvInitialiseNewTask>:
{
 8004f00:	e92d 43f8 	stmdb	sp!, {r3, r4, r5, r6, r7, r8, r9, lr}
 8004f04:	4680      	mov	r8, r0
 8004f06:	4699      	mov	r9, r3
 8004f08:	9d08      	ldr	r5, [sp, #32]
 8004f0a:	9c0a      	ldr	r4, [sp, #40]	@ 0x28
		pxTopOfStack = &( pxNewTCB->pxStack[ ulStackDepth - ( uint32_t ) 1 ] );
 8004f0c:	6b23      	ldr	r3, [r4, #48]	@ 0x30
 8004f0e:	f102 4280 	add.w	r2, r2, #1073741824	@ 0x40000000
 8004f12:	3a01      	subs	r2, #1
 8004f14:	eb03 0382 	add.w	r3, r3, r2, lsl #2
		pxTopOfStack = ( StackType_t * ) ( ( ( portPOINTER_SIZE_TYPE ) pxTopOfStack ) & ( ~( ( portPOINTER_SIZE_TYPE ) portBYTE_ALIGNMENT_MASK ) ) ); /*lint !e923 !e9033 !e9078 MISRA exception.  Avoiding casts between pointers and integers is not practical.  Size differences accounted for using portPOINTER_SIZE_TYPE type.  Checked by assert(). */
 8004f18:	f023 0307 	bic.w	r3, r3, #7
 8004f1c:	461f      	mov	r7, r3
	if( pcName != NULL )
 8004f1e:	b399      	cbz	r1, 8004f88 <prvInitialiseNewTask+0x88>
 8004f20:	4608      	mov	r0, r1
		for( x = ( UBaseType_t ) 0; x < ( UBaseType_t ) configMAX_TASK_NAME_LEN; x++ )
 8004f22:	f04f 0c00 	mov.w	ip, #0
 8004f26:	f1bc 0f0f 	cmp.w	ip, #15
 8004f2a:	d809      	bhi.n	8004f40 <prvInitialiseNewTask+0x40>
			pxNewTCB->pcTaskName[ x ] = pcName[ x ];
 8004f2c:	f810 200c 	ldrb.w	r2, [r0, ip]
 8004f30:	eb04 030c 	add.w	r3, r4, ip
 8004f34:	f883 2034 	strb.w	r2, [r3, #52]	@ 0x34
			if( pcName[ x ] == ( char ) 0x00 )
 8004f38:	b112      	cbz	r2, 8004f40 <prvInitialiseNewTask+0x40>
		for( x = ( UBaseType_t ) 0; x < ( UBaseType_t ) configMAX_TASK_NAME_LEN; x++ )
 8004f3a:	f10c 0c01 	add.w	ip, ip, #1
 8004f3e:	e7f2      	b.n	8004f26 <prvInitialiseNewTask+0x26>
		pxNewTCB->pcTaskName[ configMAX_TASK_NAME_LEN - 1 ] = '\0';
 8004f40:	2300      	movs	r3, #0
 8004f42:	f884 3043 	strb.w	r3, [r4, #67]	@ 0x43
	if( uxPriority >= ( UBaseType_t ) configMAX_PRIORITIES )
 8004f46:	2d06      	cmp	r5, #6
 8004f48:	d900      	bls.n	8004f4c <prvInitialiseNewTask+0x4c>
		uxPriority = ( UBaseType_t ) configMAX_PRIORITIES - ( UBaseType_t ) 1U;
 8004f4a:	2506      	movs	r5, #6
	pxNewTCB->uxPriority = uxPriority;
 8004f4c:	62e5      	str	r5, [r4, #44]	@ 0x2c
		pxNewTCB->uxBasePriority = uxPriority;
 8004f4e:	6465      	str	r5, [r4, #68]	@ 0x44
		pxNewTCB->uxMutexesHeld = 0;
 8004f50:	2600      	movs	r6, #0
 8004f52:	64a6      	str	r6, [r4, #72]	@ 0x48
	vListInitialiseItem( &( pxNewTCB->xStateListItem ) );
 8004f54:	1d20      	adds	r0, r4, #4
 8004f56:	f7fb fc5a 	bl	800080e <vListInitialiseItem>
	vListInitialiseItem( &( pxNewTCB->xEventListItem ) );
 8004f5a:	f104 0018 	add.w	r0, r4, #24
 8004f5e:	f7fb fc56 	bl	800080e <vListInitialiseItem>
	listSET_LIST_ITEM_OWNER( &( pxNewTCB->xStateListItem ), pxNewTCB );
 8004f62:	6124      	str	r4, [r4, #16]
	listSET_LIST_ITEM_VALUE( &( pxNewTCB->xEventListItem ), ( TickType_t ) configMAX_PRIORITIES - ( TickType_t ) uxPriority ); /*lint !e961 MISRA exception as the casts are only redundant for some ports. */
 8004f64:	f1c5 0507 	rsb	r5, r5, #7
 8004f68:	61a5      	str	r5, [r4, #24]
	listSET_LIST_ITEM_OWNER( &( pxNewTCB->xEventListItem ), pxNewTCB );
 8004f6a:	6264      	str	r4, [r4, #36]	@ 0x24
		pxNewTCB->ulNotifiedValue = 0;
 8004f6c:	64e6      	str	r6, [r4, #76]	@ 0x4c
		pxNewTCB->ucNotifyState = taskNOT_WAITING_NOTIFICATION;
 8004f6e:	f884 6050 	strb.w	r6, [r4, #80]	@ 0x50
			pxNewTCB->pxTopOfStack = pxPortInitialiseStack( pxTopOfStack, pxTaskCode, pvParameters );
 8004f72:	464a      	mov	r2, r9
 8004f74:	4641      	mov	r1, r8
 8004f76:	4638      	mov	r0, r7
 8004f78:	f7fb fefa 	bl	8000d70 <pxPortInitialiseStack>
 8004f7c:	6020      	str	r0, [r4, #0]
	if( pxCreatedTask != NULL )
 8004f7e:	9b09      	ldr	r3, [sp, #36]	@ 0x24
 8004f80:	b103      	cbz	r3, 8004f84 <prvInitialiseNewTask+0x84>
		*pxCreatedTask = ( TaskHandle_t ) pxNewTCB;
 8004f82:	601c      	str	r4, [r3, #0]
}
 8004f84:	e8bd 83f8 	ldmia.w	sp!, {r3, r4, r5, r6, r7, r8, r9, pc}
		pxNewTCB->pcTaskName[ 0 ] = 0x00;
 8004f88:	2300      	movs	r3, #0
 8004f8a:	f884 3034 	strb.w	r3, [r4, #52]	@ 0x34
 8004f8e:	e7da      	b.n	8004f46 <prvInitialiseNewTask+0x46>

08004f90 <prvInitialiseTaskLists>:
{
 8004f90:	b538      	push	{r3, r4, r5, lr}
	for( uxPriority = ( UBaseType_t ) 0U; uxPriority < ( UBaseType_t ) configMAX_PRIORITIES; uxPriority++ )
 8004f92:	2400      	movs	r4, #0
 8004f94:	e007      	b.n	8004fa6 <prvInitialiseTaskLists+0x16>
		vListInitialise( &( pxReadyTasksLists[ uxPriority ] ) );
 8004f96:	eb04 0084 	add.w	r0, r4, r4, lsl #2
 8004f9a:	4b0f      	ldr	r3, [pc, #60]	@ (8004fd8 <prvInitialiseTaskLists+0x48>)
 8004f9c:	eb03 0080 	add.w	r0, r3, r0, lsl #2
 8004fa0:	f7fb fc2a 	bl	80007f8 <vListInitialise>
	for( uxPriority = ( UBaseType_t ) 0U; uxPriority < ( UBaseType_t ) configMAX_PRIORITIES; uxPriority++ )
 8004fa4:	3401      	adds	r4, #1
 8004fa6:	2c06      	cmp	r4, #6
 8004fa8:	d9f5      	bls.n	8004f96 <prvInitialiseTaskLists+0x6>
	vListInitialise( &xDelayedTaskList1 );
 8004faa:	4d0c      	ldr	r5, [pc, #48]	@ (8004fdc <prvInitialiseTaskLists+0x4c>)
 8004fac:	4628      	mov	r0, r5
 8004fae:	f7fb fc23 	bl	80007f8 <vListInitialise>
	vListInitialise( &xDelayedTaskList2 );
 8004fb2:	4c0b      	ldr	r4, [pc, #44]	@ (8004fe0 <prvInitialiseTaskLists+0x50>)
 8004fb4:	4620      	mov	r0, r4
 8004fb6:	f7fb fc1f 	bl	80007f8 <vListInitialise>
	vListInitialise( &xPendingReadyList );
 8004fba:	480a      	ldr	r0, [pc, #40]	@ (8004fe4 <prvInitialiseTaskLists+0x54>)
 8004fbc:	f7fb fc1c 	bl	80007f8 <vListInitialise>
		vListInitialise( &xTasksWaitingTermination );
 8004fc0:	4809      	ldr	r0, [pc, #36]	@ (8004fe8 <prvInitialiseTaskLists+0x58>)
 8004fc2:	f7fb fc19 	bl	80007f8 <vListInitialise>
		vListInitialise( &xSuspendedTaskList );
 8004fc6:	4809      	ldr	r0, [pc, #36]	@ (8004fec <prvInitialiseTaskLists+0x5c>)
 8004fc8:	f7fb fc16 	bl	80007f8 <vListInitialise>
	pxDelayedTaskList = &xDelayedTaskList1;
 8004fcc:	4b08      	ldr	r3, [pc, #32]	@ (8004ff0 <prvInitialiseTaskLists+0x60>)
 8004fce:	601d      	str	r5, [r3, #0]
	pxOverflowDelayedTaskList = &xDelayedTaskList2;
 8004fd0:	4b08      	ldr	r3, [pc, #32]	@ (8004ff4 <prvInitialiseTaskLists+0x64>)
 8004fd2:	601c      	str	r4, [r3, #0]
}
 8004fd4:	bd38      	pop	{r3, r4, r5, pc}
 8004fd6:	bf00      	nop
 8004fd8:	20004e68 	.word	0x20004e68
 8004fdc:	20004e54 	.word	0x20004e54
 8004fe0:	20004e40 	.word	0x20004e40
 8004fe4:	20004e24 	.word	0x20004e24
 8004fe8:	20004e10 	.word	0x20004e10
 8004fec:	20004df8 	.word	0x20004df8
 8004ff0:	20004e3c 	.word	0x20004e3c
 8004ff4:	20004e38 	.word	0x20004e38

08004ff8 <prvAddNewTaskToReadyList>:
{
 8004ff8:	b510      	push	{r4, lr}
 8004ffa:	4604      	mov	r4, r0
	taskENTER_CRITICAL();
 8004ffc:	f7fb fee2 	bl	8000dc4 <vPortEnterCritical>
		uxCurrentNumberOfTasks++;
 8005000:	4a21      	ldr	r2, [pc, #132]	@ (8005088 <prvAddNewTaskToReadyList+0x90>)
 8005002:	6813      	ldr	r3, [r2, #0]
 8005004:	3301      	adds	r3, #1
 8005006:	6013      	str	r3, [r2, #0]
		if( pxCurrentTCB == NULL )
 8005008:	4b20      	ldr	r3, [pc, #128]	@ (800508c <prvAddNewTaskToReadyList+0x94>)
 800500a:	681b      	ldr	r3, [r3, #0]
 800500c:	b15b      	cbz	r3, 8005026 <prvAddNewTaskToReadyList+0x2e>
			if( xSchedulerRunning == pdFALSE )
 800500e:	4b20      	ldr	r3, [pc, #128]	@ (8005090 <prvAddNewTaskToReadyList+0x98>)
 8005010:	681b      	ldr	r3, [r3, #0]
 8005012:	b96b      	cbnz	r3, 8005030 <prvAddNewTaskToReadyList+0x38>
				if( pxCurrentTCB->uxPriority <= pxNewTCB->uxPriority )
 8005014:	4b1d      	ldr	r3, [pc, #116]	@ (800508c <prvAddNewTaskToReadyList+0x94>)
 8005016:	681b      	ldr	r3, [r3, #0]
 8005018:	6ada      	ldr	r2, [r3, #44]	@ 0x2c
 800501a:	6ae3      	ldr	r3, [r4, #44]	@ 0x2c
 800501c:	429a      	cmp	r2, r3
 800501e:	d807      	bhi.n	8005030 <prvAddNewTaskToReadyList+0x38>
					pxCurrentTCB = pxNewTCB;
 8005020:	4b1a      	ldr	r3, [pc, #104]	@ (800508c <prvAddNewTaskToReadyList+0x94>)
 8005022:	601c      	str	r4, [r3, #0]
 8005024:	e004      	b.n	8005030 <prvAddNewTaskToReadyList+0x38>
			pxCurrentTCB = pxNewTCB;
 8005026:	4b19      	ldr	r3, [pc, #100]	@ (800508c <prvAddNewTaskToReadyList+0x94>)
 8005028:	601c      	str	r4, [r3, #0]
			if( uxCurrentNumberOfTasks == ( UBaseType_t ) 1 )
 800502a:	6813      	ldr	r3, [r2, #0]
 800502c:	2b01      	cmp	r3, #1
 800502e:	d028      	beq.n	8005082 <prvAddNewTaskToReadyList+0x8a>
		uxTaskNumber++;
 8005030:	4a18      	ldr	r2, [pc, #96]	@ (8005094 <prvAddNewTaskToReadyList+0x9c>)
 8005032:	6813      	ldr	r3, [r2, #0]
 8005034:	3301      	adds	r3, #1
 8005036:	6013      	str	r3, [r2, #0]
		prvAddTaskToReadyList( pxNewTCB );
 8005038:	6ae0      	ldr	r0, [r4, #44]	@ 0x2c
 800503a:	2301      	movs	r3, #1
 800503c:	4083      	lsls	r3, r0
 800503e:	4a16      	ldr	r2, [pc, #88]	@ (8005098 <prvAddNewTaskToReadyList+0xa0>)
 8005040:	6811      	ldr	r1, [r2, #0]
 8005042:	430b      	orrs	r3, r1
 8005044:	6013      	str	r3, [r2, #0]
 8005046:	eb00 0080 	add.w	r0, r0, r0, lsl #2
 800504a:	1d21      	adds	r1, r4, #4
 800504c:	4b13      	ldr	r3, [pc, #76]	@ (800509c <prvAddNewTaskToReadyList+0xa4>)
 800504e:	eb03 0080 	add.w	r0, r3, r0, lsl #2
 8005052:	f7fb fbdf 	bl	8000814 <vListInsertEnd>
	taskEXIT_CRITICAL();
 8005056:	f7fb fed7 	bl	8000e08 <vPortExitCritical>
	if( xSchedulerRunning != pdFALSE )
 800505a:	4b0d      	ldr	r3, [pc, #52]	@ (8005090 <prvAddNewTaskToReadyList+0x98>)
 800505c:	681b      	ldr	r3, [r3, #0]
 800505e:	b17b      	cbz	r3, 8005080 <prvAddNewTaskToReadyList+0x88>
		if( pxCurrentTCB->uxPriority < pxNewTCB->uxPriority )
 8005060:	4b0a      	ldr	r3, [pc, #40]	@ (800508c <prvAddNewTaskToReadyList+0x94>)
 8005062:	681b      	ldr	r3, [r3, #0]
 8005064:	6ada      	ldr	r2, [r3, #44]	@ 0x2c
 8005066:	6ae3      	ldr	r3, [r4, #44]	@ 0x2c
 8005068:	429a      	cmp	r2, r3
 800506a:	d209      	bcs.n	8005080 <prvAddNewTaskToReadyList+0x88>
			taskYIELD_IF_USING_PREEMPTION();
 800506c:	f04f 23e0 	mov.w	r3, #3758153728	@ 0xe000e000
 8005070:	f04f 5280 	mov.w	r2, #268435456	@ 0x10000000
 8005074:	f8c3 2d04 	str.w	r2, [r3, #3332]	@ 0xd04
 8005078:	f3bf 8f4f 	dsb	sy
 800507c:	f3bf 8f6f 	isb	sy
}
 8005080:	bd10      	pop	{r4, pc}
				prvInitialiseTaskLists();
 8005082:	f7ff ff85 	bl	8004f90 <prvInitialiseTaskLists>
 8005086:	e7d3      	b.n	8005030 <prvAddNewTaskToReadyList+0x38>
 8005088:	20004df4 	.word	0x20004df4
 800508c:	20004ef4 	.word	0x20004ef4
 8005090:	20004de8 	.word	0x20004de8
 8005094:	20004dd8 	.word	0x20004dd8
 8005098:	20004dec 	.word	0x20004dec
 800509c:	20004e68 	.word	0x20004e68

080050a0 <prvDeleteTCB>:
	{
 80050a0:	b510      	push	{r4, lr}
 80050a2:	4604      	mov	r4, r0
			if( pxTCB->ucStaticallyAllocated == tskDYNAMICALLY_ALLOCATED_STACK_AND_TCB )
 80050a4:	f890 3051 	ldrb.w	r3, [r0, #81]	@ 0x51
 80050a8:	b163      	cbz	r3, 80050c4 <prvDeleteTCB+0x24>
			else if( pxTCB->ucStaticallyAllocated == tskSTATICALLY_ALLOCATED_STACK_ONLY )
 80050aa:	2b01      	cmp	r3, #1
 80050ac:	d011      	beq.n	80050d2 <prvDeleteTCB+0x32>
				configASSERT( pxTCB->ucStaticallyAllocated == tskSTATICALLY_ALLOCATED_STACK_AND_TCB	);
 80050ae:	2b02      	cmp	r3, #2
 80050b0:	d00e      	beq.n	80050d0 <prvDeleteTCB+0x30>
 80050b2:	f04f 0350 	mov.w	r3, #80	@ 0x50
 80050b6:	f383 8811 	msr	BASEPRI, r3
 80050ba:	f3bf 8f6f 	isb	sy
 80050be:	f3bf 8f4f 	dsb	sy
 80050c2:	e7fe      	b.n	80050c2 <prvDeleteTCB+0x22>
				vPortFree( pxTCB->pxStack );
 80050c4:	6b00      	ldr	r0, [r0, #48]	@ 0x30
 80050c6:	f7fb fb57 	bl	8000778 <vPortFree>
				vPortFree( pxTCB );
 80050ca:	4620      	mov	r0, r4
 80050cc:	f7fb fb54 	bl	8000778 <vPortFree>
	}
 80050d0:	bd10      	pop	{r4, pc}
				vPortFree( pxTCB );
 80050d2:	f7fb fb51 	bl	8000778 <vPortFree>
 80050d6:	e7fb      	b.n	80050d0 <prvDeleteTCB+0x30>

080050d8 <prvCheckTasksWaitingTermination>:
		while( uxDeletedTasksWaitingCleanUp > ( UBaseType_t ) 0U )
 80050d8:	4b0f      	ldr	r3, [pc, #60]	@ (8005118 <prvCheckTasksWaitingTermination+0x40>)
 80050da:	681b      	ldr	r3, [r3, #0]
 80050dc:	b1d3      	cbz	r3, 8005114 <prvCheckTasksWaitingTermination+0x3c>
{
 80050de:	b510      	push	{r4, lr}
			taskENTER_CRITICAL();
 80050e0:	f7fb fe70 	bl	8000dc4 <vPortEnterCritical>
				pxTCB = listGET_OWNER_OF_HEAD_ENTRY( ( &xTasksWaitingTermination ) ); /*lint !e9079 void * is used as this macro is used with timers and co-routines too.  Alignment is known to be fine as the type of the pointer stored and retrieved is the same. */
 80050e4:	4b0d      	ldr	r3, [pc, #52]	@ (800511c <prvCheckTasksWaitingTermination+0x44>)
 80050e6:	68db      	ldr	r3, [r3, #12]
 80050e8:	68dc      	ldr	r4, [r3, #12]
				( void ) uxListRemove( &( pxTCB->xStateListItem ) );
 80050ea:	1d20      	adds	r0, r4, #4
 80050ec:	f7fb fbb9 	bl	8000862 <uxListRemove>
				--uxCurrentNumberOfTasks;
 80050f0:	4a0b      	ldr	r2, [pc, #44]	@ (8005120 <prvCheckTasksWaitingTermination+0x48>)
 80050f2:	6813      	ldr	r3, [r2, #0]
 80050f4:	3b01      	subs	r3, #1
 80050f6:	6013      	str	r3, [r2, #0]
				--uxDeletedTasksWaitingCleanUp;
 80050f8:	4a07      	ldr	r2, [pc, #28]	@ (8005118 <prvCheckTasksWaitingTermination+0x40>)
 80050fa:	6813      	ldr	r3, [r2, #0]
 80050fc:	3b01      	subs	r3, #1
 80050fe:	6013      	str	r3, [r2, #0]
			taskEXIT_CRITICAL();
 8005100:	f7fb fe82 	bl	8000e08 <vPortExitCritical>
			prvDeleteTCB( pxTCB );
 8005104:	4620      	mov	r0, r4
 8005106:	f7ff ffcb 	bl	80050a0 <prvDeleteTCB>
		while( uxDeletedTasksWaitingCleanUp > ( UBaseType_t ) 0U )
 800510a:	4b03      	ldr	r3, [pc, #12]	@ (8005118 <prvCheckTasksWaitingTermination+0x40>)
 800510c:	681b      	ldr	r3, [r3, #0]
 800510e:	2b00      	cmp	r3, #0
 8005110:	d1e6      	bne.n	80050e0 <prvCheckTasksWaitingTermination+0x8>
}
 8005112:	bd10      	pop	{r4, pc}
 8005114:	4770      	bx	lr
 8005116:	bf00      	nop
 8005118:	20004e0c 	.word	0x20004e0c
 800511c:	20004e10 	.word	0x20004e10
 8005120:	20004df4 	.word	0x20004df4

08005124 <prvIdleTask>:
{
 8005124:	b508      	push	{r3, lr}
		prvCheckTasksWaitingTermination();
 8005126:	f7ff ffd7 	bl	80050d8 <prvCheckTasksWaitingTermination>
			if( listCURRENT_LIST_LENGTH( &( pxReadyTasksLists[ tskIDLE_PRIORITY ] ) ) > ( UBaseType_t ) 1 )
 800512a:	4b07      	ldr	r3, [pc, #28]	@ (8005148 <prvIdleTask+0x24>)
 800512c:	681b      	ldr	r3, [r3, #0]
 800512e:	2b01      	cmp	r3, #1
 8005130:	d9f9      	bls.n	8005126 <prvIdleTask+0x2>
				taskYIELD();
 8005132:	f04f 23e0 	mov.w	r3, #3758153728	@ 0xe000e000
 8005136:	f04f 5280 	mov.w	r2, #268435456	@ 0x10000000
 800513a:	f8c3 2d04 	str.w	r2, [r3, #3332]	@ 0xd04
 800513e:	f3bf 8f4f 	dsb	sy
 8005142:	f3bf 8f6f 	isb	sy
 8005146:	e7ee      	b.n	8005126 <prvIdleTask+0x2>
 8005148:	20004e68 	.word	0x20004e68

0800514c <prvAddCurrentTaskToDelayedList>:

#endif
/*-----------------------------------------------------------*/

static void prvAddCurrentTaskToDelayedList( TickType_t xTicksToWait, const BaseType_t xCanBlockIndefinitely )
{
 800514c:	b570      	push	{r4, r5, r6, lr}
 800514e:	4604      	mov	r4, r0
 8005150:	460e      	mov	r6, r1
TickType_t xTimeToWake;
const TickType_t xConstTickCount = xTickCount;
 8005152:	4b1d      	ldr	r3, [pc, #116]	@ (80051c8 <prvAddCurrentTaskToDelayedList+0x7c>)
 8005154:	681d      	ldr	r5, [r3, #0]
	}
	#endif

	/* Remove the task from the ready list before adding it to the blocked list
	as the same list item is used for both lists. */
	if( uxListRemove( &( pxCurrentTCB->xStateListItem ) ) == ( UBaseType_t ) 0 )
 8005156:	4b1d      	ldr	r3, [pc, #116]	@ (80051cc <prvAddCurrentTaskToDelayedList+0x80>)
 8005158:	6818      	ldr	r0, [r3, #0]
 800515a:	3004      	adds	r0, #4
 800515c:	f7fb fb81 	bl	8000862 <uxListRemove>
 8005160:	b948      	cbnz	r0, 8005176 <prvAddCurrentTaskToDelayedList+0x2a>
	{
		/* The current task must be in a ready list, so there is no need to
		check, and the port reset macro can be called directly. */
		portRESET_READY_PRIORITY( pxCurrentTCB->uxPriority, uxTopReadyPriority ); /*lint !e931 pxCurrentTCB cannot change as it is the calling task.  pxCurrentTCB->uxPriority and uxTopReadyPriority cannot change as called with scheduler suspended or in a critical section. */
 8005162:	4b1a      	ldr	r3, [pc, #104]	@ (80051cc <prvAddCurrentTaskToDelayedList+0x80>)
 8005164:	681b      	ldr	r3, [r3, #0]
 8005166:	6adb      	ldr	r3, [r3, #44]	@ 0x2c
 8005168:	2201      	movs	r2, #1
 800516a:	409a      	lsls	r2, r3
 800516c:	4918      	ldr	r1, [pc, #96]	@ (80051d0 <prvAddCurrentTaskToDelayedList+0x84>)
 800516e:	680b      	ldr	r3, [r1, #0]
 8005170:	ea23 0302 	bic.w	r3, r3, r2
 8005174:	600b      	str	r3, [r1, #0]
		mtCOVERAGE_TEST_MARKER();
	}

	#if ( INCLUDE_vTaskSuspend == 1 )
	{
		if( ( xTicksToWait == portMAX_DELAY ) && ( xCanBlockIndefinitely != pdFALSE ) )
 8005176:	f1b4 3fff 	cmp.w	r4, #4294967295
 800517a:	d00d      	beq.n	8005198 <prvAddCurrentTaskToDelayedList+0x4c>
		else
		{
			/* Calculate the time at which the task should be woken if the event
			does not occur.  This may overflow but this doesn't matter, the
			kernel will manage it correctly. */
			xTimeToWake = xConstTickCount + xTicksToWait;
 800517c:	442c      	add	r4, r5

			/* The list item will be inserted in wake time order. */
			listSET_LIST_ITEM_VALUE( &( pxCurrentTCB->xStateListItem ), xTimeToWake );
 800517e:	4b13      	ldr	r3, [pc, #76]	@ (80051cc <prvAddCurrentTaskToDelayedList+0x80>)
 8005180:	681b      	ldr	r3, [r3, #0]
 8005182:	605c      	str	r4, [r3, #4]

			if( xTimeToWake < xConstTickCount )
 8005184:	42a5      	cmp	r5, r4
 8005186:	d910      	bls.n	80051aa <prvAddCurrentTaskToDelayedList+0x5e>
			{
				/* Wake time has overflowed.  Place this item in the overflow
				list. */
				vListInsert( pxOverflowDelayedTaskList, &( pxCurrentTCB->xStateListItem ) );
 8005188:	4b12      	ldr	r3, [pc, #72]	@ (80051d4 <prvAddCurrentTaskToDelayedList+0x88>)
 800518a:	6818      	ldr	r0, [r3, #0]
 800518c:	4b0f      	ldr	r3, [pc, #60]	@ (80051cc <prvAddCurrentTaskToDelayedList+0x80>)
 800518e:	6819      	ldr	r1, [r3, #0]
 8005190:	3104      	adds	r1, #4
 8005192:	f7fb fb4a 	bl	800082a <vListInsert>

		/* Avoid compiler warning when INCLUDE_vTaskSuspend is not 1. */
		( void ) xCanBlockIndefinitely;
	}
	#endif /* INCLUDE_vTaskSuspend */
}
 8005196:	bd70      	pop	{r4, r5, r6, pc}
		if( ( xTicksToWait == portMAX_DELAY ) && ( xCanBlockIndefinitely != pdFALSE ) )
 8005198:	2e00      	cmp	r6, #0
 800519a:	d0ef      	beq.n	800517c <prvAddCurrentTaskToDelayedList+0x30>
			vListInsertEnd( &xSuspendedTaskList, &( pxCurrentTCB->xStateListItem ) );
 800519c:	4b0b      	ldr	r3, [pc, #44]	@ (80051cc <prvAddCurrentTaskToDelayedList+0x80>)
 800519e:	6819      	ldr	r1, [r3, #0]
 80051a0:	3104      	adds	r1, #4
 80051a2:	480d      	ldr	r0, [pc, #52]	@ (80051d8 <prvAddCurrentTaskToDelayedList+0x8c>)
 80051a4:	f7fb fb36 	bl	8000814 <vListInsertEnd>
 80051a8:	e7f5      	b.n	8005196 <prvAddCurrentTaskToDelayedList+0x4a>
				vListInsert( pxDelayedTaskList, &( pxCurrentTCB->xStateListItem ) );
 80051aa:	4b0c      	ldr	r3, [pc, #48]	@ (80051dc <prvAddCurrentTaskToDelayedList+0x90>)
 80051ac:	6818      	ldr	r0, [r3, #0]
 80051ae:	4b07      	ldr	r3, [pc, #28]	@ (80051cc <prvAddCurrentTaskToDelayedList+0x80>)
 80051b0:	6819      	ldr	r1, [r3, #0]
 80051b2:	3104      	adds	r1, #4
 80051b4:	f7fb fb39 	bl	800082a <vListInsert>
				if( xTimeToWake < xNextTaskUnblockTime )
 80051b8:	4b09      	ldr	r3, [pc, #36]	@ (80051e0 <prvAddCurrentTaskToDelayedList+0x94>)
 80051ba:	681b      	ldr	r3, [r3, #0]
 80051bc:	42a3      	cmp	r3, r4
 80051be:	d9ea      	bls.n	8005196 <prvAddCurrentTaskToDelayedList+0x4a>
					xNextTaskUnblockTime = xTimeToWake;
 80051c0:	4b07      	ldr	r3, [pc, #28]	@ (80051e0 <prvAddCurrentTaskToDelayedList+0x94>)
 80051c2:	601c      	str	r4, [r3, #0]
}
 80051c4:	e7e7      	b.n	8005196 <prvAddCurrentTaskToDelayedList+0x4a>
 80051c6:	bf00      	nop
 80051c8:	20004df0 	.word	0x20004df0
 80051cc:	20004ef4 	.word	0x20004ef4
 80051d0:	20004dec 	.word	0x20004dec
 80051d4:	20004e38 	.word	0x20004e38
 80051d8:	20004df8 	.word	0x20004df8
 80051dc:	20004e3c 	.word	0x20004e3c
 80051e0:	20004dd4 	.word	0x20004dd4

080051e4 <xTaskCreateStatic>:
	{
 80051e4:	b510      	push	{r4, lr}
 80051e6:	b086      	sub	sp, #24
 80051e8:	468c      	mov	ip, r1
		configASSERT( puxStackBuffer != NULL );
 80051ea:	9909      	ldr	r1, [sp, #36]	@ 0x24
 80051ec:	b179      	cbz	r1, 800520e <xTaskCreateStatic+0x2a>
		configASSERT( pxTaskBuffer != NULL );
 80051ee:	990a      	ldr	r1, [sp, #40]	@ 0x28
 80051f0:	b1b1      	cbz	r1, 8005220 <xTaskCreateStatic+0x3c>
			volatile size_t xSize = sizeof( StaticTask_t );
 80051f2:	2154      	movs	r1, #84	@ 0x54
 80051f4:	9104      	str	r1, [sp, #16]
			configASSERT( xSize == sizeof( TCB_t ) );
 80051f6:	9904      	ldr	r1, [sp, #16]
 80051f8:	2954      	cmp	r1, #84	@ 0x54
 80051fa:	d01a      	beq.n	8005232 <xTaskCreateStatic+0x4e>
 80051fc:	f04f 0350 	mov.w	r3, #80	@ 0x50
 8005200:	f383 8811 	msr	BASEPRI, r3
 8005204:	f3bf 8f6f 	isb	sy
 8005208:	f3bf 8f4f 	dsb	sy
 800520c:	e7fe      	b.n	800520c <xTaskCreateStatic+0x28>
 800520e:	f04f 0350 	mov.w	r3, #80	@ 0x50
 8005212:	f383 8811 	msr	BASEPRI, r3
 8005216:	f3bf 8f6f 	isb	sy
 800521a:	f3bf 8f4f 	dsb	sy
		configASSERT( puxStackBuffer != NULL );
 800521e:	e7fe      	b.n	800521e <xTaskCreateStatic+0x3a>
 8005220:	f04f 0350 	mov.w	r3, #80	@ 0x50
 8005224:	f383 8811 	msr	BASEPRI, r3
 8005228:	f3bf 8f6f 	isb	sy
 800522c:	f3bf 8f4f 	dsb	sy
		configASSERT( pxTaskBuffer != NULL );
 8005230:	e7fe      	b.n	8005230 <xTaskCreateStatic+0x4c>
			( void ) xSize; /* Prevent lint warning when configASSERT() is not used. */
 8005232:	f8dd e010 	ldr.w	lr, [sp, #16]
			pxNewTCB->pxStack = ( StackType_t * ) puxStackBuffer;
 8005236:	990a      	ldr	r1, [sp, #40]	@ 0x28
 8005238:	9c09      	ldr	r4, [sp, #36]	@ 0x24
 800523a:	630c      	str	r4, [r1, #48]	@ 0x30
				pxNewTCB->ucStaticallyAllocated = tskSTATICALLY_ALLOCATED_STACK_AND_TCB;
 800523c:	2102      	movs	r1, #2
 800523e:	9c0a      	ldr	r4, [sp, #40]	@ 0x28
 8005240:	f884 1051 	strb.w	r1, [r4, #81]	@ 0x51
			prvInitialiseNewTask( pxTaskCode, pcName, ulStackDepth, pvParameters, uxPriority, &xReturn, pxNewTCB, NULL );
 8005244:	2100      	movs	r1, #0
 8005246:	9103      	str	r1, [sp, #12]
 8005248:	9402      	str	r4, [sp, #8]
 800524a:	a905      	add	r1, sp, #20
 800524c:	9101      	str	r1, [sp, #4]
 800524e:	9908      	ldr	r1, [sp, #32]
 8005250:	9100      	str	r1, [sp, #0]
 8005252:	4661      	mov	r1, ip
 8005254:	f7ff fe54 	bl	8004f00 <prvInitialiseNewTask>
			prvAddNewTaskToReadyList( pxNewTCB );
 8005258:	980a      	ldr	r0, [sp, #40]	@ 0x28
 800525a:	f7ff fecd 	bl	8004ff8 <prvAddNewTaskToReadyList>
	}
 800525e:	9805      	ldr	r0, [sp, #20]
 8005260:	b006      	add	sp, #24
 8005262:	bd10      	pop	{r4, pc}

08005264 <xTaskCreate>:
	{
 8005264:	e92d 43f0 	stmdb	sp!, {r4, r5, r6, r7, r8, r9, lr}
 8005268:	b085      	sub	sp, #20
 800526a:	4681      	mov	r9, r0
 800526c:	4688      	mov	r8, r1
 800526e:	4614      	mov	r4, r2
 8005270:	461f      	mov	r7, r3
			pxStack = pvPortMalloc( ( ( ( size_t ) usStackDepth ) * sizeof( StackType_t ) ) ); /*lint !e9079 All values returned by pvPortMalloc() have at least the alignment required by the MCU's stack and this allocation is the stack. */
 8005272:	0090      	lsls	r0, r2, #2
 8005274:	f7fb f9fe 	bl	8000674 <pvPortMalloc>
			if( pxStack != NULL )
 8005278:	b300      	cbz	r0, 80052bc <xTaskCreate+0x58>
 800527a:	4606      	mov	r6, r0
				pxNewTCB = ( TCB_t * ) pvPortMalloc( sizeof( TCB_t ) ); /*lint !e9087 !e9079 All values returned by pvPortMalloc() have at least the alignment required by the MCU's stack, and the first member of TCB_t is always a pointer to the task's stack. */
 800527c:	2054      	movs	r0, #84	@ 0x54
 800527e:	f7fb f9f9 	bl	8000674 <pvPortMalloc>
				if( pxNewTCB != NULL )
 8005282:	4605      	mov	r5, r0
 8005284:	b1a0      	cbz	r0, 80052b0 <xTaskCreate+0x4c>
					pxNewTCB->pxStack = pxStack;
 8005286:	632e      	str	r6, [r5, #48]	@ 0x30
				pxNewTCB->ucStaticallyAllocated = tskDYNAMICALLY_ALLOCATED_STACK_AND_TCB;
 8005288:	2300      	movs	r3, #0
 800528a:	f880 3051 	strb.w	r3, [r0, #81]	@ 0x51
			prvInitialiseNewTask( pxTaskCode, pcName, ( uint32_t ) usStackDepth, pvParameters, uxPriority, pxCreatedTask, pxNewTCB, NULL );
 800528e:	9303      	str	r3, [sp, #12]
 8005290:	9002      	str	r0, [sp, #8]
 8005292:	9b0d      	ldr	r3, [sp, #52]	@ 0x34
 8005294:	9301      	str	r3, [sp, #4]
 8005296:	9b0c      	ldr	r3, [sp, #48]	@ 0x30
 8005298:	9300      	str	r3, [sp, #0]
 800529a:	463b      	mov	r3, r7
 800529c:	4622      	mov	r2, r4
 800529e:	4641      	mov	r1, r8
 80052a0:	4648      	mov	r0, r9
 80052a2:	f7ff fe2d 	bl	8004f00 <prvInitialiseNewTask>
			prvAddNewTaskToReadyList( pxNewTCB );
 80052a6:	4628      	mov	r0, r5
 80052a8:	f7ff fea6 	bl	8004ff8 <prvAddNewTaskToReadyList>
			xReturn = pdPASS;
 80052ac:	2001      	movs	r0, #1
 80052ae:	e007      	b.n	80052c0 <xTaskCreate+0x5c>
					vPortFree( pxStack );
 80052b0:	4630      	mov	r0, r6
 80052b2:	f7fb fa61 	bl	8000778 <vPortFree>
			xReturn = errCOULD_NOT_ALLOCATE_REQUIRED_MEMORY;
 80052b6:	f04f 30ff 	mov.w	r0, #4294967295
 80052ba:	e001      	b.n	80052c0 <xTaskCreate+0x5c>
 80052bc:	f04f 30ff 	mov.w	r0, #4294967295
	}
 80052c0:	b005      	add	sp, #20
 80052c2:	e8bd 83f0 	ldmia.w	sp!, {r4, r5, r6, r7, r8, r9, pc}
	...

080052c8 <vTaskStartScheduler>:
{
 80052c8:	b510      	push	{r4, lr}
 80052ca:	b088      	sub	sp, #32
		StaticTask_t *pxIdleTaskTCBBuffer = NULL;
 80052cc:	2400      	movs	r4, #0
 80052ce:	9405      	str	r4, [sp, #20]
		StackType_t *pxIdleTaskStackBuffer = NULL;
 80052d0:	9406      	str	r4, [sp, #24]
		vApplicationGetIdleTaskMemory( &pxIdleTaskTCBBuffer, &pxIdleTaskStackBuffer, &ulIdleTaskStackSize );
 80052d2:	aa07      	add	r2, sp, #28
 80052d4:	a906      	add	r1, sp, #24
 80052d6:	a805      	add	r0, sp, #20
 80052d8:	f7fb f960 	bl	800059c <vApplicationGetIdleTaskMemory>
		xIdleTaskHandle = xTaskCreateStatic(	prvIdleTask,
 80052dc:	9b05      	ldr	r3, [sp, #20]
 80052de:	9302      	str	r3, [sp, #8]
 80052e0:	9b06      	ldr	r3, [sp, #24]
 80052e2:	9301      	str	r3, [sp, #4]
 80052e4:	9400      	str	r4, [sp, #0]
 80052e6:	4623      	mov	r3, r4
 80052e8:	9a07      	ldr	r2, [sp, #28]
 80052ea:	490e      	ldr	r1, [pc, #56]	@ (8005324 <vTaskStartScheduler+0x5c>)
 80052ec:	480e      	ldr	r0, [pc, #56]	@ (8005328 <vTaskStartScheduler+0x60>)
 80052ee:	f7ff ff79 	bl	80051e4 <xTaskCreateStatic>
 80052f2:	4b0e      	ldr	r3, [pc, #56]	@ (800532c <vTaskStartScheduler+0x64>)
 80052f4:	6018      	str	r0, [r3, #0]
		if( xIdleTaskHandle != NULL )
 80052f6:	b190      	cbz	r0, 800531e <vTaskStartScheduler+0x56>
 80052f8:	f04f 0350 	mov.w	r3, #80	@ 0x50
 80052fc:	f383 8811 	msr	BASEPRI, r3
 8005300:	f3bf 8f6f 	isb	sy
 8005304:	f3bf 8f4f 	dsb	sy
		xNextTaskUnblockTime = portMAX_DELAY;
 8005308:	4b09      	ldr	r3, [pc, #36]	@ (8005330 <vTaskStartScheduler+0x68>)
 800530a:	f04f 32ff 	mov.w	r2, #4294967295
 800530e:	601a      	str	r2, [r3, #0]
		xSchedulerRunning = pdTRUE;
 8005310:	4b08      	ldr	r3, [pc, #32]	@ (8005334 <vTaskStartScheduler+0x6c>)
 8005312:	2201      	movs	r2, #1
 8005314:	601a      	str	r2, [r3, #0]
		xTickCount = ( TickType_t ) configINITIAL_TICK_COUNT;
 8005316:	4b08      	ldr	r3, [pc, #32]	@ (8005338 <vTaskStartScheduler+0x70>)
 8005318:	601c      	str	r4, [r3, #0]
		if( xPortStartScheduler() != pdFALSE )
 800531a:	f7fb fded 	bl	8000ef8 <xPortStartScheduler>
}
 800531e:	b008      	add	sp, #32
 8005320:	bd10      	pop	{r4, pc}
 8005322:	bf00      	nop
 8005324:	08005e74 	.word	0x08005e74
 8005328:	08005125 	.word	0x08005125
 800532c:	20004dd0 	.word	0x20004dd0
 8005330:	20004dd4 	.word	0x20004dd4
 8005334:	20004de8 	.word	0x20004de8
 8005338:	20004df0 	.word	0x20004df0

0800533c <vTaskSuspendAll>:
	++uxSchedulerSuspended;
 800533c:	4a02      	ldr	r2, [pc, #8]	@ (8005348 <vTaskSuspendAll+0xc>)
 800533e:	6813      	ldr	r3, [r2, #0]
 8005340:	3301      	adds	r3, #1
 8005342:	6013      	str	r3, [r2, #0]
}
 8005344:	4770      	bx	lr
 8005346:	bf00      	nop
 8005348:	20004dcc 	.word	0x20004dcc

0800534c <xTaskIncrementTick>:
{
 800534c:	b5f8      	push	{r3, r4, r5, r6, r7, lr}
	if( uxSchedulerSuspended == ( UBaseType_t ) pdFALSE )
 800534e:	4b3d      	ldr	r3, [pc, #244]	@ (8005444 <xTaskIncrementTick+0xf8>)
 8005350:	681b      	ldr	r3, [r3, #0]
 8005352:	2b00      	cmp	r3, #0
 8005354:	d16e      	bne.n	8005434 <xTaskIncrementTick+0xe8>
		const TickType_t xConstTickCount = xTickCount + ( TickType_t ) 1;
 8005356:	4b3c      	ldr	r3, [pc, #240]	@ (8005448 <xTaskIncrementTick+0xfc>)
 8005358:	681d      	ldr	r5, [r3, #0]
 800535a:	3501      	adds	r5, #1
		xTickCount = xConstTickCount;
 800535c:	601d      	str	r5, [r3, #0]
		if( xConstTickCount == ( TickType_t ) 0U ) /*lint !e774 'if' does not always evaluate to false as it is looking for an overflow. */
 800535e:	b9c5      	cbnz	r5, 8005392 <xTaskIncrementTick+0x46>
			taskSWITCH_DELAYED_LISTS();
 8005360:	4b3a      	ldr	r3, [pc, #232]	@ (800544c <xTaskIncrementTick+0x100>)
 8005362:	681b      	ldr	r3, [r3, #0]
 8005364:	681b      	ldr	r3, [r3, #0]
 8005366:	b143      	cbz	r3, 800537a <xTaskIncrementTick+0x2e>
 8005368:	f04f 0350 	mov.w	r3, #80	@ 0x50
 800536c:	f383 8811 	msr	BASEPRI, r3
 8005370:	f3bf 8f6f 	isb	sy
 8005374:	f3bf 8f4f 	dsb	sy
 8005378:	e7fe      	b.n	8005378 <xTaskIncrementTick+0x2c>
 800537a:	4a34      	ldr	r2, [pc, #208]	@ (800544c <xTaskIncrementTick+0x100>)
 800537c:	6811      	ldr	r1, [r2, #0]
 800537e:	4b34      	ldr	r3, [pc, #208]	@ (8005450 <xTaskIncrementTick+0x104>)
 8005380:	6818      	ldr	r0, [r3, #0]
 8005382:	6010      	str	r0, [r2, #0]
 8005384:	6019      	str	r1, [r3, #0]
 8005386:	4a33      	ldr	r2, [pc, #204]	@ (8005454 <xTaskIncrementTick+0x108>)
 8005388:	6813      	ldr	r3, [r2, #0]
 800538a:	3301      	adds	r3, #1
 800538c:	6013      	str	r3, [r2, #0]
 800538e:	f7ff fda1 	bl	8004ed4 <prvResetNextTaskUnblockTime>
		if( xConstTickCount >= xNextTaskUnblockTime )
 8005392:	4b31      	ldr	r3, [pc, #196]	@ (8005458 <xTaskIncrementTick+0x10c>)
 8005394:	681b      	ldr	r3, [r3, #0]
 8005396:	42ab      	cmp	r3, r5
 8005398:	d941      	bls.n	800541e <xTaskIncrementTick+0xd2>
BaseType_t xSwitchRequired = pdFALSE;
 800539a:	2300      	movs	r3, #0
 800539c:	461f      	mov	r7, r3
			if( listCURRENT_LIST_LENGTH( &( pxReadyTasksLists[ pxCurrentTCB->uxPriority ] ) ) > ( UBaseType_t ) 1 )
 800539e:	4b2f      	ldr	r3, [pc, #188]	@ (800545c <xTaskIncrementTick+0x110>)
 80053a0:	681b      	ldr	r3, [r3, #0]
 80053a2:	6adb      	ldr	r3, [r3, #44]	@ 0x2c
 80053a4:	eb03 0383 	add.w	r3, r3, r3, lsl #2
 80053a8:	009b      	lsls	r3, r3, #2
 80053aa:	4a2d      	ldr	r2, [pc, #180]	@ (8005460 <xTaskIncrementTick+0x114>)
 80053ac:	58d3      	ldr	r3, [r2, r3]
 80053ae:	2b01      	cmp	r3, #1
 80053b0:	d901      	bls.n	80053b6 <xTaskIncrementTick+0x6a>
				xSwitchRequired = pdTRUE;
 80053b2:	2301      	movs	r3, #1
 80053b4:	461f      	mov	r7, r3
			if( xYieldPending != pdFALSE )
 80053b6:	4b2b      	ldr	r3, [pc, #172]	@ (8005464 <xTaskIncrementTick+0x118>)
 80053b8:	681b      	ldr	r3, [r3, #0]
 80053ba:	2b00      	cmp	r3, #0
 80053bc:	d040      	beq.n	8005440 <xTaskIncrementTick+0xf4>
				xSwitchRequired = pdTRUE;
 80053be:	2301      	movs	r3, #1
 80053c0:	461f      	mov	r7, r3
	return xSwitchRequired;
 80053c2:	e03d      	b.n	8005440 <xTaskIncrementTick+0xf4>
							xSwitchRequired = pdTRUE;
 80053c4:	2301      	movs	r3, #1
 80053c6:	461f      	mov	r7, r3
				if( listLIST_IS_EMPTY( pxDelayedTaskList ) != pdFALSE )
 80053c8:	4b20      	ldr	r3, [pc, #128]	@ (800544c <xTaskIncrementTick+0x100>)
 80053ca:	681b      	ldr	r3, [r3, #0]
 80053cc:	681b      	ldr	r3, [r3, #0]
 80053ce:	b34b      	cbz	r3, 8005424 <xTaskIncrementTick+0xd8>
					pxTCB = listGET_OWNER_OF_HEAD_ENTRY( pxDelayedTaskList ); /*lint !e9079 void * is used as this macro is used with timers and co-routines too.  Alignment is known to be fine as the type of the pointer stored and retrieved is the same. */
 80053d0:	4b1e      	ldr	r3, [pc, #120]	@ (800544c <xTaskIncrementTick+0x100>)
 80053d2:	681b      	ldr	r3, [r3, #0]
 80053d4:	68db      	ldr	r3, [r3, #12]
 80053d6:	68dc      	ldr	r4, [r3, #12]
					xItemValue = listGET_LIST_ITEM_VALUE( &( pxTCB->xStateListItem ) );
 80053d8:	6863      	ldr	r3, [r4, #4]
					if( xConstTickCount < xItemValue )
 80053da:	429d      	cmp	r5, r3
 80053dc:	d327      	bcc.n	800542e <xTaskIncrementTick+0xe2>
					( void ) uxListRemove( &( pxTCB->xStateListItem ) );
 80053de:	1d26      	adds	r6, r4, #4
 80053e0:	4630      	mov	r0, r6
 80053e2:	f7fb fa3e 	bl	8000862 <uxListRemove>
					if( listLIST_ITEM_CONTAINER( &( pxTCB->xEventListItem ) ) != NULL )
 80053e6:	6aa3      	ldr	r3, [r4, #40]	@ 0x28
 80053e8:	b11b      	cbz	r3, 80053f2 <xTaskIncrementTick+0xa6>
						( void ) uxListRemove( &( pxTCB->xEventListItem ) );
 80053ea:	f104 0018 	add.w	r0, r4, #24
 80053ee:	f7fb fa38 	bl	8000862 <uxListRemove>
					prvAddTaskToReadyList( pxTCB );
 80053f2:	6ae0      	ldr	r0, [r4, #44]	@ 0x2c
 80053f4:	2301      	movs	r3, #1
 80053f6:	4083      	lsls	r3, r0
 80053f8:	4a1b      	ldr	r2, [pc, #108]	@ (8005468 <xTaskIncrementTick+0x11c>)
 80053fa:	6811      	ldr	r1, [r2, #0]
 80053fc:	430b      	orrs	r3, r1
 80053fe:	6013      	str	r3, [r2, #0]
 8005400:	eb00 0080 	add.w	r0, r0, r0, lsl #2
 8005404:	4631      	mov	r1, r6
 8005406:	4b16      	ldr	r3, [pc, #88]	@ (8005460 <xTaskIncrementTick+0x114>)
 8005408:	eb03 0080 	add.w	r0, r3, r0, lsl #2
 800540c:	f7fb fa02 	bl	8000814 <vListInsertEnd>
						if( pxTCB->uxPriority >= pxCurrentTCB->uxPriority )
 8005410:	6ae2      	ldr	r2, [r4, #44]	@ 0x2c
 8005412:	4b12      	ldr	r3, [pc, #72]	@ (800545c <xTaskIncrementTick+0x110>)
 8005414:	681b      	ldr	r3, [r3, #0]
 8005416:	6adb      	ldr	r3, [r3, #44]	@ 0x2c
 8005418:	429a      	cmp	r2, r3
 800541a:	d2d3      	bcs.n	80053c4 <xTaskIncrementTick+0x78>
 800541c:	e7d4      	b.n	80053c8 <xTaskIncrementTick+0x7c>
BaseType_t xSwitchRequired = pdFALSE;
 800541e:	2300      	movs	r3, #0
 8005420:	461f      	mov	r7, r3
 8005422:	e7d1      	b.n	80053c8 <xTaskIncrementTick+0x7c>
					xNextTaskUnblockTime = portMAX_DELAY; /*lint !e961 MISRA exception as the casts are only redundant for some ports. */
 8005424:	4b0c      	ldr	r3, [pc, #48]	@ (8005458 <xTaskIncrementTick+0x10c>)
 8005426:	f04f 32ff 	mov.w	r2, #4294967295
 800542a:	601a      	str	r2, [r3, #0]
					break;
 800542c:	e7b7      	b.n	800539e <xTaskIncrementTick+0x52>
						xNextTaskUnblockTime = xItemValue;
 800542e:	4a0a      	ldr	r2, [pc, #40]	@ (8005458 <xTaskIncrementTick+0x10c>)
 8005430:	6013      	str	r3, [r2, #0]
						break; /*lint !e9011 Code structure here is deedmed easier to understand with multiple breaks. */
 8005432:	e7b4      	b.n	800539e <xTaskIncrementTick+0x52>
		++xPendedTicks;
 8005434:	4a0d      	ldr	r2, [pc, #52]	@ (800546c <xTaskIncrementTick+0x120>)
 8005436:	6813      	ldr	r3, [r2, #0]
 8005438:	3301      	adds	r3, #1
 800543a:	6013      	str	r3, [r2, #0]
BaseType_t xSwitchRequired = pdFALSE;
 800543c:	2300      	movs	r3, #0
 800543e:	461f      	mov	r7, r3
}
 8005440:	4638      	mov	r0, r7
 8005442:	bdf8      	pop	{r3, r4, r5, r6, r7, pc}
 8005444:	20004dcc 	.word	0x20004dcc
 8005448:	20004df0 	.word	0x20004df0
 800544c:	20004e3c 	.word	0x20004e3c
 8005450:	20004e38 	.word	0x20004e38
 8005454:	20004ddc 	.word	0x20004ddc
 8005458:	20004dd4 	.word	0x20004dd4
 800545c:	20004ef4 	.word	0x20004ef4
 8005460:	20004e68 	.word	0x20004e68
 8005464:	20004de0 	.word	0x20004de0
 8005468:	20004dec 	.word	0x20004dec
 800546c:	20004de4 	.word	0x20004de4

08005470 <xTaskResumeAll>:
{
 8005470:	b538      	push	{r3, r4, r5, lr}
	configASSERT( uxSchedulerSuspended );
 8005472:	4b35      	ldr	r3, [pc, #212]	@ (8005548 <xTaskResumeAll+0xd8>)
 8005474:	681b      	ldr	r3, [r3, #0]
 8005476:	b943      	cbnz	r3, 800548a <xTaskResumeAll+0x1a>
 8005478:	f04f 0350 	mov.w	r3, #80	@ 0x50
 800547c:	f383 8811 	msr	BASEPRI, r3
 8005480:	f3bf 8f6f 	isb	sy
 8005484:	f3bf 8f4f 	dsb	sy
 8005488:	e7fe      	b.n	8005488 <xTaskResumeAll+0x18>
	taskENTER_CRITICAL();
 800548a:	f7fb fc9b 	bl	8000dc4 <vPortEnterCritical>
		--uxSchedulerSuspended;
 800548e:	4b2e      	ldr	r3, [pc, #184]	@ (8005548 <xTaskResumeAll+0xd8>)
 8005490:	681a      	ldr	r2, [r3, #0]
 8005492:	3a01      	subs	r2, #1
 8005494:	601a      	str	r2, [r3, #0]
		if( uxSchedulerSuspended == ( UBaseType_t ) pdFALSE )
 8005496:	681b      	ldr	r3, [r3, #0]
 8005498:	2b00      	cmp	r3, #0
 800549a:	d14f      	bne.n	800553c <xTaskResumeAll+0xcc>
			if( uxCurrentNumberOfTasks > ( UBaseType_t ) 0U )
 800549c:	4b2b      	ldr	r3, [pc, #172]	@ (800554c <xTaskResumeAll+0xdc>)
 800549e:	681b      	ldr	r3, [r3, #0]
 80054a0:	b90b      	cbnz	r3, 80054a6 <xTaskResumeAll+0x36>
BaseType_t xAlreadyYielded = pdFALSE;
 80054a2:	461c      	mov	r4, r3
 80054a4:	e04b      	b.n	800553e <xTaskResumeAll+0xce>
TCB_t *pxTCB = NULL;
 80054a6:	2400      	movs	r4, #0
				while( listLIST_IS_EMPTY( &xPendingReadyList ) == pdFALSE )
 80054a8:	4b29      	ldr	r3, [pc, #164]	@ (8005550 <xTaskResumeAll+0xe0>)
 80054aa:	681b      	ldr	r3, [r3, #0]
 80054ac:	b31b      	cbz	r3, 80054f6 <xTaskResumeAll+0x86>
					pxTCB = listGET_OWNER_OF_HEAD_ENTRY( ( &xPendingReadyList ) ); /*lint !e9079 void * is used as this macro is used with timers and co-routines too.  Alignment is known to be fine as the type of the pointer stored and retrieved is the same. */
 80054ae:	4b28      	ldr	r3, [pc, #160]	@ (8005550 <xTaskResumeAll+0xe0>)
 80054b0:	68db      	ldr	r3, [r3, #12]
 80054b2:	68dc      	ldr	r4, [r3, #12]
					( void ) uxListRemove( &( pxTCB->xEventListItem ) );
 80054b4:	f104 0018 	add.w	r0, r4, #24
 80054b8:	f7fb f9d3 	bl	8000862 <uxListRemove>
					( void ) uxListRemove( &( pxTCB->xStateListItem ) );
 80054bc:	1d25      	adds	r5, r4, #4
 80054be:	4628      	mov	r0, r5
 80054c0:	f7fb f9cf 	bl	8000862 <uxListRemove>
					prvAddTaskToReadyList( pxTCB );
 80054c4:	6ae0      	ldr	r0, [r4, #44]	@ 0x2c
 80054c6:	2301      	movs	r3, #1
 80054c8:	4083      	lsls	r3, r0
 80054ca:	4a22      	ldr	r2, [pc, #136]	@ (8005554 <xTaskResumeAll+0xe4>)
 80054cc:	6811      	ldr	r1, [r2, #0]
 80054ce:	430b      	orrs	r3, r1
 80054d0:	6013      	str	r3, [r2, #0]
 80054d2:	eb00 0080 	add.w	r0, r0, r0, lsl #2
 80054d6:	4629      	mov	r1, r5
 80054d8:	4b1f      	ldr	r3, [pc, #124]	@ (8005558 <xTaskResumeAll+0xe8>)
 80054da:	eb03 0080 	add.w	r0, r3, r0, lsl #2
 80054de:	f7fb f999 	bl	8000814 <vListInsertEnd>
					if( pxTCB->uxPriority >= pxCurrentTCB->uxPriority )
 80054e2:	6ae2      	ldr	r2, [r4, #44]	@ 0x2c
 80054e4:	4b1d      	ldr	r3, [pc, #116]	@ (800555c <xTaskResumeAll+0xec>)
 80054e6:	681b      	ldr	r3, [r3, #0]
 80054e8:	6adb      	ldr	r3, [r3, #44]	@ 0x2c
 80054ea:	429a      	cmp	r2, r3
 80054ec:	d3dc      	bcc.n	80054a8 <xTaskResumeAll+0x38>
						xYieldPending = pdTRUE;
 80054ee:	4b1c      	ldr	r3, [pc, #112]	@ (8005560 <xTaskResumeAll+0xf0>)
 80054f0:	2201      	movs	r2, #1
 80054f2:	601a      	str	r2, [r3, #0]
 80054f4:	e7d8      	b.n	80054a8 <xTaskResumeAll+0x38>
				if( pxTCB != NULL )
 80054f6:	b10c      	cbz	r4, 80054fc <xTaskResumeAll+0x8c>
					prvResetNextTaskUnblockTime();
 80054f8:	f7ff fcec 	bl	8004ed4 <prvResetNextTaskUnblockTime>
					TickType_t xPendedCounts = xPendedTicks; /* Non-volatile copy. */
 80054fc:	4b19      	ldr	r3, [pc, #100]	@ (8005564 <xTaskResumeAll+0xf4>)
 80054fe:	681c      	ldr	r4, [r3, #0]
					if( xPendedCounts > ( TickType_t ) 0U )
 8005500:	b984      	cbnz	r4, 8005524 <xTaskResumeAll+0xb4>
				if( xYieldPending != pdFALSE )
 8005502:	4b17      	ldr	r3, [pc, #92]	@ (8005560 <xTaskResumeAll+0xf0>)
 8005504:	681c      	ldr	r4, [r3, #0]
 8005506:	b1d4      	cbz	r4, 800553e <xTaskResumeAll+0xce>
					taskYIELD_IF_USING_PREEMPTION();
 8005508:	f04f 23e0 	mov.w	r3, #3758153728	@ 0xe000e000
 800550c:	f04f 5280 	mov.w	r2, #268435456	@ 0x10000000
 8005510:	f8c3 2d04 	str.w	r2, [r3, #3332]	@ 0xd04
 8005514:	f3bf 8f4f 	dsb	sy
 8005518:	f3bf 8f6f 	isb	sy
						xAlreadyYielded = pdTRUE;
 800551c:	2401      	movs	r4, #1
 800551e:	e00e      	b.n	800553e <xTaskResumeAll+0xce>
						} while( xPendedCounts > ( TickType_t ) 0U );
 8005520:	3c01      	subs	r4, #1
 8005522:	d007      	beq.n	8005534 <xTaskResumeAll+0xc4>
							if( xTaskIncrementTick() != pdFALSE )
 8005524:	f7ff ff12 	bl	800534c <xTaskIncrementTick>
 8005528:	2800      	cmp	r0, #0
 800552a:	d0f9      	beq.n	8005520 <xTaskResumeAll+0xb0>
								xYieldPending = pdTRUE;
 800552c:	4b0c      	ldr	r3, [pc, #48]	@ (8005560 <xTaskResumeAll+0xf0>)
 800552e:	2201      	movs	r2, #1
 8005530:	601a      	str	r2, [r3, #0]
 8005532:	e7f5      	b.n	8005520 <xTaskResumeAll+0xb0>
						xPendedTicks = 0;
 8005534:	4b0b      	ldr	r3, [pc, #44]	@ (8005564 <xTaskResumeAll+0xf4>)
 8005536:	2200      	movs	r2, #0
 8005538:	601a      	str	r2, [r3, #0]
 800553a:	e7e2      	b.n	8005502 <xTaskResumeAll+0x92>
BaseType_t xAlreadyYielded = pdFALSE;
 800553c:	2400      	movs	r4, #0
	taskEXIT_CRITICAL();
 800553e:	f7fb fc63 	bl	8000e08 <vPortExitCritical>
}
 8005542:	4620      	mov	r0, r4
 8005544:	bd38      	pop	{r3, r4, r5, pc}
 8005546:	bf00      	nop
 8005548:	20004dcc 	.word	0x20004dcc
 800554c:	20004df4 	.word	0x20004df4
 8005550:	20004e24 	.word	0x20004e24
 8005554:	20004dec 	.word	0x20004dec
 8005558:	20004e68 	.word	0x20004e68
 800555c:	20004ef4 	.word	0x20004ef4
 8005560:	20004de0 	.word	0x20004de0
 8005564:	20004de4 	.word	0x20004de4

08005568 <vTaskDelay>:
	{
 8005568:	b510      	push	{r4, lr}
		if( xTicksToDelay > ( TickType_t ) 0U )
 800556a:	b1a8      	cbz	r0, 8005598 <vTaskDelay+0x30>
 800556c:	4604      	mov	r4, r0
			configASSERT( uxSchedulerSuspended == 0 );
 800556e:	4b10      	ldr	r3, [pc, #64]	@ (80055b0 <vTaskDelay+0x48>)
 8005570:	681b      	ldr	r3, [r3, #0]
 8005572:	b143      	cbz	r3, 8005586 <vTaskDelay+0x1e>
 8005574:	f04f 0350 	mov.w	r3, #80	@ 0x50
 8005578:	f383 8811 	msr	BASEPRI, r3
 800557c:	f3bf 8f6f 	isb	sy
 8005580:	f3bf 8f4f 	dsb	sy
 8005584:	e7fe      	b.n	8005584 <vTaskDelay+0x1c>
			vTaskSuspendAll();
 8005586:	f7ff fed9 	bl	800533c <vTaskSuspendAll>
				prvAddCurrentTaskToDelayedList( xTicksToDelay, pdFALSE );
 800558a:	2100      	movs	r1, #0
 800558c:	4620      	mov	r0, r4
 800558e:	f7ff fddd 	bl	800514c <prvAddCurrentTaskToDelayedList>
			xAlreadyYielded = xTaskResumeAll();
 8005592:	f7ff ff6d 	bl	8005470 <xTaskResumeAll>
		if( xAlreadyYielded == pdFALSE )
 8005596:	b948      	cbnz	r0, 80055ac <vTaskDelay+0x44>
			portYIELD_WITHIN_API();
 8005598:	f04f 23e0 	mov.w	r3, #3758153728	@ 0xe000e000
 800559c:	f04f 5280 	mov.w	r2, #268435456	@ 0x10000000
 80055a0:	f8c3 2d04 	str.w	r2, [r3, #3332]	@ 0xd04
 80055a4:	f3bf 8f4f 	dsb	sy
 80055a8:	f3bf 8f6f 	isb	sy
	}
 80055ac:	bd10      	pop	{r4, pc}
 80055ae:	bf00      	nop
 80055b0:	20004dcc 	.word	0x20004dcc

080055b4 <vTaskSwitchContext>:
	if( uxSchedulerSuspended != ( UBaseType_t ) pdFALSE )
 80055b4:	4b20      	ldr	r3, [pc, #128]	@ (8005638 <vTaskSwitchContext+0x84>)
 80055b6:	681b      	ldr	r3, [r3, #0]
 80055b8:	b11b      	cbz	r3, 80055c2 <vTaskSwitchContext+0xe>
		xYieldPending = pdTRUE;
 80055ba:	4b20      	ldr	r3, [pc, #128]	@ (800563c <vTaskSwitchContext+0x88>)
 80055bc:	2201      	movs	r2, #1
 80055be:	601a      	str	r2, [r3, #0]
 80055c0:	4770      	bx	lr
		xYieldPending = pdFALSE;
 80055c2:	4b1e      	ldr	r3, [pc, #120]	@ (800563c <vTaskSwitchContext+0x88>)
 80055c4:	2200      	movs	r2, #0
 80055c6:	601a      	str	r2, [r3, #0]
		taskSELECT_HIGHEST_PRIORITY_TASK(); /*lint !e9079 void * is used as this macro is used with timers and co-routines too.  Alignment is known to be fine as the type of the pointer stored and retrieved is the same. */
 80055c8:	4b1d      	ldr	r3, [pc, #116]	@ (8005640 <vTaskSwitchContext+0x8c>)
 80055ca:	681b      	ldr	r3, [r3, #0]
		__asm volatile ( "clz %0, %1" : "=r" ( ucReturn ) : "r" ( ulBitmap ) : "memory" );
 80055cc:	fab3 f383 	clz	r3, r3
 80055d0:	b2db      	uxtb	r3, r3
 80055d2:	f1c3 031f 	rsb	r3, r3, #31
 80055d6:	eb03 0283 	add.w	r2, r3, r3, lsl #2
 80055da:	0092      	lsls	r2, r2, #2
 80055dc:	4919      	ldr	r1, [pc, #100]	@ (8005644 <vTaskSwitchContext+0x90>)
 80055de:	588a      	ldr	r2, [r1, r2]
 80055e0:	b942      	cbnz	r2, 80055f4 <vTaskSwitchContext+0x40>
	__asm volatile
 80055e2:	f04f 0350 	mov.w	r3, #80	@ 0x50
 80055e6:	f383 8811 	msr	BASEPRI, r3
 80055ea:	f3bf 8f6f 	isb	sy
 80055ee:	f3bf 8f4f 	dsb	sy
 80055f2:	e7fe      	b.n	80055f2 <vTaskSwitchContext+0x3e>
 80055f4:	4813      	ldr	r0, [pc, #76]	@ (8005644 <vTaskSwitchContext+0x90>)
 80055f6:	eb03 0283 	add.w	r2, r3, r3, lsl #2
 80055fa:	eb00 0282 	add.w	r2, r0, r2, lsl #2
 80055fe:	6851      	ldr	r1, [r2, #4]
 8005600:	6849      	ldr	r1, [r1, #4]
 8005602:	6051      	str	r1, [r2, #4]
 8005604:	eb03 0283 	add.w	r2, r3, r3, lsl #2
 8005608:	0092      	lsls	r2, r2, #2
 800560a:	3208      	adds	r2, #8
 800560c:	4402      	add	r2, r0
 800560e:	4291      	cmp	r1, r2
 8005610:	d009      	beq.n	8005626 <vTaskSwitchContext+0x72>
 8005612:	eb03 0383 	add.w	r3, r3, r3, lsl #2
 8005616:	4a0b      	ldr	r2, [pc, #44]	@ (8005644 <vTaskSwitchContext+0x90>)
 8005618:	eb02 0383 	add.w	r3, r2, r3, lsl #2
 800561c:	685b      	ldr	r3, [r3, #4]
 800561e:	68da      	ldr	r2, [r3, #12]
 8005620:	4b09      	ldr	r3, [pc, #36]	@ (8005648 <vTaskSwitchContext+0x94>)
 8005622:	601a      	str	r2, [r3, #0]
}
 8005624:	4770      	bx	lr
		taskSELECT_HIGHEST_PRIORITY_TASK(); /*lint !e9079 void * is used as this macro is used with timers and co-routines too.  Alignment is known to be fine as the type of the pointer stored and retrieved is the same. */
 8005626:	6848      	ldr	r0, [r1, #4]
 8005628:	eb03 0183 	add.w	r1, r3, r3, lsl #2
 800562c:	4a05      	ldr	r2, [pc, #20]	@ (8005644 <vTaskSwitchContext+0x90>)
 800562e:	eb02 0281 	add.w	r2, r2, r1, lsl #2
 8005632:	6050      	str	r0, [r2, #4]
 8005634:	e7ed      	b.n	8005612 <vTaskSwitchContext+0x5e>
 8005636:	bf00      	nop
 8005638:	20004dcc 	.word	0x20004dcc
 800563c:	20004de0 	.word	0x20004de0
 8005640:	20004dec 	.word	0x20004dec
 8005644:	20004e68 	.word	0x20004e68
 8005648:	20004ef4 	.word	0x20004ef4

0800564c <vTaskPlaceOnEventList>:
	configASSERT( pxEventList );
 800564c:	b158      	cbz	r0, 8005666 <vTaskPlaceOnEventList+0x1a>
{
 800564e:	b510      	push	{r4, lr}
 8005650:	460c      	mov	r4, r1
	vListInsert( pxEventList, &( pxCurrentTCB->xEventListItem ) );
 8005652:	4a09      	ldr	r2, [pc, #36]	@ (8005678 <vTaskPlaceOnEventList+0x2c>)
 8005654:	6811      	ldr	r1, [r2, #0]
 8005656:	3118      	adds	r1, #24
 8005658:	f7fb f8e7 	bl	800082a <vListInsert>
	prvAddCurrentTaskToDelayedList( xTicksToWait, pdTRUE );
 800565c:	2101      	movs	r1, #1
 800565e:	4620      	mov	r0, r4
 8005660:	f7ff fd74 	bl	800514c <prvAddCurrentTaskToDelayedList>
}
 8005664:	bd10      	pop	{r4, pc}
 8005666:	f04f 0350 	mov.w	r3, #80	@ 0x50
 800566a:	f383 8811 	msr	BASEPRI, r3
 800566e:	f3bf 8f6f 	isb	sy
 8005672:	f3bf 8f4f 	dsb	sy
	configASSERT( pxEventList );
 8005676:	e7fe      	b.n	8005676 <vTaskPlaceOnEventList+0x2a>
 8005678:	20004ef4 	.word	0x20004ef4

0800567c <xTaskRemoveFromEventList>:
{
 800567c:	b538      	push	{r3, r4, r5, lr}
	pxUnblockedTCB = listGET_OWNER_OF_HEAD_ENTRY( pxEventList ); /*lint !e9079 void * is used as this macro is used with timers and co-routines too.  Alignment is known to be fine as the type of the pointer stored and retrieved is the same. */
 800567e:	68c3      	ldr	r3, [r0, #12]
 8005680:	68dc      	ldr	r4, [r3, #12]
	configASSERT( pxUnblockedTCB );
 8005682:	b334      	cbz	r4, 80056d2 <xTaskRemoveFromEventList+0x56>
	( void ) uxListRemove( &( pxUnblockedTCB->xEventListItem ) );
 8005684:	f104 0318 	add.w	r3, r4, #24
 8005688:	461d      	mov	r5, r3
 800568a:	4618      	mov	r0, r3
 800568c:	f7fb f8e9 	bl	8000862 <uxListRemove>
	if( uxSchedulerSuspended == ( UBaseType_t ) pdFALSE )
 8005690:	4b18      	ldr	r3, [pc, #96]	@ (80056f4 <xTaskRemoveFromEventList+0x78>)
 8005692:	681b      	ldr	r3, [r3, #0]
 8005694:	bb33      	cbnz	r3, 80056e4 <xTaskRemoveFromEventList+0x68>
		( void ) uxListRemove( &( pxUnblockedTCB->xStateListItem ) );
 8005696:	1d23      	adds	r3, r4, #4
 8005698:	461d      	mov	r5, r3
 800569a:	4618      	mov	r0, r3
 800569c:	f7fb f8e1 	bl	8000862 <uxListRemove>
		prvAddTaskToReadyList( pxUnblockedTCB );
 80056a0:	6ae0      	ldr	r0, [r4, #44]	@ 0x2c
 80056a2:	2301      	movs	r3, #1
 80056a4:	4083      	lsls	r3, r0
 80056a6:	4a14      	ldr	r2, [pc, #80]	@ (80056f8 <xTaskRemoveFromEventList+0x7c>)
 80056a8:	6811      	ldr	r1, [r2, #0]
 80056aa:	430b      	orrs	r3, r1
 80056ac:	6013      	str	r3, [r2, #0]
 80056ae:	eb00 0080 	add.w	r0, r0, r0, lsl #2
 80056b2:	4629      	mov	r1, r5
 80056b4:	4b11      	ldr	r3, [pc, #68]	@ (80056fc <xTaskRemoveFromEventList+0x80>)
 80056b6:	eb03 0080 	add.w	r0, r3, r0, lsl #2
 80056ba:	f7fb f8ab 	bl	8000814 <vListInsertEnd>
	if( pxUnblockedTCB->uxPriority > pxCurrentTCB->uxPriority )
 80056be:	6ae2      	ldr	r2, [r4, #44]	@ 0x2c
 80056c0:	4b0f      	ldr	r3, [pc, #60]	@ (8005700 <xTaskRemoveFromEventList+0x84>)
 80056c2:	681b      	ldr	r3, [r3, #0]
 80056c4:	6adb      	ldr	r3, [r3, #44]	@ 0x2c
 80056c6:	429a      	cmp	r2, r3
 80056c8:	d911      	bls.n	80056ee <xTaskRemoveFromEventList+0x72>
		xYieldPending = pdTRUE;
 80056ca:	2001      	movs	r0, #1
 80056cc:	4b0d      	ldr	r3, [pc, #52]	@ (8005704 <xTaskRemoveFromEventList+0x88>)
 80056ce:	6018      	str	r0, [r3, #0]
}
 80056d0:	bd38      	pop	{r3, r4, r5, pc}
 80056d2:	f04f 0350 	mov.w	r3, #80	@ 0x50
 80056d6:	f383 8811 	msr	BASEPRI, r3
 80056da:	f3bf 8f6f 	isb	sy
 80056de:	f3bf 8f4f 	dsb	sy
	configASSERT( pxUnblockedTCB );
 80056e2:	e7fe      	b.n	80056e2 <xTaskRemoveFromEventList+0x66>
		vListInsertEnd( &( xPendingReadyList ), &( pxUnblockedTCB->xEventListItem ) );
 80056e4:	4629      	mov	r1, r5
 80056e6:	4808      	ldr	r0, [pc, #32]	@ (8005708 <xTaskRemoveFromEventList+0x8c>)
 80056e8:	f7fb f894 	bl	8000814 <vListInsertEnd>
 80056ec:	e7e7      	b.n	80056be <xTaskRemoveFromEventList+0x42>
		xReturn = pdFALSE;
 80056ee:	2000      	movs	r0, #0
	return xReturn;
 80056f0:	e7ee      	b.n	80056d0 <xTaskRemoveFromEventList+0x54>
 80056f2:	bf00      	nop
 80056f4:	20004dcc 	.word	0x20004dcc
 80056f8:	20004dec 	.word	0x20004dec
 80056fc:	20004e68 	.word	0x20004e68
 8005700:	20004ef4 	.word	0x20004ef4
 8005704:	20004de0 	.word	0x20004de0
 8005708:	20004e24 	.word	0x20004e24

0800570c <vTaskInternalSetTimeOutState>:
	pxTimeOut->xOverflowCount = xNumOfOverflows;
 800570c:	4b03      	ldr	r3, [pc, #12]	@ (800571c <vTaskInternalSetTimeOutState+0x10>)
 800570e:	681b      	ldr	r3, [r3, #0]
 8005710:	6003      	str	r3, [r0, #0]
	pxTimeOut->xTimeOnEntering = xTickCount;
 8005712:	4b03      	ldr	r3, [pc, #12]	@ (8005720 <vTaskInternalSetTimeOutState+0x14>)
 8005714:	681b      	ldr	r3, [r3, #0]
 8005716:	6043      	str	r3, [r0, #4]
}
 8005718:	4770      	bx	lr
 800571a:	bf00      	nop
 800571c:	20004ddc 	.word	0x20004ddc
 8005720:	20004df0 	.word	0x20004df0

08005724 <xTaskCheckForTimeOut>:
	configASSERT( pxTimeOut );
 8005724:	b1e0      	cbz	r0, 8005760 <xTaskCheckForTimeOut+0x3c>
{
 8005726:	b570      	push	{r4, r5, r6, lr}
 8005728:	460c      	mov	r4, r1
 800572a:	4606      	mov	r6, r0
	configASSERT( pxTicksToWait );
 800572c:	b309      	cbz	r1, 8005772 <xTaskCheckForTimeOut+0x4e>
	taskENTER_CRITICAL();
 800572e:	f7fb fb49 	bl	8000dc4 <vPortEnterCritical>
		const TickType_t xConstTickCount = xTickCount;
 8005732:	4b1c      	ldr	r3, [pc, #112]	@ (80057a4 <xTaskCheckForTimeOut+0x80>)
 8005734:	6819      	ldr	r1, [r3, #0]
		const TickType_t xElapsedTime = xConstTickCount - pxTimeOut->xTimeOnEntering;
 8005736:	6873      	ldr	r3, [r6, #4]
 8005738:	1ac8      	subs	r0, r1, r3
			if( *pxTicksToWait == portMAX_DELAY )
 800573a:	6822      	ldr	r2, [r4, #0]
 800573c:	f1b2 3fff 	cmp.w	r2, #4294967295
 8005740:	d028      	beq.n	8005794 <xTaskCheckForTimeOut+0x70>
		if( ( xNumOfOverflows != pxTimeOut->xOverflowCount ) && ( xConstTickCount >= pxTimeOut->xTimeOnEntering ) ) /*lint !e525 Indentation preferred as is to make code within pre-processor directives clearer. */
 8005742:	6835      	ldr	r5, [r6, #0]
 8005744:	f8df c060 	ldr.w	ip, [pc, #96]	@ 80057a8 <xTaskCheckForTimeOut+0x84>
 8005748:	f8dc c000 	ldr.w	ip, [ip]
 800574c:	4565      	cmp	r5, ip
 800574e:	d001      	beq.n	8005754 <xTaskCheckForTimeOut+0x30>
 8005750:	428b      	cmp	r3, r1
 8005752:	d924      	bls.n	800579e <xTaskCheckForTimeOut+0x7a>
		else if( xElapsedTime < *pxTicksToWait ) /*lint !e961 Explicit casting is only redundant with some compilers, whereas others require it to prevent integer conversion errors. */
 8005754:	4282      	cmp	r2, r0
 8005756:	d815      	bhi.n	8005784 <xTaskCheckForTimeOut+0x60>
			*pxTicksToWait = 0;
 8005758:	2300      	movs	r3, #0
 800575a:	6023      	str	r3, [r4, #0]
			xReturn = pdTRUE;
 800575c:	2401      	movs	r4, #1
 800575e:	e01a      	b.n	8005796 <xTaskCheckForTimeOut+0x72>
 8005760:	f04f 0350 	mov.w	r3, #80	@ 0x50
 8005764:	f383 8811 	msr	BASEPRI, r3
 8005768:	f3bf 8f6f 	isb	sy
 800576c:	f3bf 8f4f 	dsb	sy
	configASSERT( pxTimeOut );
 8005770:	e7fe      	b.n	8005770 <xTaskCheckForTimeOut+0x4c>
 8005772:	f04f 0350 	mov.w	r3, #80	@ 0x50
 8005776:	f383 8811 	msr	BASEPRI, r3
 800577a:	f3bf 8f6f 	isb	sy
 800577e:	f3bf 8f4f 	dsb	sy
	configASSERT( pxTicksToWait );
 8005782:	e7fe      	b.n	8005782 <xTaskCheckForTimeOut+0x5e>
			*pxTicksToWait -= xElapsedTime;
 8005784:	1a5b      	subs	r3, r3, r1
 8005786:	4413      	add	r3, r2
 8005788:	6023      	str	r3, [r4, #0]
			vTaskInternalSetTimeOutState( pxTimeOut );
 800578a:	4630      	mov	r0, r6
 800578c:	f7ff ffbe 	bl	800570c <vTaskInternalSetTimeOutState>
			xReturn = pdFALSE;
 8005790:	2400      	movs	r4, #0
 8005792:	e000      	b.n	8005796 <xTaskCheckForTimeOut+0x72>
				xReturn = pdFALSE;
 8005794:	2400      	movs	r4, #0
	taskEXIT_CRITICAL();
 8005796:	f7fb fb37 	bl	8000e08 <vPortExitCritical>
}
 800579a:	4620      	mov	r0, r4
 800579c:	bd70      	pop	{r4, r5, r6, pc}
			xReturn = pdTRUE;
 800579e:	2401      	movs	r4, #1
 80057a0:	e7f9      	b.n	8005796 <xTaskCheckForTimeOut+0x72>
 80057a2:	bf00      	nop
 80057a4:	20004df0 	.word	0x20004df0
 80057a8:	20004ddc 	.word	0x20004ddc

080057ac <vTaskMissedYield>:
	xYieldPending = pdTRUE;
 80057ac:	4b01      	ldr	r3, [pc, #4]	@ (80057b4 <vTaskMissedYield+0x8>)
 80057ae:	2201      	movs	r2, #1
 80057b0:	601a      	str	r2, [r3, #0]
}
 80057b2:	4770      	bx	lr
 80057b4:	20004de0 	.word	0x20004de0

080057b8 <xTaskGetSchedulerState>:
		if( xSchedulerRunning == pdFALSE )
 80057b8:	4b05      	ldr	r3, [pc, #20]	@ (80057d0 <xTaskGetSchedulerState+0x18>)
 80057ba:	681b      	ldr	r3, [r3, #0]
 80057bc:	b133      	cbz	r3, 80057cc <xTaskGetSchedulerState+0x14>
			if( uxSchedulerSuspended == ( UBaseType_t ) pdFALSE )
 80057be:	4b05      	ldr	r3, [pc, #20]	@ (80057d4 <xTaskGetSchedulerState+0x1c>)
 80057c0:	681b      	ldr	r3, [r3, #0]
 80057c2:	b10b      	cbz	r3, 80057c8 <xTaskGetSchedulerState+0x10>
				xReturn = taskSCHEDULER_SUSPENDED;
 80057c4:	2000      	movs	r0, #0
	}
 80057c6:	4770      	bx	lr
				xReturn = taskSCHEDULER_RUNNING;
 80057c8:	2002      	movs	r0, #2
 80057ca:	4770      	bx	lr
			xReturn = taskSCHEDULER_NOT_STARTED;
 80057cc:	2001      	movs	r0, #1
 80057ce:	4770      	bx	lr
 80057d0:	20004de8 	.word	0x20004de8
 80057d4:	20004dcc 	.word	0x20004dcc

080057d8 <xTaskPriorityInherit>:
		if( pxMutexHolder != NULL )
 80057d8:	2800      	cmp	r0, #0
 80057da:	d04b      	beq.n	8005874 <xTaskPriorityInherit+0x9c>
	{
 80057dc:	b538      	push	{r3, r4, r5, lr}
 80057de:	4604      	mov	r4, r0
			if( pxMutexHolderTCB->uxPriority < pxCurrentTCB->uxPriority )
 80057e0:	6ac3      	ldr	r3, [r0, #44]	@ 0x2c
 80057e2:	4a25      	ldr	r2, [pc, #148]	@ (8005878 <xTaskPriorityInherit+0xa0>)
 80057e4:	6812      	ldr	r2, [r2, #0]
 80057e6:	6ad2      	ldr	r2, [r2, #44]	@ 0x2c
 80057e8:	4293      	cmp	r3, r2
 80057ea:	d239      	bcs.n	8005860 <xTaskPriorityInherit+0x88>
				if( ( listGET_LIST_ITEM_VALUE( &( pxMutexHolderTCB->xEventListItem ) ) & taskEVENT_LIST_ITEM_VALUE_IN_USE ) == 0UL )
 80057ec:	6982      	ldr	r2, [r0, #24]
 80057ee:	2a00      	cmp	r2, #0
 80057f0:	db05      	blt.n	80057fe <xTaskPriorityInherit+0x26>
					listSET_LIST_ITEM_VALUE( &( pxMutexHolderTCB->xEventListItem ), ( TickType_t ) configMAX_PRIORITIES - ( TickType_t ) pxCurrentTCB->uxPriority ); /*lint !e961 MISRA exception as the casts are only redundant for some ports. */
 80057f2:	4a21      	ldr	r2, [pc, #132]	@ (8005878 <xTaskPriorityInherit+0xa0>)
 80057f4:	6812      	ldr	r2, [r2, #0]
 80057f6:	6ad2      	ldr	r2, [r2, #44]	@ 0x2c
 80057f8:	f1c2 0207 	rsb	r2, r2, #7
 80057fc:	6182      	str	r2, [r0, #24]
				if( listIS_CONTAINED_WITHIN( &( pxReadyTasksLists[ pxMutexHolderTCB->uxPriority ] ), &( pxMutexHolderTCB->xStateListItem ) ) != pdFALSE )
 80057fe:	6961      	ldr	r1, [r4, #20]
 8005800:	eb03 0383 	add.w	r3, r3, r3, lsl #2
 8005804:	4a1d      	ldr	r2, [pc, #116]	@ (800587c <xTaskPriorityInherit+0xa4>)
 8005806:	eb02 0383 	add.w	r3, r2, r3, lsl #2
 800580a:	4299      	cmp	r1, r3
 800580c:	d005      	beq.n	800581a <xTaskPriorityInherit+0x42>
					pxMutexHolderTCB->uxPriority = pxCurrentTCB->uxPriority;
 800580e:	4b1a      	ldr	r3, [pc, #104]	@ (8005878 <xTaskPriorityInherit+0xa0>)
 8005810:	681b      	ldr	r3, [r3, #0]
 8005812:	6adb      	ldr	r3, [r3, #44]	@ 0x2c
 8005814:	62e3      	str	r3, [r4, #44]	@ 0x2c
				xReturn = pdTRUE;
 8005816:	2001      	movs	r0, #1
	}
 8005818:	bd38      	pop	{r3, r4, r5, pc}
					if( uxListRemove( &( pxMutexHolderTCB->xStateListItem ) ) == ( UBaseType_t ) 0 )
 800581a:	1d23      	adds	r3, r4, #4
 800581c:	461d      	mov	r5, r3
 800581e:	4618      	mov	r0, r3
 8005820:	f7fb f81f 	bl	8000862 <uxListRemove>
 8005824:	b938      	cbnz	r0, 8005836 <xTaskPriorityInherit+0x5e>
						portRESET_READY_PRIORITY( pxMutexHolderTCB->uxPriority, uxTopReadyPriority );
 8005826:	6ae3      	ldr	r3, [r4, #44]	@ 0x2c
 8005828:	2201      	movs	r2, #1
 800582a:	409a      	lsls	r2, r3
 800582c:	4914      	ldr	r1, [pc, #80]	@ (8005880 <xTaskPriorityInherit+0xa8>)
 800582e:	680b      	ldr	r3, [r1, #0]
 8005830:	ea23 0302 	bic.w	r3, r3, r2
 8005834:	600b      	str	r3, [r1, #0]
					pxMutexHolderTCB->uxPriority = pxCurrentTCB->uxPriority;
 8005836:	4b10      	ldr	r3, [pc, #64]	@ (8005878 <xTaskPriorityInherit+0xa0>)
 8005838:	681b      	ldr	r3, [r3, #0]
 800583a:	6ad8      	ldr	r0, [r3, #44]	@ 0x2c
 800583c:	62e0      	str	r0, [r4, #44]	@ 0x2c
					prvAddTaskToReadyList( pxMutexHolderTCB );
 800583e:	2401      	movs	r4, #1
 8005840:	fa04 f300 	lsl.w	r3, r4, r0
 8005844:	4a0e      	ldr	r2, [pc, #56]	@ (8005880 <xTaskPriorityInherit+0xa8>)
 8005846:	6811      	ldr	r1, [r2, #0]
 8005848:	430b      	orrs	r3, r1
 800584a:	6013      	str	r3, [r2, #0]
 800584c:	eb00 0080 	add.w	r0, r0, r0, lsl #2
 8005850:	4629      	mov	r1, r5
 8005852:	4b0a      	ldr	r3, [pc, #40]	@ (800587c <xTaskPriorityInherit+0xa4>)
 8005854:	eb03 0080 	add.w	r0, r3, r0, lsl #2
 8005858:	f7fa ffdc 	bl	8000814 <vListInsertEnd>
				xReturn = pdTRUE;
 800585c:	4620      	mov	r0, r4
 800585e:	e7db      	b.n	8005818 <xTaskPriorityInherit+0x40>
				if( pxMutexHolderTCB->uxBasePriority < pxCurrentTCB->uxPriority )
 8005860:	6c42      	ldr	r2, [r0, #68]	@ 0x44
 8005862:	4b05      	ldr	r3, [pc, #20]	@ (8005878 <xTaskPriorityInherit+0xa0>)
 8005864:	681b      	ldr	r3, [r3, #0]
 8005866:	6adb      	ldr	r3, [r3, #44]	@ 0x2c
 8005868:	429a      	cmp	r2, r3
 800586a:	d301      	bcc.n	8005870 <xTaskPriorityInherit+0x98>
	BaseType_t xReturn = pdFALSE;
 800586c:	2000      	movs	r0, #0
 800586e:	e7d3      	b.n	8005818 <xTaskPriorityInherit+0x40>
					xReturn = pdTRUE;
 8005870:	2001      	movs	r0, #1
		return xReturn;
 8005872:	e7d1      	b.n	8005818 <xTaskPriorityInherit+0x40>
	}
 8005874:	4770      	bx	lr
 8005876:	bf00      	nop
 8005878:	20004ef4 	.word	0x20004ef4
 800587c:	20004e68 	.word	0x20004e68
 8005880:	20004dec 	.word	0x20004dec

08005884 <xTaskPriorityDisinherit>:
		if( pxMutexHolder != NULL )
 8005884:	2800      	cmp	r0, #0
 8005886:	d04e      	beq.n	8005926 <xTaskPriorityDisinherit+0xa2>
	{
 8005888:	b538      	push	{r3, r4, r5, lr}
 800588a:	4604      	mov	r4, r0
			configASSERT( pxTCB == pxCurrentTCB );
 800588c:	4b26      	ldr	r3, [pc, #152]	@ (8005928 <xTaskPriorityDisinherit+0xa4>)
 800588e:	681b      	ldr	r3, [r3, #0]
 8005890:	4283      	cmp	r3, r0
 8005892:	d008      	beq.n	80058a6 <xTaskPriorityDisinherit+0x22>
 8005894:	f04f 0350 	mov.w	r3, #80	@ 0x50
 8005898:	f383 8811 	msr	BASEPRI, r3
 800589c:	f3bf 8f6f 	isb	sy
 80058a0:	f3bf 8f4f 	dsb	sy
 80058a4:	e7fe      	b.n	80058a4 <xTaskPriorityDisinherit+0x20>
			configASSERT( pxTCB->uxMutexesHeld );
 80058a6:	6c83      	ldr	r3, [r0, #72]	@ 0x48
 80058a8:	b943      	cbnz	r3, 80058bc <xTaskPriorityDisinherit+0x38>
 80058aa:	f04f 0350 	mov.w	r3, #80	@ 0x50
 80058ae:	f383 8811 	msr	BASEPRI, r3
 80058b2:	f3bf 8f6f 	isb	sy
 80058b6:	f3bf 8f4f 	dsb	sy
 80058ba:	e7fe      	b.n	80058ba <xTaskPriorityDisinherit+0x36>
			( pxTCB->uxMutexesHeld )--;
 80058bc:	3b01      	subs	r3, #1
 80058be:	6483      	str	r3, [r0, #72]	@ 0x48
			if( pxTCB->uxPriority != pxTCB->uxBasePriority )
 80058c0:	6ac1      	ldr	r1, [r0, #44]	@ 0x2c
 80058c2:	6c42      	ldr	r2, [r0, #68]	@ 0x44
 80058c4:	4291      	cmp	r1, r2
 80058c6:	d02c      	beq.n	8005922 <xTaskPriorityDisinherit+0x9e>
				if( pxTCB->uxMutexesHeld == ( UBaseType_t ) 0 )
 80058c8:	b10b      	cbz	r3, 80058ce <xTaskPriorityDisinherit+0x4a>
	BaseType_t xReturn = pdFALSE;
 80058ca:	2000      	movs	r0, #0
	}
 80058cc:	bd38      	pop	{r3, r4, r5, pc}
					if( uxListRemove( &( pxTCB->xStateListItem ) ) == ( UBaseType_t ) 0 )
 80058ce:	1d03      	adds	r3, r0, #4
 80058d0:	461d      	mov	r5, r3
 80058d2:	4618      	mov	r0, r3
 80058d4:	f7fa ffc5 	bl	8000862 <uxListRemove>
 80058d8:	b968      	cbnz	r0, 80058f6 <xTaskPriorityDisinherit+0x72>
						taskRESET_READY_PRIORITY( pxTCB->uxPriority );
 80058da:	6ae3      	ldr	r3, [r4, #44]	@ 0x2c
 80058dc:	eb03 0283 	add.w	r2, r3, r3, lsl #2
 80058e0:	0092      	lsls	r2, r2, #2
 80058e2:	4912      	ldr	r1, [pc, #72]	@ (800592c <xTaskPriorityDisinherit+0xa8>)
 80058e4:	588a      	ldr	r2, [r1, r2]
 80058e6:	b932      	cbnz	r2, 80058f6 <xTaskPriorityDisinherit+0x72>
 80058e8:	2201      	movs	r2, #1
 80058ea:	409a      	lsls	r2, r3
 80058ec:	4910      	ldr	r1, [pc, #64]	@ (8005930 <xTaskPriorityDisinherit+0xac>)
 80058ee:	680b      	ldr	r3, [r1, #0]
 80058f0:	ea23 0302 	bic.w	r3, r3, r2
 80058f4:	600b      	str	r3, [r1, #0]
					pxTCB->uxPriority = pxTCB->uxBasePriority;
 80058f6:	6c60      	ldr	r0, [r4, #68]	@ 0x44
 80058f8:	62e0      	str	r0, [r4, #44]	@ 0x2c
					listSET_LIST_ITEM_VALUE( &( pxTCB->xEventListItem ), ( TickType_t ) configMAX_PRIORITIES - ( TickType_t ) pxTCB->uxPriority ); /*lint !e961 MISRA exception as the casts are only redundant for some ports. */
 80058fa:	f1c0 0307 	rsb	r3, r0, #7
 80058fe:	61a3      	str	r3, [r4, #24]
					prvAddTaskToReadyList( pxTCB );
 8005900:	2401      	movs	r4, #1
 8005902:	fa04 f300 	lsl.w	r3, r4, r0
 8005906:	4a0a      	ldr	r2, [pc, #40]	@ (8005930 <xTaskPriorityDisinherit+0xac>)
 8005908:	6811      	ldr	r1, [r2, #0]
 800590a:	430b      	orrs	r3, r1
 800590c:	6013      	str	r3, [r2, #0]
 800590e:	eb00 0080 	add.w	r0, r0, r0, lsl #2
 8005912:	4629      	mov	r1, r5
 8005914:	4b05      	ldr	r3, [pc, #20]	@ (800592c <xTaskPriorityDisinherit+0xa8>)
 8005916:	eb03 0080 	add.w	r0, r3, r0, lsl #2
 800591a:	f7fa ff7b 	bl	8000814 <vListInsertEnd>
					xReturn = pdTRUE;
 800591e:	4620      	mov	r0, r4
 8005920:	e7d4      	b.n	80058cc <xTaskPriorityDisinherit+0x48>
	BaseType_t xReturn = pdFALSE;
 8005922:	2000      	movs	r0, #0
 8005924:	e7d2      	b.n	80058cc <xTaskPriorityDisinherit+0x48>
	}
 8005926:	4770      	bx	lr
 8005928:	20004ef4 	.word	0x20004ef4
 800592c:	20004e68 	.word	0x20004e68
 8005930:	20004dec 	.word	0x20004dec

08005934 <vTaskPriorityDisinheritAfterTimeout>:
		if( pxMutexHolder != NULL )
 8005934:	2800      	cmp	r0, #0
 8005936:	d050      	beq.n	80059da <vTaskPriorityDisinheritAfterTimeout+0xa6>
	{
 8005938:	b538      	push	{r3, r4, r5, lr}
 800593a:	4604      	mov	r4, r0
			configASSERT( pxTCB->uxMutexesHeld );
 800593c:	6c83      	ldr	r3, [r0, #72]	@ 0x48
 800593e:	b943      	cbnz	r3, 8005952 <vTaskPriorityDisinheritAfterTimeout+0x1e>
 8005940:	f04f 0350 	mov.w	r3, #80	@ 0x50
 8005944:	f383 8811 	msr	BASEPRI, r3
 8005948:	f3bf 8f6f 	isb	sy
 800594c:	f3bf 8f4f 	dsb	sy
 8005950:	e7fe      	b.n	8005950 <vTaskPriorityDisinheritAfterTimeout+0x1c>
			if( pxTCB->uxBasePriority < uxHighestPriorityWaitingTask )
 8005952:	6c42      	ldr	r2, [r0, #68]	@ 0x44
 8005954:	428a      	cmp	r2, r1
 8005956:	d200      	bcs.n	800595a <vTaskPriorityDisinheritAfterTimeout+0x26>
				uxPriorityToUse = uxHighestPriorityWaitingTask;
 8005958:	460a      	mov	r2, r1
			if( pxTCB->uxPriority != uxPriorityToUse )
 800595a:	6ae1      	ldr	r1, [r4, #44]	@ 0x2c
 800595c:	4291      	cmp	r1, r2
 800595e:	d001      	beq.n	8005964 <vTaskPriorityDisinheritAfterTimeout+0x30>
				if( pxTCB->uxMutexesHeld == uxOnlyOneMutexHeld )
 8005960:	2b01      	cmp	r3, #1
 8005962:	d000      	beq.n	8005966 <vTaskPriorityDisinheritAfterTimeout+0x32>
	}
 8005964:	bd38      	pop	{r3, r4, r5, pc}
					configASSERT( pxTCB != pxCurrentTCB );
 8005966:	4b1d      	ldr	r3, [pc, #116]	@ (80059dc <vTaskPriorityDisinheritAfterTimeout+0xa8>)
 8005968:	681b      	ldr	r3, [r3, #0]
 800596a:	42a3      	cmp	r3, r4
 800596c:	d02c      	beq.n	80059c8 <vTaskPriorityDisinheritAfterTimeout+0x94>
					pxTCB->uxPriority = uxPriorityToUse;
 800596e:	62e2      	str	r2, [r4, #44]	@ 0x2c
					if( ( listGET_LIST_ITEM_VALUE( &( pxTCB->xEventListItem ) ) & taskEVENT_LIST_ITEM_VALUE_IN_USE ) == 0UL )
 8005970:	69a3      	ldr	r3, [r4, #24]
 8005972:	2b00      	cmp	r3, #0
 8005974:	db02      	blt.n	800597c <vTaskPriorityDisinheritAfterTimeout+0x48>
						listSET_LIST_ITEM_VALUE( &( pxTCB->xEventListItem ), ( TickType_t ) configMAX_PRIORITIES - ( TickType_t ) uxPriorityToUse ); /*lint !e961 MISRA exception as the casts are only redundant for some ports. */
 8005976:	f1c2 0207 	rsb	r2, r2, #7
 800597a:	61a2      	str	r2, [r4, #24]
					if( listIS_CONTAINED_WITHIN( &( pxReadyTasksLists[ uxPriorityUsedOnEntry ] ), &( pxTCB->xStateListItem ) ) != pdFALSE )
 800597c:	6962      	ldr	r2, [r4, #20]
 800597e:	eb01 0181 	add.w	r1, r1, r1, lsl #2
 8005982:	4b17      	ldr	r3, [pc, #92]	@ (80059e0 <vTaskPriorityDisinheritAfterTimeout+0xac>)
 8005984:	eb03 0381 	add.w	r3, r3, r1, lsl #2
 8005988:	429a      	cmp	r2, r3
 800598a:	d1eb      	bne.n	8005964 <vTaskPriorityDisinheritAfterTimeout+0x30>
						if( uxListRemove( &( pxTCB->xStateListItem ) ) == ( UBaseType_t ) 0 )
 800598c:	1d23      	adds	r3, r4, #4
 800598e:	461d      	mov	r5, r3
 8005990:	4618      	mov	r0, r3
 8005992:	f7fa ff66 	bl	8000862 <uxListRemove>
 8005996:	b938      	cbnz	r0, 80059a8 <vTaskPriorityDisinheritAfterTimeout+0x74>
							portRESET_READY_PRIORITY( pxTCB->uxPriority, uxTopReadyPriority );
 8005998:	6ae3      	ldr	r3, [r4, #44]	@ 0x2c
 800599a:	2201      	movs	r2, #1
 800599c:	409a      	lsls	r2, r3
 800599e:	4911      	ldr	r1, [pc, #68]	@ (80059e4 <vTaskPriorityDisinheritAfterTimeout+0xb0>)
 80059a0:	680b      	ldr	r3, [r1, #0]
 80059a2:	ea23 0302 	bic.w	r3, r3, r2
 80059a6:	600b      	str	r3, [r1, #0]
						prvAddTaskToReadyList( pxTCB );
 80059a8:	6ae0      	ldr	r0, [r4, #44]	@ 0x2c
 80059aa:	2301      	movs	r3, #1
 80059ac:	4083      	lsls	r3, r0
 80059ae:	4a0d      	ldr	r2, [pc, #52]	@ (80059e4 <vTaskPriorityDisinheritAfterTimeout+0xb0>)
 80059b0:	6811      	ldr	r1, [r2, #0]
 80059b2:	430b      	orrs	r3, r1
 80059b4:	6013      	str	r3, [r2, #0]
 80059b6:	eb00 0080 	add.w	r0, r0, r0, lsl #2
 80059ba:	4629      	mov	r1, r5
 80059bc:	4b08      	ldr	r3, [pc, #32]	@ (80059e0 <vTaskPriorityDisinheritAfterTimeout+0xac>)
 80059be:	eb03 0080 	add.w	r0, r3, r0, lsl #2
 80059c2:	f7fa ff27 	bl	8000814 <vListInsertEnd>
	}
 80059c6:	e7cd      	b.n	8005964 <vTaskPriorityDisinheritAfterTimeout+0x30>
 80059c8:	f04f 0350 	mov.w	r3, #80	@ 0x50
 80059cc:	f383 8811 	msr	BASEPRI, r3
 80059d0:	f3bf 8f6f 	isb	sy
 80059d4:	f3bf 8f4f 	dsb	sy
					configASSERT( pxTCB != pxCurrentTCB );
 80059d8:	e7fe      	b.n	80059d8 <vTaskPriorityDisinheritAfterTimeout+0xa4>
 80059da:	4770      	bx	lr
 80059dc:	20004ef4 	.word	0x20004ef4
 80059e0:	20004e68 	.word	0x20004e68
 80059e4:	20004dec 	.word	0x20004dec

080059e8 <pvTaskIncrementMutexHeldCount>:
		if( pxCurrentTCB != NULL )
 80059e8:	4b05      	ldr	r3, [pc, #20]	@ (8005a00 <pvTaskIncrementMutexHeldCount+0x18>)
 80059ea:	681b      	ldr	r3, [r3, #0]
 80059ec:	b123      	cbz	r3, 80059f8 <pvTaskIncrementMutexHeldCount+0x10>
			( pxCurrentTCB->uxMutexesHeld )++;
 80059ee:	4b04      	ldr	r3, [pc, #16]	@ (8005a00 <pvTaskIncrementMutexHeldCount+0x18>)
 80059f0:	681a      	ldr	r2, [r3, #0]
 80059f2:	6c93      	ldr	r3, [r2, #72]	@ 0x48
 80059f4:	3301      	adds	r3, #1
 80059f6:	6493      	str	r3, [r2, #72]	@ 0x48
		return pxCurrentTCB;
 80059f8:	4b01      	ldr	r3, [pc, #4]	@ (8005a00 <pvTaskIncrementMutexHeldCount+0x18>)
 80059fa:	6818      	ldr	r0, [r3, #0]
	}
 80059fc:	4770      	bx	lr
 80059fe:	bf00      	nop
 8005a00:	20004ef4 	.word	0x20004ef4

08005a04 <Reset_Handler>:

    .section  .text.Reset_Handler
  .weak  Reset_Handler
  .type  Reset_Handler, %function
Reset_Handler:  
  ldr   sp, =_estack     /* set stack pointer */
 8005a04:	f8df d034 	ldr.w	sp, [pc, #52]	@ 8005a3c <LoopFillZerobss+0xe>
  
/* Call the clock system initialization function.*/
  bl  SystemInit  
 8005a08:	f7ff fa5a 	bl	8004ec0 <SystemInit>

/* Copy the data segment initializers from flash to SRAM */  
  ldr r0, =_sdata
 8005a0c:	480c      	ldr	r0, [pc, #48]	@ (8005a40 <LoopFillZerobss+0x12>)
  ldr r1, =_edata
 8005a0e:	490d      	ldr	r1, [pc, #52]	@ (8005a44 <LoopFillZerobss+0x16>)
  ldr r2, =_sidata
 8005a10:	4a0d      	ldr	r2, [pc, #52]	@ (8005a48 <LoopFillZerobss+0x1a>)
  movs r3, #0
 8005a12:	2300      	movs	r3, #0
  b LoopCopyDataInit
 8005a14:	e002      	b.n	8005a1c <LoopCopyDataInit>

08005a16 <CopyDataInit>:

CopyDataInit:
  ldr r4, [r2, r3]
 8005a16:	58d4      	ldr	r4, [r2, r3]
  str r4, [r0, r3]
 8005a18:	50c4      	str	r4, [r0, r3]
  adds r3, r3, #4
 8005a1a:	3304      	adds	r3, #4

08005a1c <LoopCopyDataInit>:

LoopCopyDataInit:
  adds r4, r0, r3
 8005a1c:	18c4      	adds	r4, r0, r3
  cmp r4, r1
 8005a1e:	428c      	cmp	r4, r1
  bcc CopyDataInit
 8005a20:	d3f9      	bcc.n	8005a16 <CopyDataInit>
  
/* Zero fill the bss segment. */
  ldr r2, =_sbss
 8005a22:	4a0a      	ldr	r2, [pc, #40]	@ (8005a4c <LoopFillZerobss+0x1e>)
  ldr r4, =_ebss
 8005a24:	4c0a      	ldr	r4, [pc, #40]	@ (8005a50 <LoopFillZerobss+0x22>)
  movs r3, #0
 8005a26:	2300      	movs	r3, #0
  b LoopFillZerobss
 8005a28:	e001      	b.n	8005a2e <LoopFillZerobss>

08005a2a <FillZerobss>:

FillZerobss:
  str  r3, [r2]
 8005a2a:	6013      	str	r3, [r2, #0]
  adds r2, r2, #4
 8005a2c:	3204      	adds	r2, #4

08005a2e <LoopFillZerobss>:

LoopFillZerobss:
  cmp r2, r4
 8005a2e:	42a2      	cmp	r2, r4
  bcc FillZerobss
 8005a30:	d3fb      	bcc.n	8005a2a <FillZerobss>

/* Call static constructors */
    bl __libc_init_array
 8005a32:	f000 f819 	bl	8005a68 <__libc_init_array>
/* Call the application's entry point.*/
  bl  main
 8005a36:	f7fb f8f1 	bl	8000c1c <main>
  bx  lr    
 8005a3a:	4770      	bx	lr
  ldr   sp, =_estack     /* set stack pointer */
 8005a3c:	20020000 	.word	0x20020000
  ldr r0, =_sdata
 8005a40:	20000000 	.word	0x20000000
  ldr r1, =_edata
 8005a44:	2000001c 	.word	0x2000001c
  ldr r2, =_sidata
 8005a48:	08005ea4 	.word	0x08005ea4
  ldr r2, =_sbss
 8005a4c:	2000001c 	.word	0x2000001c
  ldr r4, =_ebss
 8005a50:	20004ef8 	.word	0x20004ef8

08005a54 <ADC_IRQHandler>:
 * @retval None       
*/
    .section  .text.Default_Handler,"ax",%progbits
Default_Handler:
Infinite_Loop:
  b  Infinite_Loop
 8005a54:	e7fe      	b.n	8005a54 <ADC_IRQHandler>

08005a56 <memset>:
 8005a56:	4402      	add	r2, r0
 8005a58:	4603      	mov	r3, r0
 8005a5a:	4293      	cmp	r3, r2
 8005a5c:	d100      	bne.n	8005a60 <memset+0xa>
 8005a5e:	4770      	bx	lr
 8005a60:	f803 1b01 	strb.w	r1, [r3], #1
 8005a64:	e7f9      	b.n	8005a5a <memset+0x4>
	...

08005a68 <__libc_init_array>:
 8005a68:	b570      	push	{r4, r5, r6, lr}
 8005a6a:	4b0d      	ldr	r3, [pc, #52]	@ (8005aa0 <__libc_init_array+0x38>)
 8005a6c:	4c0d      	ldr	r4, [pc, #52]	@ (8005aa4 <__libc_init_array+0x3c>)
 8005a6e:	2600      	movs	r6, #0
 8005a70:	1b1d      	subs	r5, r3, r4
 8005a72:	ebb6 0fa5 	cmp.w	r6, r5, asr #2
 8005a76:	d109      	bne.n	8005a8c <__libc_init_array+0x24>
 8005a78:	f000 f9b8 	bl	8005dec <_init>
 8005a7c:	4c0a      	ldr	r4, [pc, #40]	@ (8005aa8 <__libc_init_array+0x40>)
 8005a7e:	4b0b      	ldr	r3, [pc, #44]	@ (8005aac <__libc_init_array+0x44>)
 8005a80:	2600      	movs	r6, #0
 8005a82:	1b1d      	subs	r5, r3, r4
 8005a84:	ebb6 0fa5 	cmp.w	r6, r5, asr #2
 8005a88:	d105      	bne.n	8005a96 <__libc_init_array+0x2e>
 8005a8a:	bd70      	pop	{r4, r5, r6, pc}
 8005a8c:	f854 3b04 	ldr.w	r3, [r4], #4
 8005a90:	4798      	blx	r3
 8005a92:	3601      	adds	r6, #1
 8005a94:	e7ed      	b.n	8005a72 <__libc_init_array+0xa>
 8005a96:	f854 3b04 	ldr.w	r3, [r4], #4
 8005a9a:	4798      	blx	r3
 8005a9c:	3601      	adds	r6, #1
 8005a9e:	e7f1      	b.n	8005a84 <__libc_init_array+0x1c>
 8005aa0:	08005e9c 	.word	0x08005e9c
 8005aa4:	08005e9c 	.word	0x08005e9c
 8005aa8:	08005e9c 	.word	0x08005e9c
 8005aac:	08005ea0 	.word	0x08005ea0

08005ab0 <memcpy>:
 8005ab0:	440a      	add	r2, r1
 8005ab2:	4291      	cmp	r1, r2
 8005ab4:	f100 33ff 	add.w	r3, r0, #4294967295
 8005ab8:	d100      	bne.n	8005abc <memcpy+0xc>
 8005aba:	4770      	bx	lr
 8005abc:	b510      	push	{r4, lr}
 8005abe:	f811 4b01 	ldrb.w	r4, [r1], #1
 8005ac2:	f803 4f01 	strb.w	r4, [r3, #1]!
 8005ac6:	4291      	cmp	r1, r2
 8005ac8:	d1f9      	bne.n	8005abe <memcpy+0xe>
 8005aca:	bd10      	pop	{r4, pc}

08005acc <__udivmoddi4>:
 8005acc:	e92d 47f0 	stmdb	sp!, {r4, r5, r6, r7, r8, r9, sl, lr}
 8005ad0:	b082      	sub	sp, #8
 8005ad2:	4606      	mov	r6, r0
 8005ad4:	f8dd e028 	ldr.w	lr, [sp, #40]	@ 0x28
 8005ad8:	4608      	mov	r0, r1
 8005ada:	46b4      	mov	ip, r6
 8005adc:	460d      	mov	r5, r1
 8005ade:	2b00      	cmp	r3, #0
 8005ae0:	d14e      	bne.n	8005b80 <__udivmoddi4+0xb4>
 8005ae2:	428a      	cmp	r2, r1
 8005ae4:	4614      	mov	r4, r2
 8005ae6:	d96d      	bls.n	8005bc4 <__udivmoddi4+0xf8>
 8005ae8:	fab2 f282 	clz	r2, r2
 8005aec:	b142      	cbz	r2, 8005b00 <__udivmoddi4+0x34>
 8005aee:	f1c2 0320 	rsb	r3, r2, #32
 8005af2:	4095      	lsls	r5, r2
 8005af4:	fa26 f303 	lsr.w	r3, r6, r3
 8005af8:	4094      	lsls	r4, r2
 8005afa:	431d      	orrs	r5, r3
 8005afc:	fa06 fc02 	lsl.w	ip, r6, r2
 8005b00:	0c26      	lsrs	r6, r4, #16
 8005b02:	b2a7      	uxth	r7, r4
 8005b04:	fbb5 f1f6 	udiv	r1, r5, r6
 8005b08:	ea4f 431c 	mov.w	r3, ip, lsr #16
 8005b0c:	fb06 5511 	mls	r5, r6, r1, r5
 8005b10:	ea43 4305 	orr.w	r3, r3, r5, lsl #16
 8005b14:	fb01 f007 	mul.w	r0, r1, r7
 8005b18:	4298      	cmp	r0, r3
 8005b1a:	d909      	bls.n	8005b30 <__udivmoddi4+0x64>
 8005b1c:	18e3      	adds	r3, r4, r3
 8005b1e:	f101 35ff 	add.w	r5, r1, #4294967295
 8005b22:	f080 8103 	bcs.w	8005d2c <__udivmoddi4+0x260>
 8005b26:	4298      	cmp	r0, r3
 8005b28:	f240 8100 	bls.w	8005d2c <__udivmoddi4+0x260>
 8005b2c:	3902      	subs	r1, #2
 8005b2e:	4423      	add	r3, r4
 8005b30:	1a1b      	subs	r3, r3, r0
 8005b32:	fa1f fc8c 	uxth.w	ip, ip
 8005b36:	fbb3 f0f6 	udiv	r0, r3, r6
 8005b3a:	fb06 3310 	mls	r3, r6, r0, r3
 8005b3e:	ea4c 4c03 	orr.w	ip, ip, r3, lsl #16
 8005b42:	fb00 f307 	mul.w	r3, r0, r7
 8005b46:	4563      	cmp	r3, ip
 8005b48:	d90a      	bls.n	8005b60 <__udivmoddi4+0x94>
 8005b4a:	eb14 0c0c 	adds.w	ip, r4, ip
 8005b4e:	f100 35ff 	add.w	r5, r0, #4294967295
 8005b52:	f080 80ed 	bcs.w	8005d30 <__udivmoddi4+0x264>
 8005b56:	4563      	cmp	r3, ip
 8005b58:	f240 80ea 	bls.w	8005d30 <__udivmoddi4+0x264>
 8005b5c:	44a4      	add	ip, r4
 8005b5e:	3802      	subs	r0, #2
 8005b60:	ea40 4001 	orr.w	r0, r0, r1, lsl #16
 8005b64:	ebac 0c03 	sub.w	ip, ip, r3
 8005b68:	2100      	movs	r1, #0
 8005b6a:	f1be 0f00 	cmp.w	lr, #0
 8005b6e:	d004      	beq.n	8005b7a <__udivmoddi4+0xae>
 8005b70:	fa2c f302 	lsr.w	r3, ip, r2
 8005b74:	2200      	movs	r2, #0
 8005b76:	e9ce 3200 	strd	r3, r2, [lr]
 8005b7a:	b002      	add	sp, #8
 8005b7c:	e8bd 87f0 	ldmia.w	sp!, {r4, r5, r6, r7, r8, r9, sl, pc}
 8005b80:	428b      	cmp	r3, r1
 8005b82:	d909      	bls.n	8005b98 <__udivmoddi4+0xcc>
 8005b84:	f1be 0f00 	cmp.w	lr, #0
 8005b88:	d001      	beq.n	8005b8e <__udivmoddi4+0xc2>
 8005b8a:	e9ce 6100 	strd	r6, r1, [lr]
 8005b8e:	2100      	movs	r1, #0
 8005b90:	4608      	mov	r0, r1
 8005b92:	b002      	add	sp, #8
 8005b94:	e8bd 87f0 	ldmia.w	sp!, {r4, r5, r6, r7, r8, r9, sl, pc}
 8005b98:	fab3 f183 	clz	r1, r3
 8005b9c:	4617      	mov	r7, r2
 8005b9e:	2900      	cmp	r1, #0
 8005ba0:	d14d      	bne.n	8005c3e <__udivmoddi4+0x172>
 8005ba2:	4283      	cmp	r3, r0
 8005ba4:	d302      	bcc.n	8005bac <__udivmoddi4+0xe0>
 8005ba6:	42b2      	cmp	r2, r6
 8005ba8:	f200 810f 	bhi.w	8005dca <__udivmoddi4+0x2fe>
 8005bac:	ebb6 0c07 	subs.w	ip, r6, r7
 8005bb0:	eb60 0303 	sbc.w	r3, r0, r3
 8005bb4:	2001      	movs	r0, #1
 8005bb6:	461d      	mov	r5, r3
 8005bb8:	f1be 0f00 	cmp.w	lr, #0
 8005bbc:	d0dd      	beq.n	8005b7a <__udivmoddi4+0xae>
 8005bbe:	e9ce c500 	strd	ip, r5, [lr]
 8005bc2:	e7da      	b.n	8005b7a <__udivmoddi4+0xae>
 8005bc4:	2a00      	cmp	r2, #0
 8005bc6:	f000 8098 	beq.w	8005cfa <__udivmoddi4+0x22e>
 8005bca:	461a      	mov	r2, r3
 8005bcc:	fab4 f384 	clz	r3, r4
 8005bd0:	2b00      	cmp	r3, #0
 8005bd2:	f040 80af 	bne.w	8005d34 <__udivmoddi4+0x268>
 8005bd6:	1b0b      	subs	r3, r1, r4
 8005bd8:	0c27      	lsrs	r7, r4, #16
 8005bda:	b2a6      	uxth	r6, r4
 8005bdc:	2101      	movs	r1, #1
 8005bde:	fbb3 f5f7 	udiv	r5, r3, r7
 8005be2:	ea4f 401c 	mov.w	r0, ip, lsr #16
 8005be6:	fb07 3315 	mls	r3, r7, r5, r3
 8005bea:	ea40 4303 	orr.w	r3, r0, r3, lsl #16
 8005bee:	fb06 f805 	mul.w	r8, r6, r5
 8005bf2:	4598      	cmp	r8, r3
 8005bf4:	d907      	bls.n	8005c06 <__udivmoddi4+0x13a>
 8005bf6:	18e3      	adds	r3, r4, r3
 8005bf8:	f105 30ff 	add.w	r0, r5, #4294967295
 8005bfc:	d202      	bcs.n	8005c04 <__udivmoddi4+0x138>
 8005bfe:	4598      	cmp	r8, r3
 8005c00:	f200 80e8 	bhi.w	8005dd4 <__udivmoddi4+0x308>
 8005c04:	4605      	mov	r5, r0
 8005c06:	eba3 0308 	sub.w	r3, r3, r8
 8005c0a:	fa1f fc8c 	uxth.w	ip, ip
 8005c0e:	fbb3 f0f7 	udiv	r0, r3, r7
 8005c12:	fb07 3310 	mls	r3, r7, r0, r3
 8005c16:	ea4c 4c03 	orr.w	ip, ip, r3, lsl #16
 8005c1a:	fb06 f300 	mul.w	r3, r6, r0
 8005c1e:	4563      	cmp	r3, ip
 8005c20:	d908      	bls.n	8005c34 <__udivmoddi4+0x168>
 8005c22:	eb14 0c0c 	adds.w	ip, r4, ip
 8005c26:	f100 36ff 	add.w	r6, r0, #4294967295
 8005c2a:	d202      	bcs.n	8005c32 <__udivmoddi4+0x166>
 8005c2c:	4563      	cmp	r3, ip
 8005c2e:	f200 80ce 	bhi.w	8005dce <__udivmoddi4+0x302>
 8005c32:	4630      	mov	r0, r6
 8005c34:	ebac 0c03 	sub.w	ip, ip, r3
 8005c38:	ea40 4005 	orr.w	r0, r0, r5, lsl #16
 8005c3c:	e795      	b.n	8005b6a <__udivmoddi4+0x9e>
 8005c3e:	f1c1 0520 	rsb	r5, r1, #32
 8005c42:	408b      	lsls	r3, r1
 8005c44:	fa22 fc05 	lsr.w	ip, r2, r5
 8005c48:	ea4c 0c03 	orr.w	ip, ip, r3
 8005c4c:	fa00 f401 	lsl.w	r4, r0, r1
 8005c50:	fa26 f305 	lsr.w	r3, r6, r5
 8005c54:	40e8      	lsrs	r0, r5
 8005c56:	fa02 f901 	lsl.w	r9, r2, r1
 8005c5a:	ea43 0804 	orr.w	r8, r3, r4
 8005c5e:	ea4f 421c 	mov.w	r2, ip, lsr #16
 8005c62:	fa06 fa01 	lsl.w	sl, r6, r1
 8005c66:	fbb0 f7f2 	udiv	r7, r0, r2
 8005c6a:	fa1f f68c 	uxth.w	r6, ip
 8005c6e:	fb02 0017 	mls	r0, r2, r7, r0
 8005c72:	ea4f 4418 	mov.w	r4, r8, lsr #16
 8005c76:	ea44 4400 	orr.w	r4, r4, r0, lsl #16
 8005c7a:	fb07 f006 	mul.w	r0, r7, r6
 8005c7e:	42a0      	cmp	r0, r4
 8005c80:	d90a      	bls.n	8005c98 <__udivmoddi4+0x1cc>
 8005c82:	eb1c 0404 	adds.w	r4, ip, r4
 8005c86:	f107 33ff 	add.w	r3, r7, #4294967295
 8005c8a:	f080 809c 	bcs.w	8005dc6 <__udivmoddi4+0x2fa>
 8005c8e:	42a0      	cmp	r0, r4
 8005c90:	f240 8099 	bls.w	8005dc6 <__udivmoddi4+0x2fa>
 8005c94:	3f02      	subs	r7, #2
 8005c96:	4464      	add	r4, ip
 8005c98:	1a24      	subs	r4, r4, r0
 8005c9a:	fa1f f388 	uxth.w	r3, r8
 8005c9e:	fbb4 f0f2 	udiv	r0, r4, r2
 8005ca2:	fb02 4410 	mls	r4, r2, r0, r4
 8005ca6:	ea43 4304 	orr.w	r3, r3, r4, lsl #16
 8005caa:	fb00 f606 	mul.w	r6, r0, r6
 8005cae:	429e      	cmp	r6, r3
 8005cb0:	d909      	bls.n	8005cc6 <__udivmoddi4+0x1fa>
 8005cb2:	eb1c 0303 	adds.w	r3, ip, r3
 8005cb6:	f100 34ff 	add.w	r4, r0, #4294967295
 8005cba:	f080 8082 	bcs.w	8005dc2 <__udivmoddi4+0x2f6>
 8005cbe:	429e      	cmp	r6, r3
 8005cc0:	d97f      	bls.n	8005dc2 <__udivmoddi4+0x2f6>
 8005cc2:	3802      	subs	r0, #2
 8005cc4:	4463      	add	r3, ip
 8005cc6:	ea40 4007 	orr.w	r0, r0, r7, lsl #16
 8005cca:	fba0 7409 	umull	r7, r4, r0, r9
 8005cce:	1b9b      	subs	r3, r3, r6
 8005cd0:	42a3      	cmp	r3, r4
 8005cd2:	463e      	mov	r6, r7
 8005cd4:	46a0      	mov	r8, r4
 8005cd6:	d364      	bcc.n	8005da2 <__udivmoddi4+0x2d6>
 8005cd8:	d061      	beq.n	8005d9e <__udivmoddi4+0x2d2>
 8005cda:	f1be 0f00 	cmp.w	lr, #0
 8005cde:	d00a      	beq.n	8005cf6 <__udivmoddi4+0x22a>
 8005ce0:	ebba 0206 	subs.w	r2, sl, r6
 8005ce4:	eb63 0308 	sbc.w	r3, r3, r8
 8005ce8:	fa03 f505 	lsl.w	r5, r3, r5
 8005cec:	40ca      	lsrs	r2, r1
 8005cee:	4315      	orrs	r5, r2
 8005cf0:	40cb      	lsrs	r3, r1
 8005cf2:	e9ce 5300 	strd	r5, r3, [lr]
 8005cf6:	2100      	movs	r1, #0
 8005cf8:	e73f      	b.n	8005b7a <__udivmoddi4+0xae>
 8005cfa:	0873      	lsrs	r3, r6, #1
 8005cfc:	ea43 73c1 	orr.w	r3, r3, r1, lsl #31
 8005d00:	084a      	lsrs	r2, r1, #1
 8005d02:	0c19      	lsrs	r1, r3, #16
 8005d04:	ea41 4102 	orr.w	r1, r1, r2, lsl #16
 8005d08:	ea4f 7cc6 	mov.w	ip, r6, lsl #31
 8005d0c:	b29b      	uxth	r3, r3
 8005d0e:	fbb2 f0f4 	udiv	r0, r2, r4
 8005d12:	4626      	mov	r6, r4
 8005d14:	46a0      	mov	r8, r4
 8005d16:	4627      	mov	r7, r4
 8005d18:	221f      	movs	r2, #31
 8005d1a:	ea43 4301 	orr.w	r3, r3, r1, lsl #16
 8005d1e:	fbb1 f1f4 	udiv	r1, r1, r4
 8005d22:	eba3 0308 	sub.w	r3, r3, r8
 8005d26:	ea41 4100 	orr.w	r1, r1, r0, lsl #16
 8005d2a:	e758      	b.n	8005bde <__udivmoddi4+0x112>
 8005d2c:	4629      	mov	r1, r5
 8005d2e:	e6ff      	b.n	8005b30 <__udivmoddi4+0x64>
 8005d30:	4628      	mov	r0, r5
 8005d32:	e715      	b.n	8005b60 <__udivmoddi4+0x94>
 8005d34:	461a      	mov	r2, r3
 8005d36:	f1c3 0120 	rsb	r1, r3, #32
 8005d3a:	409c      	lsls	r4, r3
 8005d3c:	fa26 f301 	lsr.w	r3, r6, r1
 8005d40:	fa20 f101 	lsr.w	r1, r0, r1
 8005d44:	4090      	lsls	r0, r2
 8005d46:	4303      	orrs	r3, r0
 8005d48:	0c27      	lsrs	r7, r4, #16
 8005d4a:	fa06 fc02 	lsl.w	ip, r6, r2
 8005d4e:	fbb1 f0f7 	udiv	r0, r1, r7
 8005d52:	b2a6      	uxth	r6, r4
 8005d54:	fb07 1510 	mls	r5, r7, r0, r1
 8005d58:	0c19      	lsrs	r1, r3, #16
 8005d5a:	ea41 4105 	orr.w	r1, r1, r5, lsl #16
 8005d5e:	fb00 f506 	mul.w	r5, r0, r6
 8005d62:	428d      	cmp	r5, r1
 8005d64:	d93b      	bls.n	8005dde <__udivmoddi4+0x312>
 8005d66:	1861      	adds	r1, r4, r1
 8005d68:	d201      	bcs.n	8005d6e <__udivmoddi4+0x2a2>
 8005d6a:	428d      	cmp	r5, r1
 8005d6c:	d820      	bhi.n	8005db0 <__udivmoddi4+0x2e4>
 8005d6e:	1b49      	subs	r1, r1, r5
 8005d70:	3801      	subs	r0, #1
 8005d72:	fbb1 f5f7 	udiv	r5, r1, r7
 8005d76:	9501      	str	r5, [sp, #4]
 8005d78:	fb05 f806 	mul.w	r8, r5, r6
 8005d7c:	9d01      	ldr	r5, [sp, #4]
 8005d7e:	b29b      	uxth	r3, r3
 8005d80:	fb07 1115 	mls	r1, r7, r5, r1
 8005d84:	ea43 4301 	orr.w	r3, r3, r1, lsl #16
 8005d88:	4543      	cmp	r3, r8
 8005d8a:	d226      	bcs.n	8005dda <__udivmoddi4+0x30e>
 8005d8c:	18e3      	adds	r3, r4, r3
 8005d8e:	f105 31ff 	add.w	r1, r5, #4294967295
 8005d92:	d2c6      	bcs.n	8005d22 <__udivmoddi4+0x256>
 8005d94:	4543      	cmp	r3, r8
 8005d96:	d2c4      	bcs.n	8005d22 <__udivmoddi4+0x256>
 8005d98:	1ea9      	subs	r1, r5, #2
 8005d9a:	4423      	add	r3, r4
 8005d9c:	e7c1      	b.n	8005d22 <__udivmoddi4+0x256>
 8005d9e:	45ba      	cmp	sl, r7
 8005da0:	d29b      	bcs.n	8005cda <__udivmoddi4+0x20e>
 8005da2:	ebb7 0609 	subs.w	r6, r7, r9
 8005da6:	eb64 040c 	sbc.w	r4, r4, ip
 8005daa:	3801      	subs	r0, #1
 8005dac:	46a0      	mov	r8, r4
 8005dae:	e794      	b.n	8005cda <__udivmoddi4+0x20e>
 8005db0:	1b65      	subs	r5, r4, r5
 8005db2:	4429      	add	r1, r5
 8005db4:	3802      	subs	r0, #2
 8005db6:	fbb1 f5f7 	udiv	r5, r1, r7
 8005dba:	9501      	str	r5, [sp, #4]
 8005dbc:	fb05 f806 	mul.w	r8, r5, r6
 8005dc0:	e7dc      	b.n	8005d7c <__udivmoddi4+0x2b0>
 8005dc2:	4620      	mov	r0, r4
 8005dc4:	e77f      	b.n	8005cc6 <__udivmoddi4+0x1fa>
 8005dc6:	461f      	mov	r7, r3
 8005dc8:	e766      	b.n	8005c98 <__udivmoddi4+0x1cc>
 8005dca:	4608      	mov	r0, r1
 8005dcc:	e6f4      	b.n	8005bb8 <__udivmoddi4+0xec>
 8005dce:	44a4      	add	ip, r4
 8005dd0:	3802      	subs	r0, #2
 8005dd2:	e72f      	b.n	8005c34 <__udivmoddi4+0x168>
 8005dd4:	3d02      	subs	r5, #2
 8005dd6:	4423      	add	r3, r4
 8005dd8:	e715      	b.n	8005c06 <__udivmoddi4+0x13a>
 8005dda:	9901      	ldr	r1, [sp, #4]
 8005ddc:	e7a1      	b.n	8005d22 <__udivmoddi4+0x256>
 8005dde:	1b49      	subs	r1, r1, r5
 8005de0:	fbb1 f5f7 	udiv	r5, r1, r7
 8005de4:	9501      	str	r5, [sp, #4]
 8005de6:	fb05 f806 	mul.w	r8, r5, r6
 8005dea:	e7c7      	b.n	8005d7c <__udivmoddi4+0x2b0>

08005dec <_init>:
 8005dec:	b5f8      	push	{r3, r4, r5, r6, r7, lr}
 8005dee:	bf00      	nop
 8005df0:	bcf8      	pop	{r3, r4, r5, r6, r7}
 8005df2:	bc08      	pop	{r3}
 8005df4:	469e      	mov	lr, r3
 8005df6:	4770      	bx	lr

08005df8 <_fini>:
 8005df8:	b5f8      	push	{r3, r4, r5, r6, r7, lr}
 8005dfa:	bf00      	nop
 8005dfc:	bcf8      	pop	{r3, r4, r5, r6, r7}
 8005dfe:	bc08      	pop	{r3}
 8005e00:	469e      	mov	lr, r3
 8005e02:	4770      	bx	lr
