ARM GAS  /var/folders/kf/d797ysj14bb1pb7szkr3jbx80000gn/T//ccC7gD5u.s 			page 1


   1              		.cpu cortex-m4
   2              		.arch armv7e-m
   3              		.fpu fpv4-sp-d16
   4              		.eabi_attribute 27, 1
   5              		.eabi_attribute 28, 1
   6              		.eabi_attribute 20, 1
   7              		.eabi_attribute 21, 1
   8              		.eabi_attribute 23, 3
   9              		.eabi_attribute 24, 1
  10              		.eabi_attribute 25, 1
  11              		.eabi_attribute 26, 1
  12              		.eabi_attribute 30, 1
  13              		.eabi_attribute 34, 1
  14              		.eabi_attribute 18, 4
  15              		.file	"queue.c"
  16              		.text
  17              		.section	.text.prvGetDisinheritPriorityAfterTimeout,"ax",%progbits
  18              		.align	1
  19              		.syntax unified
  20              		.thumb
  21              		.thumb_func
  23              	prvGetDisinheritPriorityAfterTimeout:
  24              		@ args = 0, pretend = 0, frame = 0
  25              		@ frame_needed = 0, uses_anonymous_args = 0
  26              		@ link register save eliminated.
  27 0000 0346     		mov	r3, r0
  28 0002 406A     		ldr	r0, [r0, #36]
  29 0004 18B1     		cbz	r0, .L1
  30 0006 1B6B     		ldr	r3, [r3, #48]
  31 0008 1868     		ldr	r0, [r3]
  32 000a C0F10700 		rsb	r0, r0, #7
  33              	.L1:
  34 000e 7047     		bx	lr
  36              		.section	.text.prvIsQueueFull,"ax",%progbits
  37              		.align	1
  38              		.syntax unified
  39              		.thumb
  40              		.thumb_func
  42              	prvIsQueueFull:
  43              		@ args = 0, pretend = 0, frame = 0
  44              		@ frame_needed = 0, uses_anonymous_args = 0
  45 0000 10B5     		push	{r4, lr}
  46 0002 0446     		mov	r4, r0
  47 0004 FFF7FEFF 		bl	vPortEnterCritical
  48 0008 A26B     		ldr	r2, [r4, #56]
  49 000a E36B     		ldr	r3, [r4, #60]
  50 000c 9A42     		cmp	r2, r3
  51 000e 04D0     		beq	.L7
  52 0010 0024     		movs	r4, #0
  53              	.L4:
  54 0012 FFF7FEFF 		bl	vPortExitCritical
  55 0016 2046     		mov	r0, r4
  56 0018 10BD     		pop	{r4, pc}
  57              	.L7:
  58 001a 0124     		movs	r4, #1
  59 001c F9E7     		b	.L4
  61              		.section	.text.prvIsQueueEmpty,"ax",%progbits
ARM GAS  /var/folders/kf/d797ysj14bb1pb7szkr3jbx80000gn/T//ccC7gD5u.s 			page 2


  62              		.align	1
  63              		.syntax unified
  64              		.thumb
  65              		.thumb_func
  67              	prvIsQueueEmpty:
  68              		@ args = 0, pretend = 0, frame = 0
  69              		@ frame_needed = 0, uses_anonymous_args = 0
  70 0000 10B5     		push	{r4, lr}
  71 0002 0446     		mov	r4, r0
  72 0004 FFF7FEFF 		bl	vPortEnterCritical
  73 0008 A36B     		ldr	r3, [r4, #56]
  74 000a 2BB9     		cbnz	r3, .L10
  75 000c 0123     		movs	r3, #1
  76 000e 1C46     		mov	r4, r3
  77              	.L9:
  78 0010 FFF7FEFF 		bl	vPortExitCritical
  79 0014 2046     		mov	r0, r4
  80 0016 10BD     		pop	{r4, pc}
  81              	.L10:
  82 0018 0023     		movs	r3, #0
  83 001a 1C46     		mov	r4, r3
  84 001c F8E7     		b	.L9
  86              		.section	.text.prvCopyDataToQueue,"ax",%progbits
  87              		.align	1
  88              		.syntax unified
  89              		.thumb
  90              		.thumb_func
  92              	prvCopyDataToQueue:
  93              		@ args = 0, pretend = 0, frame = 0
  94              		@ frame_needed = 0, uses_anonymous_args = 0
  95 0000 70B5     		push	{r4, r5, r6, lr}
  96 0002 0446     		mov	r4, r0
  97 0004 1646     		mov	r6, r2
  98 0006 856B     		ldr	r5, [r0, #56]
  99 0008 026C     		ldr	r2, [r0, #64]
 100 000a 5AB9     		cbnz	r2, .L13
 101 000c 0368     		ldr	r3, [r0]
 102 000e 1BB1     		cbz	r3, .L22
 103 0010 0020     		movs	r0, #0
 104              	.L14:
 105 0012 0135     		adds	r5, r5, #1
 106 0014 A563     		str	r5, [r4, #56]
 107 0016 70BD     		pop	{r4, r5, r6, pc}
 108              	.L22:
 109 0018 8068     		ldr	r0, [r0, #8]
 110 001a FFF7FEFF 		bl	xTaskPriorityDisinherit
 111 001e 0023     		movs	r3, #0
 112 0020 A360     		str	r3, [r4, #8]
 113 0022 F6E7     		b	.L14
 114              	.L13:
 115 0024 6EB9     		cbnz	r6, .L15
 116 0026 4068     		ldr	r0, [r0, #4]
 117 0028 FFF7FEFF 		bl	memcpy
 118 002c 6368     		ldr	r3, [r4, #4]
 119 002e 226C     		ldr	r2, [r4, #64]
 120 0030 1344     		add	r3, r3, r2
 121 0032 6360     		str	r3, [r4, #4]
ARM GAS  /var/folders/kf/d797ysj14bb1pb7szkr3jbx80000gn/T//ccC7gD5u.s 			page 3


 122 0034 A268     		ldr	r2, [r4, #8]
 123 0036 9342     		cmp	r3, r2
 124 0038 19D3     		bcc	.L18
 125 003a 2368     		ldr	r3, [r4]
 126 003c 6360     		str	r3, [r4, #4]
 127 003e 3046     		mov	r0, r6
 128 0040 E7E7     		b	.L14
 129              	.L15:
 130 0042 C068     		ldr	r0, [r0, #12]
 131 0044 FFF7FEFF 		bl	memcpy
 132 0048 E368     		ldr	r3, [r4, #12]
 133 004a 226C     		ldr	r2, [r4, #64]
 134 004c 5142     		rsbs	r1, r2, #0
 135 004e 9B1A     		subs	r3, r3, r2
 136 0050 E360     		str	r3, [r4, #12]
 137 0052 2268     		ldr	r2, [r4]
 138 0054 9342     		cmp	r3, r2
 139 0056 02D2     		bcs	.L16
 140 0058 A368     		ldr	r3, [r4, #8]
 141 005a 0B44     		add	r3, r3, r1
 142 005c E360     		str	r3, [r4, #12]
 143              	.L16:
 144 005e 022E     		cmp	r6, #2
 145 0060 01D0     		beq	.L23
 146 0062 0020     		movs	r0, #0
 147 0064 D5E7     		b	.L14
 148              	.L23:
 149 0066 25B1     		cbz	r5, .L20
 150 0068 013D     		subs	r5, r5, #1
 151 006a 0020     		movs	r0, #0
 152 006c D1E7     		b	.L14
 153              	.L18:
 154 006e 3046     		mov	r0, r6
 155 0070 CFE7     		b	.L14
 156              	.L20:
 157 0072 2846     		mov	r0, r5
 158 0074 CDE7     		b	.L14
 160              		.section	.text.prvCopyDataFromQueue,"ax",%progbits
 161              		.align	1
 162              		.syntax unified
 163              		.thumb
 164              		.thumb_func
 166              	prvCopyDataFromQueue:
 167              		@ args = 0, pretend = 0, frame = 0
 168              		@ frame_needed = 0, uses_anonymous_args = 0
 169 0000 0346     		mov	r3, r0
 170 0002 026C     		ldr	r2, [r0, #64]
 171 0004 6AB1     		cbz	r2, .L28
 172 0006 10B5     		push	{r4, lr}
 173 0008 0846     		mov	r0, r1
 174 000a D968     		ldr	r1, [r3, #12]
 175 000c 1144     		add	r1, r1, r2
 176 000e D960     		str	r1, [r3, #12]
 177 0010 9C68     		ldr	r4, [r3, #8]
 178 0012 A142     		cmp	r1, r4
 179 0014 01D3     		bcc	.L26
 180 0016 1968     		ldr	r1, [r3]
ARM GAS  /var/folders/kf/d797ysj14bb1pb7szkr3jbx80000gn/T//ccC7gD5u.s 			page 4


 181 0018 D960     		str	r1, [r3, #12]
 182              	.L26:
 183 001a D968     		ldr	r1, [r3, #12]
 184 001c FFF7FEFF 		bl	memcpy
 185 0020 10BD     		pop	{r4, pc}
 186              	.L28:
 187 0022 7047     		bx	lr
 189              		.section	.text.prvUnlockQueue,"ax",%progbits
 190              		.align	1
 191              		.syntax unified
 192              		.thumb
 193              		.thumb_func
 195              	prvUnlockQueue:
 196              		@ args = 0, pretend = 0, frame = 0
 197              		@ frame_needed = 0, uses_anonymous_args = 0
 198 0000 38B5     		push	{r3, r4, r5, lr}
 199 0002 0546     		mov	r5, r0
 200 0004 FFF7FEFF 		bl	vPortEnterCritical
 201 0008 95F84540 		ldrb	r4, [r5, #69]	@ zero_extendqisi2
 202 000c 64B2     		sxtb	r4, r4
 203 000e 01E0     		b	.L32
 204              	.L34:
 205 0010 013C     		subs	r4, r4, #1
 206 0012 64B2     		sxtb	r4, r4
 207              	.L32:
 208 0014 002C     		cmp	r4, #0
 209 0016 0ADD     		ble	.L33
 210 0018 6B6A     		ldr	r3, [r5, #36]
 211 001a 43B1     		cbz	r3, .L33
 212 001c 05F12400 		add	r0, r5, #36
 213 0020 FFF7FEFF 		bl	xTaskRemoveFromEventList
 214 0024 0028     		cmp	r0, #0
 215 0026 F3D0     		beq	.L34
 216 0028 FFF7FEFF 		bl	vTaskMissedYield
 217 002c F0E7     		b	.L34
 218              	.L33:
 219 002e FF23     		movs	r3, #255
 220 0030 85F84530 		strb	r3, [r5, #69]
 221 0034 FFF7FEFF 		bl	vPortExitCritical
 222 0038 FFF7FEFF 		bl	vPortEnterCritical
 223 003c 95F84440 		ldrb	r4, [r5, #68]	@ zero_extendqisi2
 224 0040 64B2     		sxtb	r4, r4
 225 0042 01E0     		b	.L36
 226              	.L38:
 227 0044 013C     		subs	r4, r4, #1
 228 0046 64B2     		sxtb	r4, r4
 229              	.L36:
 230 0048 002C     		cmp	r4, #0
 231 004a 0ADD     		ble	.L37
 232 004c 2B69     		ldr	r3, [r5, #16]
 233 004e 43B1     		cbz	r3, .L37
 234 0050 05F11000 		add	r0, r5, #16
 235 0054 FFF7FEFF 		bl	xTaskRemoveFromEventList
 236 0058 0028     		cmp	r0, #0
 237 005a F3D0     		beq	.L38
 238 005c FFF7FEFF 		bl	vTaskMissedYield
 239 0060 F0E7     		b	.L38
ARM GAS  /var/folders/kf/d797ysj14bb1pb7szkr3jbx80000gn/T//ccC7gD5u.s 			page 5


 240              	.L37:
 241 0062 FF23     		movs	r3, #255
 242 0064 85F84430 		strb	r3, [r5, #68]
 243 0068 FFF7FEFF 		bl	vPortExitCritical
 244 006c 38BD     		pop	{r3, r4, r5, pc}
 246              		.section	.text.xQueueGenericReset,"ax",%progbits
 247              		.align	1
 248              		.global	xQueueGenericReset
 249              		.syntax unified
 250              		.thumb
 251              		.thumb_func
 253              	xQueueGenericReset:
 254              		@ args = 0, pretend = 0, frame = 0
 255              		@ frame_needed = 0, uses_anonymous_args = 0
 256 0000 38B5     		push	{r3, r4, r5, lr}
 257 0002 E0B1     		cbz	r0, .L47
 258 0004 0D46     		mov	r5, r1
 259 0006 0446     		mov	r4, r0
 260 0008 FFF7FEFF 		bl	vPortEnterCritical
 261 000c 2368     		ldr	r3, [r4]
 262 000e E26B     		ldr	r2, [r4, #60]
 263 0010 216C     		ldr	r1, [r4, #64]
 264 0012 01FB0230 		mla	r0, r1, r2, r3
 265 0016 A060     		str	r0, [r4, #8]
 266 0018 0020     		movs	r0, #0
 267 001a A063     		str	r0, [r4, #56]
 268 001c 6360     		str	r3, [r4, #4]
 269 001e 013A     		subs	r2, r2, #1
 270 0020 02FB0133 		mla	r3, r2, r1, r3
 271 0024 E360     		str	r3, [r4, #12]
 272 0026 FF23     		movs	r3, #255
 273 0028 84F84430 		strb	r3, [r4, #68]
 274 002c 84F84530 		strb	r3, [r4, #69]
 275 0030 FDB9     		cbnz	r5, .L44
 276 0032 2369     		ldr	r3, [r4, #16]
 277 0034 63B9     		cbnz	r3, .L48
 278              	.L45:
 279 0036 FFF7FEFF 		bl	vPortExitCritical
 280 003a 0120     		movs	r0, #1
 281 003c 38BD     		pop	{r3, r4, r5, pc}
 282              	.L47:
 283              		.syntax unified
 284              	@ 195 "Middlewares/Third_Party/FreeRTOS/Source/portable/GCC/ARM_CM4F/portmacro.h" 1
 285 003e 4FF05003 			mov r3, #80												
 286 0042 83F31188 		msr basepri, r3											
 287 0046 BFF36F8F 		isb														
 288 004a BFF34F8F 		dsb														
 289              	
 290              	@ 0 "" 2
 291              		.thumb
 292              		.syntax unified
 293              	.L43:
 294 004e FEE7     		b	.L43
 295              	.L48:
 296 0050 04F11000 		add	r0, r4, #16
 297 0054 FFF7FEFF 		bl	xTaskRemoveFromEventList
 298 0058 0028     		cmp	r0, #0
ARM GAS  /var/folders/kf/d797ysj14bb1pb7szkr3jbx80000gn/T//ccC7gD5u.s 			page 6


 299 005a ECD0     		beq	.L45
 300 005c 4FF0E023 		mov	r3, #-536813568
 301 0060 4FF08052 		mov	r2, #268435456
 302 0064 C3F8042D 		str	r2, [r3, #3332]
 303              		.syntax unified
 304              	@ 281 "Middlewares/Third_Party/FreeRTOS/Source/queue.c" 1
 305 0068 BFF34F8F 		dsb
 306              	@ 0 "" 2
 307              	@ 281 "Middlewares/Third_Party/FreeRTOS/Source/queue.c" 1
 308 006c BFF36F8F 		isb
 309              	@ 0 "" 2
 310              		.thumb
 311              		.syntax unified
 312 0070 E1E7     		b	.L45
 313              	.L44:
 314 0072 04F11000 		add	r0, r4, #16
 315 0076 FFF7FEFF 		bl	vListInitialise
 316 007a 04F12400 		add	r0, r4, #36
 317 007e FFF7FEFF 		bl	vListInitialise
 318 0082 D8E7     		b	.L45
 320              		.section	.text.prvInitialiseNewQueue,"ax",%progbits
 321              		.align	1
 322              		.syntax unified
 323              		.thumb
 324              		.thumb_func
 326              	prvInitialiseNewQueue:
 327              		@ args = 4, pretend = 0, frame = 0
 328              		@ frame_needed = 0, uses_anonymous_args = 0
 329 0000 08B5     		push	{r3, lr}
 330 0002 0346     		mov	r3, r0
 331 0004 0298     		ldr	r0, [sp, #8]
 332 0006 8C46     		mov	ip, r1
 333 0008 39B9     		cbnz	r1, .L50
 334 000a 0060     		str	r0, [r0]
 335              	.L51:
 336 000c C363     		str	r3, [r0, #60]
 337 000e C0F840C0 		str	ip, [r0, #64]
 338 0012 0121     		movs	r1, #1
 339 0014 FFF7FEFF 		bl	xQueueGenericReset
 340 0018 08BD     		pop	{r3, pc}
 341              	.L50:
 342 001a 0260     		str	r2, [r0]
 343 001c F6E7     		b	.L51
 345              		.section	.text.xQueueGenericCreateStatic,"ax",%progbits
 346              		.align	1
 347              		.global	xQueueGenericCreateStatic
 348              		.syntax unified
 349              		.thumb
 350              		.thumb_func
 352              	xQueueGenericCreateStatic:
 353              		@ args = 4, pretend = 0, frame = 8
 354              		@ frame_needed = 0, uses_anonymous_args = 0
 355 0000 40B9     		cbnz	r0, .L54
 356              		.syntax unified
 357              	@ 195 "Middlewares/Third_Party/FreeRTOS/Source/portable/GCC/ARM_CM4F/portmacro.h" 1
 358 0002 4FF05003 			mov r3, #80												
 359 0006 83F31188 		msr basepri, r3											
ARM GAS  /var/folders/kf/d797ysj14bb1pb7szkr3jbx80000gn/T//ccC7gD5u.s 			page 7


 360 000a BFF36F8F 		isb														
 361 000e BFF34F8F 		dsb														
 362              	
 363              	@ 0 "" 2
 364              		.thumb
 365              		.syntax unified
 366              	.L55:
 367 0012 FEE7     		b	.L55
 368              	.L54:
 369 0014 10B5     		push	{r4, lr}
 370 0016 84B0     		sub	sp, sp, #16
 371 0018 1C46     		mov	r4, r3
 372 001a 8446     		mov	ip, r0
 373 001c 53B1     		cbz	r3, .L66
 374 001e 92B1     		cbz	r2, .L58
 375 0020 89B9     		cbnz	r1, .L58
 376              		.syntax unified
 377              	@ 195 "Middlewares/Third_Party/FreeRTOS/Source/portable/GCC/ARM_CM4F/portmacro.h" 1
 378 0022 4FF05003 			mov r3, #80												
 379 0026 83F31188 		msr basepri, r3											
 380 002a BFF36F8F 		isb														
 381 002e BFF34F8F 		dsb														
 382              	
 383              	@ 0 "" 2
 384              		.thumb
 385              		.syntax unified
 386              	.L59:
 387 0032 FEE7     		b	.L59
 388              	.L66:
 389              		.syntax unified
 390              	@ 195 "Middlewares/Third_Party/FreeRTOS/Source/portable/GCC/ARM_CM4F/portmacro.h" 1
 391 0034 4FF05003 			mov r3, #80												
 392 0038 83F31188 		msr basepri, r3											
 393 003c BFF36F8F 		isb														
 394 0040 BFF34F8F 		dsb														
 395              	
 396              	@ 0 "" 2
 397              		.thumb
 398              		.syntax unified
 399              	.L57:
 400 0044 FEE7     		b	.L57
 401              	.L58:
 402 0046 6AB1     		cbz	r2, .L67
 403              	.L60:
 404 0048 4823     		movs	r3, #72
 405 004a 0393     		str	r3, [sp, #12]
 406 004c 039B     		ldr	r3, [sp, #12]
 407 004e 482B     		cmp	r3, #72
 408 0050 13D0     		beq	.L62
 409              		.syntax unified
 410              	@ 195 "Middlewares/Third_Party/FreeRTOS/Source/portable/GCC/ARM_CM4F/portmacro.h" 1
 411 0052 4FF05003 			mov r3, #80												
 412 0056 83F31188 		msr basepri, r3											
 413 005a BFF36F8F 		isb														
 414 005e BFF34F8F 		dsb														
 415              	
 416              	@ 0 "" 2
ARM GAS  /var/folders/kf/d797ysj14bb1pb7szkr3jbx80000gn/T//ccC7gD5u.s 			page 8


 417              		.thumb
 418              		.syntax unified
 419              	.L63:
 420 0062 FEE7     		b	.L63
 421              	.L67:
 422 0064 0029     		cmp	r1, #0
 423 0066 EFD0     		beq	.L60
 424              		.syntax unified
 425              	@ 195 "Middlewares/Third_Party/FreeRTOS/Source/portable/GCC/ARM_CM4F/portmacro.h" 1
 426 0068 4FF05003 			mov r3, #80												
 427 006c 83F31188 		msr basepri, r3											
 428 0070 BFF36F8F 		isb														
 429 0074 BFF34F8F 		dsb														
 430              	
 431              	@ 0 "" 2
 432              		.thumb
 433              		.syntax unified
 434              	.L61:
 435 0078 FEE7     		b	.L61
 436              	.L62:
 437 007a 039B     		ldr	r3, [sp, #12]
 438 007c 0123     		movs	r3, #1
 439 007e 84F84630 		strb	r3, [r4, #70]
 440 0082 0094     		str	r4, [sp]
 441 0084 9DF81830 		ldrb	r3, [sp, #24]	@ zero_extendqisi2
 442 0088 6046     		mov	r0, ip
 443 008a FFF7FEFF 		bl	prvInitialiseNewQueue
 444 008e 2046     		mov	r0, r4
 445 0090 04B0     		add	sp, sp, #16
 446              		@ sp needed
 447 0092 10BD     		pop	{r4, pc}
 449              		.section	.text.xQueueGenericCreate,"ax",%progbits
 450              		.align	1
 451              		.global	xQueueGenericCreate
 452              		.syntax unified
 453              		.thumb
 454              		.thumb_func
 456              	xQueueGenericCreate:
 457              		@ args = 0, pretend = 0, frame = 0
 458              		@ frame_needed = 0, uses_anonymous_args = 0
 459 0000 40B9     		cbnz	r0, .L69
 460              		.syntax unified
 461              	@ 195 "Middlewares/Third_Party/FreeRTOS/Source/portable/GCC/ARM_CM4F/portmacro.h" 1
 462 0002 4FF05003 			mov r3, #80												
 463 0006 83F31188 		msr basepri, r3											
 464 000a BFF36F8F 		isb														
 465 000e BFF34F8F 		dsb														
 466              	
 467              	@ 0 "" 2
 468              		.thumb
 469              		.syntax unified
 470              	.L70:
 471 0012 FEE7     		b	.L70
 472              	.L69:
 473 0014 F0B5     		push	{r4, r5, r6, r7, lr}
 474 0016 83B0     		sub	sp, sp, #12
 475 0018 1646     		mov	r6, r2
ARM GAS  /var/folders/kf/d797ysj14bb1pb7szkr3jbx80000gn/T//ccC7gD5u.s 			page 9


 476 001a 0446     		mov	r4, r0
 477 001c 0D46     		mov	r5, r1
 478 001e 01FB00F0 		mul	r0, r1, r0
 479 0022 4830     		adds	r0, r0, #72
 480 0024 FFF7FEFF 		bl	pvPortMalloc
 481 0028 0246     		mov	r2, r0
 482 002a 0746     		mov	r7, r0
 483 002c 48B1     		cbz	r0, .L68
 484 002e 0023     		movs	r3, #0
 485 0030 80F84630 		strb	r3, [r0, #70]
 486 0034 0090     		str	r0, [sp]
 487 0036 3346     		mov	r3, r6
 488 0038 4832     		adds	r2, r2, #72
 489 003a 2946     		mov	r1, r5
 490 003c 2046     		mov	r0, r4
 491 003e FFF7FEFF 		bl	prvInitialiseNewQueue
 492              	.L68:
 493 0042 3846     		mov	r0, r7
 494 0044 03B0     		add	sp, sp, #12
 495              		@ sp needed
 496 0046 F0BD     		pop	{r4, r5, r6, r7, pc}
 498              		.section	.text.xQueueGenericSend,"ax",%progbits
 499              		.align	1
 500              		.global	xQueueGenericSend
 501              		.syntax unified
 502              		.thumb
 503              		.thumb_func
 505              	xQueueGenericSend:
 506              		@ args = 0, pretend = 0, frame = 16
 507              		@ frame_needed = 0, uses_anonymous_args = 0
 508 0000 F0B5     		push	{r4, r5, r6, r7, lr}
 509 0002 85B0     		sub	sp, sp, #20
 510 0004 0192     		str	r2, [sp, #4]
 511 0006 88B1     		cbz	r0, .L98
 512 0008 0F46     		mov	r7, r1
 513 000a 1D46     		mov	r5, r3
 514 000c 0446     		mov	r4, r0
 515 000e B1B1     		cbz	r1, .L99
 516              	.L77:
 517 0010 022D     		cmp	r5, #2
 518 0012 20D1     		bne	.L79
 519 0014 E36B     		ldr	r3, [r4, #60]
 520 0016 012B     		cmp	r3, #1
 521 0018 1DD0     		beq	.L79
 522              		.syntax unified
 523              	@ 195 "Middlewares/Third_Party/FreeRTOS/Source/portable/GCC/ARM_CM4F/portmacro.h" 1
 524 001a 4FF05003 			mov r3, #80												
 525 001e 83F31188 		msr basepri, r3											
 526 0022 BFF36F8F 		isb														
 527 0026 BFF34F8F 		dsb														
 528              	
 529              	@ 0 "" 2
 530              		.thumb
 531              		.syntax unified
 532              	.L80:
 533 002a FEE7     		b	.L80
 534              	.L98:
ARM GAS  /var/folders/kf/d797ysj14bb1pb7szkr3jbx80000gn/T//ccC7gD5u.s 			page 10


 535              		.syntax unified
 536              	@ 195 "Middlewares/Third_Party/FreeRTOS/Source/portable/GCC/ARM_CM4F/portmacro.h" 1
 537 002c 4FF05003 			mov r3, #80												
 538 0030 83F31188 		msr basepri, r3											
 539 0034 BFF36F8F 		isb														
 540 0038 BFF34F8F 		dsb														
 541              	
 542              	@ 0 "" 2
 543              		.thumb
 544              		.syntax unified
 545              	.L76:
 546 003c FEE7     		b	.L76
 547              	.L99:
 548 003e 036C     		ldr	r3, [r0, #64]
 549 0040 002B     		cmp	r3, #0
 550 0042 E5D0     		beq	.L77
 551              		.syntax unified
 552              	@ 195 "Middlewares/Third_Party/FreeRTOS/Source/portable/GCC/ARM_CM4F/portmacro.h" 1
 553 0044 4FF05003 			mov r3, #80												
 554 0048 83F31188 		msr basepri, r3											
 555 004c BFF36F8F 		isb														
 556 0050 BFF34F8F 		dsb														
 557              	
 558              	@ 0 "" 2
 559              		.thumb
 560              		.syntax unified
 561              	.L78:
 562 0054 FEE7     		b	.L78
 563              	.L79:
 564 0056 FFF7FEFF 		bl	xTaskGetSchedulerState
 565 005a 0646     		mov	r6, r0
 566 005c 58B9     		cbnz	r0, .L96
 567 005e 019B     		ldr	r3, [sp, #4]
 568 0060 002B     		cmp	r3, #0
 569 0062 48D0     		beq	.L83
 570              		.syntax unified
 571              	@ 195 "Middlewares/Third_Party/FreeRTOS/Source/portable/GCC/ARM_CM4F/portmacro.h" 1
 572 0064 4FF05003 			mov r3, #80												
 573 0068 83F31188 		msr basepri, r3											
 574 006c BFF36F8F 		isb														
 575 0070 BFF34F8F 		dsb														
 576              	
 577              	@ 0 "" 2
 578              		.thumb
 579              		.syntax unified
 580              	.L82:
 581 0074 FEE7     		b	.L82
 582              	.L96:
 583 0076 0026     		movs	r6, #0
 584 0078 3DE0     		b	.L83
 585              	.L84:
 586 007a 2A46     		mov	r2, r5
 587 007c 3946     		mov	r1, r7
 588 007e 2046     		mov	r0, r4
 589 0080 FFF7FEFF 		bl	prvCopyDataToQueue
 590 0084 636A     		ldr	r3, [r4, #36]
 591 0086 7BB9     		cbnz	r3, .L100
ARM GAS  /var/folders/kf/d797ysj14bb1pb7szkr3jbx80000gn/T//ccC7gD5u.s 			page 11


 592 0088 48B1     		cbz	r0, .L87
 593 008a 4FF0E023 		mov	r3, #-536813568
 594 008e 4FF08052 		mov	r2, #268435456
 595 0092 C3F8042D 		str	r2, [r3, #3332]
 596              		.syntax unified
 597              	@ 858 "Middlewares/Third_Party/FreeRTOS/Source/queue.c" 1
 598 0096 BFF34F8F 		dsb
 599              	@ 0 "" 2
 600              	@ 858 "Middlewares/Third_Party/FreeRTOS/Source/queue.c" 1
 601 009a BFF36F8F 		isb
 602              	@ 0 "" 2
 603              		.thumb
 604              		.syntax unified
 605              	.L87:
 606 009e FFF7FEFF 		bl	vPortExitCritical
 607 00a2 0120     		movs	r0, #1
 608              	.L74:
 609 00a4 05B0     		add	sp, sp, #20
 610              		@ sp needed
 611 00a6 F0BD     		pop	{r4, r5, r6, r7, pc}
 612              	.L100:
 613 00a8 04F12400 		add	r0, r4, #36
 614 00ac FFF7FEFF 		bl	xTaskRemoveFromEventList
 615 00b0 0028     		cmp	r0, #0
 616 00b2 F4D0     		beq	.L87
 617 00b4 4FF0E023 		mov	r3, #-536813568
 618 00b8 4FF08052 		mov	r2, #268435456
 619 00bc C3F8042D 		str	r2, [r3, #3332]
 620              		.syntax unified
 621              	@ 845 "Middlewares/Third_Party/FreeRTOS/Source/queue.c" 1
 622 00c0 BFF34F8F 		dsb
 623              	@ 0 "" 2
 624              	@ 845 "Middlewares/Third_Party/FreeRTOS/Source/queue.c" 1
 625 00c4 BFF36F8F 		isb
 626              	@ 0 "" 2
 627              		.thumb
 628              		.syntax unified
 629 00c8 E9E7     		b	.L87
 630              	.L101:
 631 00ca FFF7FEFF 		bl	vPortExitCritical
 632 00ce 0020     		movs	r0, #0
 633 00d0 E8E7     		b	.L74
 634              	.L102:
 635 00d2 02A8     		add	r0, sp, #8
 636 00d4 FFF7FEFF 		bl	vTaskInternalSetTimeOutState
 637 00d8 0126     		movs	r6, #1
 638 00da 19E0     		b	.L90
 639              	.L103:
 640 00dc 0023     		movs	r3, #0
 641 00de 84F84430 		strb	r3, [r4, #68]
 642 00e2 21E0     		b	.L91
 643              	.L104:
 644 00e4 0023     		movs	r3, #0
 645 00e6 84F84530 		strb	r3, [r4, #69]
 646 00ea 23E0     		b	.L92
 647              	.L94:
 648 00ec 2046     		mov	r0, r4
ARM GAS  /var/folders/kf/d797ysj14bb1pb7szkr3jbx80000gn/T//ccC7gD5u.s 			page 12


 649 00ee FFF7FEFF 		bl	prvUnlockQueue
 650 00f2 FFF7FEFF 		bl	xTaskResumeAll
 651              	.L83:
 652 00f6 FFF7FEFF 		bl	vPortEnterCritical
 653 00fa A26B     		ldr	r2, [r4, #56]
 654 00fc E36B     		ldr	r3, [r4, #60]
 655 00fe 9A42     		cmp	r2, r3
 656 0100 BBD3     		bcc	.L84
 657 0102 022D     		cmp	r5, #2
 658 0104 B9D0     		beq	.L84
 659 0106 019B     		ldr	r3, [sp, #4]
 660 0108 002B     		cmp	r3, #0
 661 010a DED0     		beq	.L101
 662 010c 002E     		cmp	r6, #0
 663 010e E0D0     		beq	.L102
 664              	.L90:
 665 0110 FFF7FEFF 		bl	vPortExitCritical
 666 0114 FFF7FEFF 		bl	vTaskSuspendAll
 667 0118 FFF7FEFF 		bl	vPortEnterCritical
 668 011c 94F84420 		ldrb	r2, [r4, #68]	@ zero_extendqisi2
 669 0120 52B2     		sxtb	r2, r2
 670 0122 B2F1FF3F 		cmp	r2, #-1
 671 0126 D9D0     		beq	.L103
 672              	.L91:
 673 0128 94F84520 		ldrb	r2, [r4, #69]	@ zero_extendqisi2
 674 012c 52B2     		sxtb	r2, r2
 675 012e B2F1FF3F 		cmp	r2, #-1
 676 0132 D7D0     		beq	.L104
 677              	.L92:
 678 0134 FFF7FEFF 		bl	vPortExitCritical
 679 0138 01A9     		add	r1, sp, #4
 680 013a 02A8     		add	r0, sp, #8
 681 013c FFF7FEFF 		bl	xTaskCheckForTimeOut
 682 0140 D8B9     		cbnz	r0, .L93
 683 0142 2046     		mov	r0, r4
 684 0144 FFF7FEFF 		bl	prvIsQueueFull
 685 0148 0028     		cmp	r0, #0
 686 014a CFD0     		beq	.L94
 687 014c 0199     		ldr	r1, [sp, #4]
 688 014e 04F11000 		add	r0, r4, #16
 689 0152 FFF7FEFF 		bl	vTaskPlaceOnEventList
 690 0156 2046     		mov	r0, r4
 691 0158 FFF7FEFF 		bl	prvUnlockQueue
 692 015c FFF7FEFF 		bl	xTaskResumeAll
 693 0160 0028     		cmp	r0, #0
 694 0162 C8D1     		bne	.L83
 695 0164 4FF0E023 		mov	r3, #-536813568
 696 0168 4FF08052 		mov	r2, #268435456
 697 016c C3F8042D 		str	r2, [r3, #3332]
 698              		.syntax unified
 699              	@ 927 "Middlewares/Third_Party/FreeRTOS/Source/queue.c" 1
 700 0170 BFF34F8F 		dsb
 701              	@ 0 "" 2
 702              	@ 927 "Middlewares/Third_Party/FreeRTOS/Source/queue.c" 1
 703 0174 BFF36F8F 		isb
 704              	@ 0 "" 2
 705              		.thumb
ARM GAS  /var/folders/kf/d797ysj14bb1pb7szkr3jbx80000gn/T//ccC7gD5u.s 			page 13


 706              		.syntax unified
 707 0178 BDE7     		b	.L83
 708              	.L93:
 709 017a 2046     		mov	r0, r4
 710 017c FFF7FEFF 		bl	prvUnlockQueue
 711 0180 FFF7FEFF 		bl	xTaskResumeAll
 712 0184 0020     		movs	r0, #0
 713 0186 8DE7     		b	.L74
 715              		.section	.text.prvInitialiseMutex,"ax",%progbits
 716              		.align	1
 717              		.syntax unified
 718              		.thumb
 719              		.thumb_func
 721              	prvInitialiseMutex:
 722              		@ args = 0, pretend = 0, frame = 0
 723              		@ frame_needed = 0, uses_anonymous_args = 0
 724 0000 48B1     		cbz	r0, .L108
 725 0002 08B5     		push	{r3, lr}
 726 0004 0021     		movs	r1, #0
 727 0006 8160     		str	r1, [r0, #8]
 728 0008 0160     		str	r1, [r0]
 729 000a C160     		str	r1, [r0, #12]
 730 000c 0B46     		mov	r3, r1
 731 000e 0A46     		mov	r2, r1
 732 0010 FFF7FEFF 		bl	xQueueGenericSend
 733 0014 08BD     		pop	{r3, pc}
 734              	.L108:
 735 0016 7047     		bx	lr
 737              		.section	.text.xQueueCreateMutex,"ax",%progbits
 738              		.align	1
 739              		.global	xQueueCreateMutex
 740              		.syntax unified
 741              		.thumb
 742              		.thumb_func
 744              	xQueueCreateMutex:
 745              		@ args = 0, pretend = 0, frame = 0
 746              		@ frame_needed = 0, uses_anonymous_args = 0
 747 0000 10B5     		push	{r4, lr}
 748 0002 0246     		mov	r2, r0
 749 0004 0021     		movs	r1, #0
 750 0006 0120     		movs	r0, #1
 751 0008 FFF7FEFF 		bl	xQueueGenericCreate
 752 000c 0446     		mov	r4, r0
 753 000e FFF7FEFF 		bl	prvInitialiseMutex
 754 0012 2046     		mov	r0, r4
 755 0014 10BD     		pop	{r4, pc}
 757              		.section	.text.xQueueCreateMutexStatic,"ax",%progbits
 758              		.align	1
 759              		.global	xQueueCreateMutexStatic
 760              		.syntax unified
 761              		.thumb
 762              		.thumb_func
 764              	xQueueCreateMutexStatic:
 765              		@ args = 0, pretend = 0, frame = 0
 766              		@ frame_needed = 0, uses_anonymous_args = 0
 767 0000 10B5     		push	{r4, lr}
 768 0002 82B0     		sub	sp, sp, #8
ARM GAS  /var/folders/kf/d797ysj14bb1pb7szkr3jbx80000gn/T//ccC7gD5u.s 			page 14


 769 0004 0B46     		mov	r3, r1
 770 0006 0090     		str	r0, [sp]
 771 0008 0022     		movs	r2, #0
 772 000a 1146     		mov	r1, r2
 773 000c 0120     		movs	r0, #1
 774 000e FFF7FEFF 		bl	xQueueGenericCreateStatic
 775 0012 0446     		mov	r4, r0
 776 0014 FFF7FEFF 		bl	prvInitialiseMutex
 777 0018 2046     		mov	r0, r4
 778 001a 02B0     		add	sp, sp, #8
 779              		@ sp needed
 780 001c 10BD     		pop	{r4, pc}
 782              		.section	.text.xQueueGenericSendFromISR,"ax",%progbits
 783              		.align	1
 784              		.global	xQueueGenericSendFromISR
 785              		.syntax unified
 786              		.thumb
 787              		.thumb_func
 789              	xQueueGenericSendFromISR:
 790              		@ args = 0, pretend = 0, frame = 0
 791              		@ frame_needed = 0, uses_anonymous_args = 0
 792 0000 2DE9F843 		push	{r3, r4, r5, r6, r7, r8, r9, lr}
 793 0004 90B1     		cbz	r0, .L130
 794 0006 0F46     		mov	r7, r1
 795 0008 9046     		mov	r8, r2
 796 000a 1E46     		mov	r6, r3
 797 000c 0446     		mov	r4, r0
 798 000e B1B1     		cbz	r1, .L131
 799              	.L118:
 800 0010 022E     		cmp	r6, #2
 801 0012 20D1     		bne	.L120
 802 0014 E36B     		ldr	r3, [r4, #60]
 803 0016 012B     		cmp	r3, #1
 804 0018 1DD0     		beq	.L120
 805              		.syntax unified
 806              	@ 195 "Middlewares/Third_Party/FreeRTOS/Source/portable/GCC/ARM_CM4F/portmacro.h" 1
 807 001a 4FF05003 			mov r3, #80												
 808 001e 83F31188 		msr basepri, r3											
 809 0022 BFF36F8F 		isb														
 810 0026 BFF34F8F 		dsb														
 811              	
 812              	@ 0 "" 2
 813              		.thumb
 814              		.syntax unified
 815              	.L121:
 816 002a FEE7     		b	.L121
 817              	.L130:
 818              		.syntax unified
 819              	@ 195 "Middlewares/Third_Party/FreeRTOS/Source/portable/GCC/ARM_CM4F/portmacro.h" 1
 820 002c 4FF05003 			mov r3, #80												
 821 0030 83F31188 		msr basepri, r3											
 822 0034 BFF36F8F 		isb														
 823 0038 BFF34F8F 		dsb														
 824              	
 825              	@ 0 "" 2
 826              		.thumb
 827              		.syntax unified
ARM GAS  /var/folders/kf/d797ysj14bb1pb7szkr3jbx80000gn/T//ccC7gD5u.s 			page 15


 828              	.L117:
 829 003c FEE7     		b	.L117
 830              	.L131:
 831 003e 036C     		ldr	r3, [r0, #64]
 832 0040 002B     		cmp	r3, #0
 833 0042 E5D0     		beq	.L118
 834              		.syntax unified
 835              	@ 195 "Middlewares/Third_Party/FreeRTOS/Source/portable/GCC/ARM_CM4F/portmacro.h" 1
 836 0044 4FF05003 			mov r3, #80												
 837 0048 83F31188 		msr basepri, r3											
 838 004c BFF36F8F 		isb														
 839 0050 BFF34F8F 		dsb														
 840              	
 841              	@ 0 "" 2
 842              		.thumb
 843              		.syntax unified
 844              	.L119:
 845 0054 FEE7     		b	.L119
 846              	.L120:
 847 0056 FFF7FEFF 		bl	vPortValidateInterruptPriority
 848              		.syntax unified
 849              	@ 211 "Middlewares/Third_Party/FreeRTOS/Source/portable/GCC/ARM_CM4F/portmacro.h" 1
 850 005a EFF31183 			mrs r3, basepri											
 851 005e 4FF05002 		mov r2, #80												
 852 0062 82F31188 		msr basepri, r2											
 853 0066 BFF36F8F 		isb														
 854 006a BFF34F8F 		dsb														
 855              	
 856              	@ 0 "" 2
 857              		.thumb
 858              		.syntax unified
 859 006e 9946     		mov	r9, r3
 860 0070 A26B     		ldr	r2, [r4, #56]
 861 0072 E36B     		ldr	r3, [r4, #60]
 862 0074 9A42     		cmp	r2, r3
 863 0076 06D3     		bcc	.L122
 864 0078 022E     		cmp	r6, #2
 865 007a 04D0     		beq	.L122
 866 007c 0020     		movs	r0, #0
 867              	.L123:
 868              		.syntax unified
 869              	@ 229 "Middlewares/Third_Party/FreeRTOS/Source/portable/GCC/ARM_CM4F/portmacro.h" 1
 870 007e 89F31188 			msr basepri, r9	
 871              	@ 0 "" 2
 872              		.thumb
 873              		.syntax unified
 874 0082 BDE8F883 		pop	{r3, r4, r5, r6, r7, r8, r9, pc}
 875              	.L122:
 876 0086 94F84530 		ldrb	r3, [r4, #69]	@ zero_extendqisi2
 877 008a 5DB2     		sxtb	r5, r3
 878 008c A36B     		ldr	r3, [r4, #56]
 879 008e 3246     		mov	r2, r6
 880 0090 3946     		mov	r1, r7
 881 0092 2046     		mov	r0, r4
 882 0094 FFF7FEFF 		bl	prvCopyDataToQueue
 883 0098 B5F1FF3F 		cmp	r5, #-1
 884 009c 06D0     		beq	.L132
ARM GAS  /var/folders/kf/d797ysj14bb1pb7szkr3jbx80000gn/T//ccC7gD5u.s 			page 16


 885 009e 2B46     		mov	r3, r5
 886 00a0 0133     		adds	r3, r3, #1
 887 00a2 5BB2     		sxtb	r3, r3
 888 00a4 84F84530 		strb	r3, [r4, #69]
 889 00a8 0120     		movs	r0, #1
 890 00aa E8E7     		b	.L123
 891              	.L132:
 892 00ac 636A     		ldr	r3, [r4, #36]
 893 00ae 0BB9     		cbnz	r3, .L133
 894 00b0 0120     		movs	r0, #1
 895 00b2 E4E7     		b	.L123
 896              	.L133:
 897 00b4 04F12400 		add	r0, r4, #36
 898 00b8 FFF7FEFF 		bl	xTaskRemoveFromEventList
 899 00bc 28B1     		cbz	r0, .L127
 900 00be 4346     		mov	r3, r8
 901 00c0 2BB1     		cbz	r3, .L128
 902 00c2 0120     		movs	r0, #1
 903 00c4 C8F80000 		str	r0, [r8]
 904 00c8 D9E7     		b	.L123
 905              	.L127:
 906 00ca 0120     		movs	r0, #1
 907 00cc D7E7     		b	.L123
 908              	.L128:
 909 00ce 0120     		movs	r0, #1
 910 00d0 D5E7     		b	.L123
 912              		.section	.text.xQueueGiveFromISR,"ax",%progbits
 913              		.align	1
 914              		.global	xQueueGiveFromISR
 915              		.syntax unified
 916              		.thumb
 917              		.thumb_func
 919              	xQueueGiveFromISR:
 920              		@ args = 0, pretend = 0, frame = 0
 921              		@ frame_needed = 0, uses_anonymous_args = 0
 922 0000 68B1     		cbz	r0, .L149
 923 0002 70B5     		push	{r4, r5, r6, lr}
 924 0004 0D46     		mov	r5, r1
 925 0006 0446     		mov	r4, r0
 926 0008 036C     		ldr	r3, [r0, #64]
 927 000a 8BB1     		cbz	r3, .L137
 928              		.syntax unified
 929              	@ 195 "Middlewares/Third_Party/FreeRTOS/Source/portable/GCC/ARM_CM4F/portmacro.h" 1
 930 000c 4FF05003 			mov r3, #80												
 931 0010 83F31188 		msr basepri, r3											
 932 0014 BFF36F8F 		isb														
 933 0018 BFF34F8F 		dsb														
 934              	
 935              	@ 0 "" 2
 936              		.thumb
 937              		.syntax unified
 938              	.L138:
 939 001c FEE7     		b	.L138
 940              	.L149:
 941              		.syntax unified
 942              	@ 195 "Middlewares/Third_Party/FreeRTOS/Source/portable/GCC/ARM_CM4F/portmacro.h" 1
 943 001e 4FF05003 			mov r3, #80												
ARM GAS  /var/folders/kf/d797ysj14bb1pb7szkr3jbx80000gn/T//ccC7gD5u.s 			page 17


 944 0022 83F31188 		msr basepri, r3											
 945 0026 BFF36F8F 		isb														
 946 002a BFF34F8F 		dsb														
 947              	
 948              	@ 0 "" 2
 949              		.thumb
 950              		.syntax unified
 951              	.L136:
 952 002e FEE7     		b	.L136
 953              	.L137:
 954 0030 0368     		ldr	r3, [r0]
 955 0032 F3B1     		cbz	r3, .L150
 956              	.L139:
 957 0034 FFF7FEFF 		bl	vPortValidateInterruptPriority
 958              		.syntax unified
 959              	@ 211 "Middlewares/Third_Party/FreeRTOS/Source/portable/GCC/ARM_CM4F/portmacro.h" 1
 960 0038 EFF31183 			mrs r3, basepri											
 961 003c 4FF05002 		mov r2, #80												
 962 0040 82F31188 		msr basepri, r2											
 963 0044 BFF36F8F 		isb														
 964 0048 BFF34F8F 		dsb														
 965              	
 966              	@ 0 "" 2
 967              		.thumb
 968              		.syntax unified
 969 004c 1E46     		mov	r6, r3
 970 004e A26B     		ldr	r2, [r4, #56]
 971 0050 E36B     		ldr	r3, [r4, #60]
 972 0052 9342     		cmp	r3, r2
 973 0054 26D9     		bls	.L143
 974 0056 94F84530 		ldrb	r3, [r4, #69]	@ zero_extendqisi2
 975 005a 5BB2     		sxtb	r3, r3
 976 005c 0132     		adds	r2, r2, #1
 977 005e A263     		str	r2, [r4, #56]
 978 0060 B3F1FF3F 		cmp	r3, #-1
 979 0064 11D0     		beq	.L151
 980 0066 0133     		adds	r3, r3, #1
 981 0068 5BB2     		sxtb	r3, r3
 982 006a 84F84530 		strb	r3, [r4, #69]
 983 006e 0120     		movs	r0, #1
 984 0070 19E0     		b	.L141
 985              	.L150:
 986 0072 8368     		ldr	r3, [r0, #8]
 987 0074 002B     		cmp	r3, #0
 988 0076 DDD0     		beq	.L139
 989              		.syntax unified
 990              	@ 195 "Middlewares/Third_Party/FreeRTOS/Source/portable/GCC/ARM_CM4F/portmacro.h" 1
 991 0078 4FF05003 			mov r3, #80												
 992 007c 83F31188 		msr basepri, r3											
 993 0080 BFF36F8F 		isb														
 994 0084 BFF34F8F 		dsb														
 995              	
 996              	@ 0 "" 2
 997              		.thumb
 998              		.syntax unified
 999              	.L140:
 1000 0088 FEE7     		b	.L140
ARM GAS  /var/folders/kf/d797ysj14bb1pb7szkr3jbx80000gn/T//ccC7gD5u.s 			page 18


 1001              	.L151:
 1002 008a 636A     		ldr	r3, [r4, #36]
 1003 008c 0BB9     		cbnz	r3, .L152
 1004 008e 0120     		movs	r0, #1
 1005 0090 09E0     		b	.L141
 1006              	.L152:
 1007 0092 04F12400 		add	r0, r4, #36
 1008 0096 FFF7FEFF 		bl	xTaskRemoveFromEventList
 1009 009a 38B1     		cbz	r0, .L145
 1010 009c 45B1     		cbz	r5, .L146
 1011 009e 0120     		movs	r0, #1
 1012 00a0 2860     		str	r0, [r5]
 1013 00a2 00E0     		b	.L141
 1014              	.L143:
 1015 00a4 0020     		movs	r0, #0
 1016              	.L141:
 1017              		.syntax unified
 1018              	@ 229 "Middlewares/Third_Party/FreeRTOS/Source/portable/GCC/ARM_CM4F/portmacro.h" 1
 1019 00a6 86F31188 			msr basepri, r6	
 1020              	@ 0 "" 2
 1021              		.thumb
 1022              		.syntax unified
 1023 00aa 70BD     		pop	{r4, r5, r6, pc}
 1024              	.L145:
 1025 00ac 0120     		movs	r0, #1
 1026 00ae FAE7     		b	.L141
 1027              	.L146:
 1028 00b0 0120     		movs	r0, #1
 1029 00b2 F8E7     		b	.L141
 1031              		.section	.text.xQueueReceive,"ax",%progbits
 1032              		.align	1
 1033              		.global	xQueueReceive
 1034              		.syntax unified
 1035              		.thumb
 1036              		.thumb_func
 1038              	xQueueReceive:
 1039              		@ args = 0, pretend = 0, frame = 16
 1040              		@ frame_needed = 0, uses_anonymous_args = 0
 1041 0000 F0B5     		push	{r4, r5, r6, r7, lr}
 1042 0002 85B0     		sub	sp, sp, #20
 1043 0004 0192     		str	r2, [sp, #4]
 1044 0006 90B1     		cbz	r0, .L173
 1045 0008 0F46     		mov	r7, r1
 1046 000a 0446     		mov	r4, r0
 1047 000c C1B1     		cbz	r1, .L174
 1048              	.L156:
 1049 000e FFF7FEFF 		bl	xTaskGetSchedulerState
 1050 0012 0646     		mov	r6, r0
 1051 0014 00BB     		cbnz	r0, .L171
 1052 0016 019B     		ldr	r3, [sp, #4]
 1053 0018 002B     		cmp	r3, #0
 1054 001a 5ED0     		beq	.L160
 1055              		.syntax unified
 1056              	@ 195 "Middlewares/Third_Party/FreeRTOS/Source/portable/GCC/ARM_CM4F/portmacro.h" 1
 1057 001c 4FF05003 			mov r3, #80												
 1058 0020 83F31188 		msr basepri, r3											
 1059 0024 BFF36F8F 		isb														
ARM GAS  /var/folders/kf/d797ysj14bb1pb7szkr3jbx80000gn/T//ccC7gD5u.s 			page 19


 1060 0028 BFF34F8F 		dsb														
 1061              	
 1062              	@ 0 "" 2
 1063              		.thumb
 1064              		.syntax unified
 1065              	.L159:
 1066 002c FEE7     		b	.L159
 1067              	.L173:
 1068              		.syntax unified
 1069              	@ 195 "Middlewares/Third_Party/FreeRTOS/Source/portable/GCC/ARM_CM4F/portmacro.h" 1
 1070 002e 4FF05003 			mov r3, #80												
 1071 0032 83F31188 		msr basepri, r3											
 1072 0036 BFF36F8F 		isb														
 1073 003a BFF34F8F 		dsb														
 1074              	
 1075              	@ 0 "" 2
 1076              		.thumb
 1077              		.syntax unified
 1078              	.L155:
 1079 003e FEE7     		b	.L155
 1080              	.L174:
 1081 0040 036C     		ldr	r3, [r0, #64]
 1082 0042 002B     		cmp	r3, #0
 1083 0044 E3D0     		beq	.L156
 1084              		.syntax unified
 1085              	@ 195 "Middlewares/Third_Party/FreeRTOS/Source/portable/GCC/ARM_CM4F/portmacro.h" 1
 1086 0046 4FF05003 			mov r3, #80												
 1087 004a 83F31188 		msr basepri, r3											
 1088 004e BFF36F8F 		isb														
 1089 0052 BFF34F8F 		dsb														
 1090              	
 1091              	@ 0 "" 2
 1092              		.thumb
 1093              		.syntax unified
 1094              	.L157:
 1095 0056 FEE7     		b	.L157
 1096              	.L171:
 1097 0058 0026     		movs	r6, #0
 1098 005a 3EE0     		b	.L160
 1099              	.L177:
 1100 005c 3946     		mov	r1, r7
 1101 005e 2046     		mov	r0, r4
 1102 0060 FFF7FEFF 		bl	prvCopyDataFromQueue
 1103 0064 013D     		subs	r5, r5, #1
 1104 0066 A563     		str	r5, [r4, #56]
 1105 0068 2369     		ldr	r3, [r4, #16]
 1106 006a 23B9     		cbnz	r3, .L175
 1107              	.L162:
 1108 006c FFF7FEFF 		bl	vPortExitCritical
 1109 0070 0120     		movs	r0, #1
 1110              	.L153:
 1111 0072 05B0     		add	sp, sp, #20
 1112              		@ sp needed
 1113 0074 F0BD     		pop	{r4, r5, r6, r7, pc}
 1114              	.L175:
 1115 0076 04F11000 		add	r0, r4, #16
 1116 007a FFF7FEFF 		bl	xTaskRemoveFromEventList
ARM GAS  /var/folders/kf/d797ysj14bb1pb7szkr3jbx80000gn/T//ccC7gD5u.s 			page 20


 1117 007e 0028     		cmp	r0, #0
 1118 0080 F4D0     		beq	.L162
 1119 0082 4FF0E023 		mov	r3, #-536813568
 1120 0086 4FF08052 		mov	r2, #268435456
 1121 008a C3F8042D 		str	r2, [r3, #3332]
 1122              		.syntax unified
 1123              	@ 1323 "Middlewares/Third_Party/FreeRTOS/Source/queue.c" 1
 1124 008e BFF34F8F 		dsb
 1125              	@ 0 "" 2
 1126              	@ 1323 "Middlewares/Third_Party/FreeRTOS/Source/queue.c" 1
 1127 0092 BFF36F8F 		isb
 1128              	@ 0 "" 2
 1129              		.thumb
 1130              		.syntax unified
 1131 0096 E9E7     		b	.L162
 1132              	.L178:
 1133 0098 FFF7FEFF 		bl	vPortExitCritical
 1134 009c 2846     		mov	r0, r5
 1135 009e E8E7     		b	.L153
 1136              	.L179:
 1137 00a0 02A8     		add	r0, sp, #8
 1138 00a2 FFF7FEFF 		bl	vTaskInternalSetTimeOutState
 1139 00a6 0126     		movs	r6, #1
 1140 00a8 21E0     		b	.L165
 1141              	.L180:
 1142 00aa 0023     		movs	r3, #0
 1143 00ac 84F84430 		strb	r3, [r4, #68]
 1144 00b0 29E0     		b	.L166
 1145              	.L181:
 1146 00b2 0023     		movs	r3, #0
 1147 00b4 84F84530 		strb	r3, [r4, #69]
 1148 00b8 2BE0     		b	.L167
 1149              	.L169:
 1150 00ba 2046     		mov	r0, r4
 1151 00bc FFF7FEFF 		bl	prvUnlockQueue
 1152 00c0 FFF7FEFF 		bl	xTaskResumeAll
 1153 00c4 09E0     		b	.L160
 1154              	.L168:
 1155 00c6 2046     		mov	r0, r4
 1156 00c8 FFF7FEFF 		bl	prvUnlockQueue
 1157 00cc FFF7FEFF 		bl	xTaskResumeAll
 1158 00d0 2046     		mov	r0, r4
 1159 00d2 FFF7FEFF 		bl	prvIsQueueEmpty
 1160 00d6 0028     		cmp	r0, #0
 1161 00d8 3FD1     		bne	.L176
 1162              	.L160:
 1163 00da FFF7FEFF 		bl	vPortEnterCritical
 1164 00de A56B     		ldr	r5, [r4, #56]
 1165 00e0 002D     		cmp	r5, #0
 1166 00e2 BBD1     		bne	.L177
 1167 00e4 019B     		ldr	r3, [sp, #4]
 1168 00e6 002B     		cmp	r3, #0
 1169 00e8 D6D0     		beq	.L178
 1170 00ea 002E     		cmp	r6, #0
 1171 00ec D8D0     		beq	.L179
 1172              	.L165:
 1173 00ee FFF7FEFF 		bl	vPortExitCritical
ARM GAS  /var/folders/kf/d797ysj14bb1pb7szkr3jbx80000gn/T//ccC7gD5u.s 			page 21


 1174 00f2 FFF7FEFF 		bl	vTaskSuspendAll
 1175 00f6 FFF7FEFF 		bl	vPortEnterCritical
 1176 00fa 94F84430 		ldrb	r3, [r4, #68]	@ zero_extendqisi2
 1177 00fe 5BB2     		sxtb	r3, r3
 1178 0100 B3F1FF3F 		cmp	r3, #-1
 1179 0104 D1D0     		beq	.L180
 1180              	.L166:
 1181 0106 94F84530 		ldrb	r3, [r4, #69]	@ zero_extendqisi2
 1182 010a 5BB2     		sxtb	r3, r3
 1183 010c B3F1FF3F 		cmp	r3, #-1
 1184 0110 CFD0     		beq	.L181
 1185              	.L167:
 1186 0112 FFF7FEFF 		bl	vPortExitCritical
 1187 0116 01A9     		add	r1, sp, #4
 1188 0118 02A8     		add	r0, sp, #8
 1189 011a FFF7FEFF 		bl	xTaskCheckForTimeOut
 1190 011e 0028     		cmp	r0, #0
 1191 0120 D1D1     		bne	.L168
 1192 0122 2046     		mov	r0, r4
 1193 0124 FFF7FEFF 		bl	prvIsQueueEmpty
 1194 0128 0028     		cmp	r0, #0
 1195 012a C6D0     		beq	.L169
 1196 012c 0199     		ldr	r1, [sp, #4]
 1197 012e 04F12400 		add	r0, r4, #36
 1198 0132 FFF7FEFF 		bl	vTaskPlaceOnEventList
 1199 0136 2046     		mov	r0, r4
 1200 0138 FFF7FEFF 		bl	prvUnlockQueue
 1201 013c FFF7FEFF 		bl	xTaskResumeAll
 1202 0140 0028     		cmp	r0, #0
 1203 0142 CAD1     		bne	.L160
 1204 0144 4FF0E023 		mov	r3, #-536813568
 1205 0148 4FF08052 		mov	r2, #268435456
 1206 014c C3F8042D 		str	r2, [r3, #3332]
 1207              		.syntax unified
 1208              	@ 1382 "Middlewares/Third_Party/FreeRTOS/Source/queue.c" 1
 1209 0150 BFF34F8F 		dsb
 1210              	@ 0 "" 2
 1211              	@ 1382 "Middlewares/Third_Party/FreeRTOS/Source/queue.c" 1
 1212 0154 BFF36F8F 		isb
 1213              	@ 0 "" 2
 1214              		.thumb
 1215              		.syntax unified
 1216 0158 BFE7     		b	.L160
 1217              	.L176:
 1218 015a 0020     		movs	r0, #0
 1219 015c 89E7     		b	.L153
 1221              		.section	.text.xQueueSemaphoreTake,"ax",%progbits
 1222              		.align	1
 1223              		.global	xQueueSemaphoreTake
 1224              		.syntax unified
 1225              		.thumb
 1226              		.thumb_func
 1228              	xQueueSemaphoreTake:
 1229              		@ args = 0, pretend = 0, frame = 16
 1230              		@ frame_needed = 0, uses_anonymous_args = 0
 1231 0000 70B5     		push	{r4, r5, r6, lr}
 1232 0002 84B0     		sub	sp, sp, #16
ARM GAS  /var/folders/kf/d797ysj14bb1pb7szkr3jbx80000gn/T//ccC7gD5u.s 			page 22


 1233 0004 0191     		str	r1, [sp, #4]
 1234 0006 58B1     		cbz	r0, .L208
 1235 0008 0446     		mov	r4, r0
 1236 000a 036C     		ldr	r3, [r0, #64]
 1237 000c 8BB1     		cbz	r3, .L185
 1238              		.syntax unified
 1239              	@ 195 "Middlewares/Third_Party/FreeRTOS/Source/portable/GCC/ARM_CM4F/portmacro.h" 1
 1240 000e 4FF05003 			mov r3, #80												
 1241 0012 83F31188 		msr basepri, r3											
 1242 0016 BFF36F8F 		isb														
 1243 001a BFF34F8F 		dsb														
 1244              	
 1245              	@ 0 "" 2
 1246              		.thumb
 1247              		.syntax unified
 1248              	.L186:
 1249 001e FEE7     		b	.L186
 1250              	.L208:
 1251              		.syntax unified
 1252              	@ 195 "Middlewares/Third_Party/FreeRTOS/Source/portable/GCC/ARM_CM4F/portmacro.h" 1
 1253 0020 4FF05003 			mov r3, #80												
 1254 0024 83F31188 		msr basepri, r3											
 1255 0028 BFF36F8F 		isb														
 1256 002c BFF34F8F 		dsb														
 1257              	
 1258              	@ 0 "" 2
 1259              		.thumb
 1260              		.syntax unified
 1261              	.L184:
 1262 0030 FEE7     		b	.L184
 1263              	.L185:
 1264 0032 FFF7FEFF 		bl	xTaskGetSchedulerState
 1265 0036 0546     		mov	r5, r0
 1266 0038 50B9     		cbnz	r0, .L205
 1267 003a 019B     		ldr	r3, [sp, #4]
 1268 003c 63B1     		cbz	r3, .L206
 1269              		.syntax unified
 1270              	@ 195 "Middlewares/Third_Party/FreeRTOS/Source/portable/GCC/ARM_CM4F/portmacro.h" 1
 1271 003e 4FF05003 			mov r3, #80												
 1272 0042 83F31188 		msr basepri, r3											
 1273 0046 BFF36F8F 		isb														
 1274 004a BFF34F8F 		dsb														
 1275              	
 1276              	@ 0 "" 2
 1277              		.thumb
 1278              		.syntax unified
 1279              	.L188:
 1280 004e FEE7     		b	.L188
 1281              	.L205:
 1282 0050 0023     		movs	r3, #0
 1283 0052 1E46     		mov	r6, r3
 1284 0054 1D46     		mov	r5, r3
 1285 0056 56E0     		b	.L189
 1286              	.L206:
 1287 0058 0646     		mov	r6, r0
 1288 005a 54E0     		b	.L189
 1289              	.L212:
ARM GAS  /var/folders/kf/d797ysj14bb1pb7szkr3jbx80000gn/T//ccC7gD5u.s 			page 23


 1290 005c 013B     		subs	r3, r3, #1
 1291 005e A363     		str	r3, [r4, #56]
 1292 0060 2368     		ldr	r3, [r4]
 1293 0062 43B1     		cbz	r3, .L209
 1294              	.L191:
 1295 0064 2369     		ldr	r3, [r4, #16]
 1296 0066 53B9     		cbnz	r3, .L210
 1297              	.L192:
 1298 0068 FFF7FEFF 		bl	vPortExitCritical
 1299 006c 0123     		movs	r3, #1
 1300 006e 1E46     		mov	r6, r3
 1301              	.L182:
 1302 0070 3046     		mov	r0, r6
 1303 0072 04B0     		add	sp, sp, #16
 1304              		@ sp needed
 1305 0074 70BD     		pop	{r4, r5, r6, pc}
 1306              	.L209:
 1307 0076 FFF7FEFF 		bl	pvTaskIncrementMutexHeldCount
 1308 007a A060     		str	r0, [r4, #8]
 1309 007c F2E7     		b	.L191
 1310              	.L210:
 1311 007e 04F11000 		add	r0, r4, #16
 1312 0082 FFF7FEFF 		bl	xTaskRemoveFromEventList
 1313 0086 0028     		cmp	r0, #0
 1314 0088 EED0     		beq	.L192
 1315 008a 4FF0E023 		mov	r3, #-536813568
 1316 008e 4FF08052 		mov	r2, #268435456
 1317 0092 C3F8042D 		str	r2, [r3, #3332]
 1318              		.syntax unified
 1319              	@ 1485 "Middlewares/Third_Party/FreeRTOS/Source/queue.c" 1
 1320 0096 BFF34F8F 		dsb
 1321              	@ 0 "" 2
 1322              	@ 1485 "Middlewares/Third_Party/FreeRTOS/Source/queue.c" 1
 1323 009a BFF36F8F 		isb
 1324              	@ 0 "" 2
 1325              		.thumb
 1326              		.syntax unified
 1327 009e E3E7     		b	.L192
 1328              	.L213:
 1329 00a0 46B1     		cbz	r6, .L195
 1330              		.syntax unified
 1331              	@ 195 "Middlewares/Third_Party/FreeRTOS/Source/portable/GCC/ARM_CM4F/portmacro.h" 1
 1332 00a2 4FF05003 			mov r3, #80												
 1333 00a6 83F31188 		msr basepri, r3											
 1334 00aa BFF36F8F 		isb														
 1335 00ae BFF34F8F 		dsb														
 1336              	
 1337              	@ 0 "" 2
 1338              		.thumb
 1339              		.syntax unified
 1340              	.L196:
 1341 00b2 FEE7     		b	.L196
 1342              	.L195:
 1343 00b4 FFF7FEFF 		bl	vPortExitCritical
 1344 00b8 DAE7     		b	.L182
 1345              	.L214:
 1346 00ba 02A8     		add	r0, sp, #8
ARM GAS  /var/folders/kf/d797ysj14bb1pb7szkr3jbx80000gn/T//ccC7gD5u.s 			page 24


 1347 00bc FFF7FEFF 		bl	vTaskInternalSetTimeOutState
 1348 00c0 0125     		movs	r5, #1
 1349 00c2 2AE0     		b	.L197
 1350              	.L215:
 1351 00c4 0023     		movs	r3, #0
 1352 00c6 84F84430 		strb	r3, [r4, #68]
 1353 00ca 32E0     		b	.L198
 1354              	.L216:
 1355 00cc 0023     		movs	r3, #0
 1356 00ce 84F84530 		strb	r3, [r4, #69]
 1357 00d2 34E0     		b	.L199
 1358              	.L217:
 1359 00d4 FFF7FEFF 		bl	vPortEnterCritical
 1360 00d8 A068     		ldr	r0, [r4, #8]
 1361 00da FFF7FEFF 		bl	xTaskPriorityInherit
 1362 00de 0646     		mov	r6, r0
 1363 00e0 FFF7FEFF 		bl	vPortExitCritical
 1364 00e4 3BE0     		b	.L202
 1365              	.L201:
 1366 00e6 2046     		mov	r0, r4
 1367 00e8 FFF7FEFF 		bl	prvUnlockQueue
 1368 00ec FFF7FEFF 		bl	xTaskResumeAll
 1369 00f0 09E0     		b	.L189
 1370              	.L200:
 1371 00f2 2046     		mov	r0, r4
 1372 00f4 FFF7FEFF 		bl	prvUnlockQueue
 1373 00f8 FFF7FEFF 		bl	xTaskResumeAll
 1374 00fc 2046     		mov	r0, r4
 1375 00fe FFF7FEFF 		bl	prvIsQueueEmpty
 1376 0102 0028     		cmp	r0, #0
 1377 0104 42D1     		bne	.L211
 1378              	.L189:
 1379 0106 FFF7FEFF 		bl	vPortEnterCritical
 1380 010a A36B     		ldr	r3, [r4, #56]
 1381 010c 002B     		cmp	r3, #0
 1382 010e A5D1     		bne	.L212
 1383 0110 019B     		ldr	r3, [sp, #4]
 1384 0112 002B     		cmp	r3, #0
 1385 0114 C4D0     		beq	.L213
 1386 0116 002D     		cmp	r5, #0
 1387 0118 CFD0     		beq	.L214
 1388              	.L197:
 1389 011a FFF7FEFF 		bl	vPortExitCritical
 1390 011e FFF7FEFF 		bl	vTaskSuspendAll
 1391 0122 FFF7FEFF 		bl	vPortEnterCritical
 1392 0126 94F84430 		ldrb	r3, [r4, #68]	@ zero_extendqisi2
 1393 012a 5BB2     		sxtb	r3, r3
 1394 012c B3F1FF3F 		cmp	r3, #-1
 1395 0130 C8D0     		beq	.L215
 1396              	.L198:
 1397 0132 94F84530 		ldrb	r3, [r4, #69]	@ zero_extendqisi2
 1398 0136 5BB2     		sxtb	r3, r3
 1399 0138 B3F1FF3F 		cmp	r3, #-1
 1400 013c C6D0     		beq	.L216
 1401              	.L199:
 1402 013e FFF7FEFF 		bl	vPortExitCritical
 1403 0142 01A9     		add	r1, sp, #4
ARM GAS  /var/folders/kf/d797ysj14bb1pb7szkr3jbx80000gn/T//ccC7gD5u.s 			page 25


 1404 0144 02A8     		add	r0, sp, #8
 1405 0146 FFF7FEFF 		bl	xTaskCheckForTimeOut
 1406 014a 0028     		cmp	r0, #0
 1407 014c D1D1     		bne	.L200
 1408 014e 2046     		mov	r0, r4
 1409 0150 FFF7FEFF 		bl	prvIsQueueEmpty
 1410 0154 0028     		cmp	r0, #0
 1411 0156 C6D0     		beq	.L201
 1412 0158 2368     		ldr	r3, [r4]
 1413 015a 002B     		cmp	r3, #0
 1414 015c BAD0     		beq	.L217
 1415              	.L202:
 1416 015e 0199     		ldr	r1, [sp, #4]
 1417 0160 04F12400 		add	r0, r4, #36
 1418 0164 FFF7FEFF 		bl	vTaskPlaceOnEventList
 1419 0168 2046     		mov	r0, r4
 1420 016a FFF7FEFF 		bl	prvUnlockQueue
 1421 016e FFF7FEFF 		bl	xTaskResumeAll
 1422 0172 0028     		cmp	r0, #0
 1423 0174 C7D1     		bne	.L189
 1424 0176 4FF0E023 		mov	r3, #-536813568
 1425 017a 4FF08052 		mov	r2, #268435456
 1426 017e C3F8042D 		str	r2, [r3, #3332]
 1427              		.syntax unified
 1428              	@ 1573 "Middlewares/Third_Party/FreeRTOS/Source/queue.c" 1
 1429 0182 BFF34F8F 		dsb
 1430              	@ 0 "" 2
 1431              	@ 1573 "Middlewares/Third_Party/FreeRTOS/Source/queue.c" 1
 1432 0186 BFF36F8F 		isb
 1433              	@ 0 "" 2
 1434              		.thumb
 1435              		.syntax unified
 1436 018a BCE7     		b	.L189
 1437              	.L211:
 1438 018c 16B9     		cbnz	r6, .L218
 1439              	.L204:
 1440 018e 0023     		movs	r3, #0
 1441 0190 1E46     		mov	r6, r3
 1442 0192 6DE7     		b	.L182
 1443              	.L218:
 1444 0194 FFF7FEFF 		bl	vPortEnterCritical
 1445 0198 2046     		mov	r0, r4
 1446 019a FFF7FEFF 		bl	prvGetDisinheritPriorityAfterTimeout
 1447 019e 0146     		mov	r1, r0
 1448 01a0 A068     		ldr	r0, [r4, #8]
 1449 01a2 FFF7FEFF 		bl	vTaskPriorityDisinheritAfterTimeout
 1450 01a6 FFF7FEFF 		bl	vPortExitCritical
 1451 01aa F0E7     		b	.L204
 1453              		.section	.text.xQueuePeek,"ax",%progbits
 1454              		.align	1
 1455              		.global	xQueuePeek
 1456              		.syntax unified
 1457              		.thumb
 1458              		.thumb_func
 1460              	xQueuePeek:
 1461              		@ args = 0, pretend = 0, frame = 16
 1462              		@ frame_needed = 0, uses_anonymous_args = 0
ARM GAS  /var/folders/kf/d797ysj14bb1pb7szkr3jbx80000gn/T//ccC7gD5u.s 			page 26


 1463 0000 70B5     		push	{r4, r5, r6, lr}
 1464 0002 84B0     		sub	sp, sp, #16
 1465 0004 0192     		str	r2, [sp, #4]
 1466 0006 90B1     		cbz	r0, .L239
 1467 0008 0E46     		mov	r6, r1
 1468 000a 0446     		mov	r4, r0
 1469 000c C1B1     		cbz	r1, .L240
 1470              	.L222:
 1471 000e FFF7FEFF 		bl	xTaskGetSchedulerState
 1472 0012 0546     		mov	r5, r0
 1473 0014 00BB     		cbnz	r0, .L237
 1474 0016 019B     		ldr	r3, [sp, #4]
 1475 0018 002B     		cmp	r3, #0
 1476 001a 5ED0     		beq	.L226
 1477              		.syntax unified
 1478              	@ 195 "Middlewares/Third_Party/FreeRTOS/Source/portable/GCC/ARM_CM4F/portmacro.h" 1
 1479 001c 4FF05003 			mov r3, #80												
 1480 0020 83F31188 		msr basepri, r3											
 1481 0024 BFF36F8F 		isb														
 1482 0028 BFF34F8F 		dsb														
 1483              	
 1484              	@ 0 "" 2
 1485              		.thumb
 1486              		.syntax unified
 1487              	.L225:
 1488 002c FEE7     		b	.L225
 1489              	.L239:
 1490              		.syntax unified
 1491              	@ 195 "Middlewares/Third_Party/FreeRTOS/Source/portable/GCC/ARM_CM4F/portmacro.h" 1
 1492 002e 4FF05003 			mov r3, #80												
 1493 0032 83F31188 		msr basepri, r3											
 1494 0036 BFF36F8F 		isb														
 1495 003a BFF34F8F 		dsb														
 1496              	
 1497              	@ 0 "" 2
 1498              		.thumb
 1499              		.syntax unified
 1500              	.L221:
 1501 003e FEE7     		b	.L221
 1502              	.L240:
 1503 0040 036C     		ldr	r3, [r0, #64]
 1504 0042 002B     		cmp	r3, #0
 1505 0044 E3D0     		beq	.L222
 1506              		.syntax unified
 1507              	@ 195 "Middlewares/Third_Party/FreeRTOS/Source/portable/GCC/ARM_CM4F/portmacro.h" 1
 1508 0046 4FF05003 			mov r3, #80												
 1509 004a 83F31188 		msr basepri, r3											
 1510 004e BFF36F8F 		isb														
 1511 0052 BFF34F8F 		dsb														
 1512              	
 1513              	@ 0 "" 2
 1514              		.thumb
 1515              		.syntax unified
 1516              	.L223:
 1517 0056 FEE7     		b	.L223
 1518              	.L237:
 1519 0058 0025     		movs	r5, #0
ARM GAS  /var/folders/kf/d797ysj14bb1pb7szkr3jbx80000gn/T//ccC7gD5u.s 			page 27


 1520 005a 3EE0     		b	.L226
 1521              	.L243:
 1522 005c E568     		ldr	r5, [r4, #12]
 1523 005e 3146     		mov	r1, r6
 1524 0060 2046     		mov	r0, r4
 1525 0062 FFF7FEFF 		bl	prvCopyDataFromQueue
 1526 0066 E560     		str	r5, [r4, #12]
 1527 0068 636A     		ldr	r3, [r4, #36]
 1528 006a 23B9     		cbnz	r3, .L241
 1529              	.L228:
 1530 006c FFF7FEFF 		bl	vPortExitCritical
 1531 0070 0120     		movs	r0, #1
 1532              	.L219:
 1533 0072 04B0     		add	sp, sp, #16
 1534              		@ sp needed
 1535 0074 70BD     		pop	{r4, r5, r6, pc}
 1536              	.L241:
 1537 0076 04F12400 		add	r0, r4, #36
 1538 007a FFF7FEFF 		bl	xTaskRemoveFromEventList
 1539 007e 0028     		cmp	r0, #0
 1540 0080 F4D0     		beq	.L228
 1541 0082 4FF0E023 		mov	r3, #-536813568
 1542 0086 4FF08052 		mov	r2, #268435456
 1543 008a C3F8042D 		str	r2, [r3, #3332]
 1544              		.syntax unified
 1545              	@ 1689 "Middlewares/Third_Party/FreeRTOS/Source/queue.c" 1
 1546 008e BFF34F8F 		dsb
 1547              	@ 0 "" 2
 1548              	@ 1689 "Middlewares/Third_Party/FreeRTOS/Source/queue.c" 1
 1549 0092 BFF36F8F 		isb
 1550              	@ 0 "" 2
 1551              		.thumb
 1552              		.syntax unified
 1553 0096 E9E7     		b	.L228
 1554              	.L244:
 1555 0098 FFF7FEFF 		bl	vPortExitCritical
 1556 009c 0020     		movs	r0, #0
 1557 009e E8E7     		b	.L219
 1558              	.L245:
 1559 00a0 02A8     		add	r0, sp, #8
 1560 00a2 FFF7FEFF 		bl	vTaskInternalSetTimeOutState
 1561 00a6 0125     		movs	r5, #1
 1562 00a8 21E0     		b	.L231
 1563              	.L246:
 1564 00aa 0023     		movs	r3, #0
 1565 00ac 84F84430 		strb	r3, [r4, #68]
 1566 00b0 29E0     		b	.L232
 1567              	.L247:
 1568 00b2 0023     		movs	r3, #0
 1569 00b4 84F84530 		strb	r3, [r4, #69]
 1570 00b8 2BE0     		b	.L233
 1571              	.L235:
 1572 00ba 2046     		mov	r0, r4
 1573 00bc FFF7FEFF 		bl	prvUnlockQueue
 1574 00c0 FFF7FEFF 		bl	xTaskResumeAll
 1575 00c4 09E0     		b	.L226
 1576              	.L234:
ARM GAS  /var/folders/kf/d797ysj14bb1pb7szkr3jbx80000gn/T//ccC7gD5u.s 			page 28


 1577 00c6 2046     		mov	r0, r4
 1578 00c8 FFF7FEFF 		bl	prvUnlockQueue
 1579 00cc FFF7FEFF 		bl	xTaskResumeAll
 1580 00d0 2046     		mov	r0, r4
 1581 00d2 FFF7FEFF 		bl	prvIsQueueEmpty
 1582 00d6 0028     		cmp	r0, #0
 1583 00d8 3FD1     		bne	.L242
 1584              	.L226:
 1585 00da FFF7FEFF 		bl	vPortEnterCritical
 1586 00de A36B     		ldr	r3, [r4, #56]
 1587 00e0 002B     		cmp	r3, #0
 1588 00e2 BBD1     		bne	.L243
 1589 00e4 019B     		ldr	r3, [sp, #4]
 1590 00e6 002B     		cmp	r3, #0
 1591 00e8 D6D0     		beq	.L244
 1592 00ea 002D     		cmp	r5, #0
 1593 00ec D8D0     		beq	.L245
 1594              	.L231:
 1595 00ee FFF7FEFF 		bl	vPortExitCritical
 1596 00f2 FFF7FEFF 		bl	vTaskSuspendAll
 1597 00f6 FFF7FEFF 		bl	vPortEnterCritical
 1598 00fa 94F84430 		ldrb	r3, [r4, #68]	@ zero_extendqisi2
 1599 00fe 5BB2     		sxtb	r3, r3
 1600 0100 B3F1FF3F 		cmp	r3, #-1
 1601 0104 D1D0     		beq	.L246
 1602              	.L232:
 1603 0106 94F84530 		ldrb	r3, [r4, #69]	@ zero_extendqisi2
 1604 010a 5BB2     		sxtb	r3, r3
 1605 010c B3F1FF3F 		cmp	r3, #-1
 1606 0110 CFD0     		beq	.L247
 1607              	.L233:
 1608 0112 FFF7FEFF 		bl	vPortExitCritical
 1609 0116 01A9     		add	r1, sp, #4
 1610 0118 02A8     		add	r0, sp, #8
 1611 011a FFF7FEFF 		bl	xTaskCheckForTimeOut
 1612 011e 0028     		cmp	r0, #0
 1613 0120 D1D1     		bne	.L234
 1614 0122 2046     		mov	r0, r4
 1615 0124 FFF7FEFF 		bl	prvIsQueueEmpty
 1616 0128 0028     		cmp	r0, #0
 1617 012a C6D0     		beq	.L235
 1618 012c 0199     		ldr	r1, [sp, #4]
 1619 012e 04F12400 		add	r0, r4, #36
 1620 0132 FFF7FEFF 		bl	vTaskPlaceOnEventList
 1621 0136 2046     		mov	r0, r4
 1622 0138 FFF7FEFF 		bl	prvUnlockQueue
 1623 013c FFF7FEFF 		bl	xTaskResumeAll
 1624 0140 0028     		cmp	r0, #0
 1625 0142 CAD1     		bne	.L226
 1626 0144 4FF0E023 		mov	r3, #-536813568
 1627 0148 4FF08052 		mov	r2, #268435456
 1628 014c C3F8042D 		str	r2, [r3, #3332]
 1629              		.syntax unified
 1630              	@ 1749 "Middlewares/Third_Party/FreeRTOS/Source/queue.c" 1
 1631 0150 BFF34F8F 		dsb
 1632              	@ 0 "" 2
 1633              	@ 1749 "Middlewares/Third_Party/FreeRTOS/Source/queue.c" 1
ARM GAS  /var/folders/kf/d797ysj14bb1pb7szkr3jbx80000gn/T//ccC7gD5u.s 			page 29


 1634 0154 BFF36F8F 		isb
 1635              	@ 0 "" 2
 1636              		.thumb
 1637              		.syntax unified
 1638 0158 BFE7     		b	.L226
 1639              	.L242:
 1640 015a 0020     		movs	r0, #0
 1641 015c 89E7     		b	.L219
 1643              		.section	.text.xQueueReceiveFromISR,"ax",%progbits
 1644              		.align	1
 1645              		.global	xQueueReceiveFromISR
 1646              		.syntax unified
 1647              		.thumb
 1648              		.thumb_func
 1650              	xQueueReceiveFromISR:
 1651              		@ args = 0, pretend = 0, frame = 0
 1652              		@ frame_needed = 0, uses_anonymous_args = 0
 1653 0000 2DE9F843 		push	{r3, r4, r5, r6, r7, r8, r9, lr}
 1654 0004 C0B1     		cbz	r0, .L260
 1655 0006 0E46     		mov	r6, r1
 1656 0008 9046     		mov	r8, r2
 1657 000a 0446     		mov	r4, r0
 1658 000c E9B1     		cbz	r1, .L261
 1659              	.L251:
 1660 000e FFF7FEFF 		bl	vPortValidateInterruptPriority
 1661              		.syntax unified
 1662              	@ 211 "Middlewares/Third_Party/FreeRTOS/Source/portable/GCC/ARM_CM4F/portmacro.h" 1
 1663 0012 EFF31183 			mrs r3, basepri											
 1664 0016 4FF05002 		mov r2, #80												
 1665 001a 82F31188 		msr basepri, r2											
 1666 001e BFF36F8F 		isb														
 1667 0022 BFF34F8F 		dsb														
 1668              	
 1669              	@ 0 "" 2
 1670              		.thumb
 1671              		.syntax unified
 1672 0026 1F46     		mov	r7, r3
 1673 0028 A36B     		ldr	r3, [r4, #56]
 1674 002a 9946     		mov	r9, r3
 1675 002c CBB9     		cbnz	r3, .L262
 1676 002e 1846     		mov	r0, r3
 1677              	.L253:
 1678              		.syntax unified
 1679              	@ 229 "Middlewares/Third_Party/FreeRTOS/Source/portable/GCC/ARM_CM4F/portmacro.h" 1
 1680 0030 87F31188 			msr basepri, r7	
 1681              	@ 0 "" 2
 1682              		.thumb
 1683              		.syntax unified
 1684 0034 BDE8F883 		pop	{r3, r4, r5, r6, r7, r8, r9, pc}
 1685              	.L260:
 1686              		.syntax unified
 1687              	@ 195 "Middlewares/Third_Party/FreeRTOS/Source/portable/GCC/ARM_CM4F/portmacro.h" 1
 1688 0038 4FF05003 			mov r3, #80												
 1689 003c 83F31188 		msr basepri, r3											
 1690 0040 BFF36F8F 		isb														
 1691 0044 BFF34F8F 		dsb														
 1692              	
ARM GAS  /var/folders/kf/d797ysj14bb1pb7szkr3jbx80000gn/T//ccC7gD5u.s 			page 30


 1693              	@ 0 "" 2
 1694              		.thumb
 1695              		.syntax unified
 1696              	.L250:
 1697 0048 FEE7     		b	.L250
 1698              	.L261:
 1699 004a 036C     		ldr	r3, [r0, #64]
 1700 004c 002B     		cmp	r3, #0
 1701 004e DED0     		beq	.L251
 1702              		.syntax unified
 1703              	@ 195 "Middlewares/Third_Party/FreeRTOS/Source/portable/GCC/ARM_CM4F/portmacro.h" 1
 1704 0050 4FF05003 			mov r3, #80												
 1705 0054 83F31188 		msr basepri, r3											
 1706 0058 BFF36F8F 		isb														
 1707 005c BFF34F8F 		dsb														
 1708              	
 1709              	@ 0 "" 2
 1710              		.thumb
 1711              		.syntax unified
 1712              	.L252:
 1713 0060 FEE7     		b	.L252
 1714              	.L262:
 1715 0062 94F84430 		ldrb	r3, [r4, #68]	@ zero_extendqisi2
 1716 0066 5DB2     		sxtb	r5, r3
 1717 0068 3146     		mov	r1, r6
 1718 006a 2046     		mov	r0, r4
 1719 006c FFF7FEFF 		bl	prvCopyDataFromQueue
 1720 0070 09F1FF33 		add	r3, r9, #-1
 1721 0074 A363     		str	r3, [r4, #56]
 1722 0076 B5F1FF3F 		cmp	r5, #-1
 1723 007a 06D0     		beq	.L263
 1724 007c 2B46     		mov	r3, r5
 1725 007e 0133     		adds	r3, r3, #1
 1726 0080 5BB2     		sxtb	r3, r3
 1727 0082 84F84430 		strb	r3, [r4, #68]
 1728 0086 0120     		movs	r0, #1
 1729 0088 D2E7     		b	.L253
 1730              	.L263:
 1731 008a 2369     		ldr	r3, [r4, #16]
 1732 008c 0BB9     		cbnz	r3, .L264
 1733 008e 0120     		movs	r0, #1
 1734 0090 CEE7     		b	.L253
 1735              	.L264:
 1736 0092 04F11000 		add	r0, r4, #16
 1737 0096 FFF7FEFF 		bl	xTaskRemoveFromEventList
 1738 009a 28B1     		cbz	r0, .L257
 1739 009c 4346     		mov	r3, r8
 1740 009e 2BB1     		cbz	r3, .L258
 1741 00a0 0120     		movs	r0, #1
 1742 00a2 C8F80000 		str	r0, [r8]
 1743 00a6 C3E7     		b	.L253
 1744              	.L257:
 1745 00a8 0120     		movs	r0, #1
 1746 00aa C1E7     		b	.L253
 1747              	.L258:
 1748 00ac 0120     		movs	r0, #1
 1749 00ae BFE7     		b	.L253
ARM GAS  /var/folders/kf/d797ysj14bb1pb7szkr3jbx80000gn/T//ccC7gD5u.s 			page 31


 1751              		.section	.text.xQueuePeekFromISR,"ax",%progbits
 1752              		.align	1
 1753              		.global	xQueuePeekFromISR
 1754              		.syntax unified
 1755              		.thumb
 1756              		.thumb_func
 1758              	xQueuePeekFromISR:
 1759              		@ args = 0, pretend = 0, frame = 0
 1760              		@ frame_needed = 0, uses_anonymous_args = 0
 1761 0000 F8B5     		push	{r3, r4, r5, r6, r7, lr}
 1762 0002 68B1     		cbz	r0, .L275
 1763 0004 0E46     		mov	r6, r1
 1764 0006 0446     		mov	r4, r0
 1765 0008 99B1     		cbz	r1, .L276
 1766              	.L268:
 1767 000a 236C     		ldr	r3, [r4, #64]
 1768 000c EBB9     		cbnz	r3, .L270
 1769              		.syntax unified
 1770              	@ 195 "Middlewares/Third_Party/FreeRTOS/Source/portable/GCC/ARM_CM4F/portmacro.h" 1
 1771 000e 4FF05003 			mov r3, #80												
 1772 0012 83F31188 		msr basepri, r3											
 1773 0016 BFF36F8F 		isb														
 1774 001a BFF34F8F 		dsb														
 1775              	
 1776              	@ 0 "" 2
 1777              		.thumb
 1778              		.syntax unified
 1779              	.L271:
 1780 001e FEE7     		b	.L271
 1781              	.L275:
 1782              		.syntax unified
 1783              	@ 195 "Middlewares/Third_Party/FreeRTOS/Source/portable/GCC/ARM_CM4F/portmacro.h" 1
 1784 0020 4FF05003 			mov r3, #80												
 1785 0024 83F31188 		msr basepri, r3											
 1786 0028 BFF36F8F 		isb														
 1787 002c BFF34F8F 		dsb														
 1788              	
 1789              	@ 0 "" 2
 1790              		.thumb
 1791              		.syntax unified
 1792              	.L267:
 1793 0030 FEE7     		b	.L267
 1794              	.L276:
 1795 0032 036C     		ldr	r3, [r0, #64]
 1796 0034 002B     		cmp	r3, #0
 1797 0036 E8D0     		beq	.L268
 1798              		.syntax unified
 1799              	@ 195 "Middlewares/Third_Party/FreeRTOS/Source/portable/GCC/ARM_CM4F/portmacro.h" 1
 1800 0038 4FF05003 			mov r3, #80												
 1801 003c 83F31188 		msr basepri, r3											
 1802 0040 BFF36F8F 		isb														
 1803 0044 BFF34F8F 		dsb														
 1804              	
 1805              	@ 0 "" 2
 1806              		.thumb
 1807              		.syntax unified
 1808              	.L269:
ARM GAS  /var/folders/kf/d797ysj14bb1pb7szkr3jbx80000gn/T//ccC7gD5u.s 			page 32


 1809 0048 FEE7     		b	.L269
 1810              	.L270:
 1811 004a FFF7FEFF 		bl	vPortValidateInterruptPriority
 1812              		.syntax unified
 1813              	@ 211 "Middlewares/Third_Party/FreeRTOS/Source/portable/GCC/ARM_CM4F/portmacro.h" 1
 1814 004e EFF31183 			mrs r3, basepri											
 1815 0052 4FF05002 		mov r2, #80												
 1816 0056 82F31188 		msr basepri, r2											
 1817 005a BFF36F8F 		isb														
 1818 005e BFF34F8F 		dsb														
 1819              	
 1820              	@ 0 "" 2
 1821              		.thumb
 1822              		.syntax unified
 1823 0062 1F46     		mov	r7, r3
 1824 0064 A36B     		ldr	r3, [r4, #56]
 1825 0066 1BB9     		cbnz	r3, .L277
 1826 0068 1846     		mov	r0, r3
 1827              	.L272:
 1828              		.syntax unified
 1829              	@ 229 "Middlewares/Third_Party/FreeRTOS/Source/portable/GCC/ARM_CM4F/portmacro.h" 1
 1830 006a 87F31188 			msr basepri, r7	
 1831              	@ 0 "" 2
 1832              		.thumb
 1833              		.syntax unified
 1834 006e F8BD     		pop	{r3, r4, r5, r6, r7, pc}
 1835              	.L277:
 1836 0070 E368     		ldr	r3, [r4, #12]
 1837 0072 1D46     		mov	r5, r3
 1838 0074 3146     		mov	r1, r6
 1839 0076 2046     		mov	r0, r4
 1840 0078 FFF7FEFF 		bl	prvCopyDataFromQueue
 1841 007c E560     		str	r5, [r4, #12]
 1842 007e 0120     		movs	r0, #1
 1843 0080 F3E7     		b	.L272
 1845              		.section	.text.uxQueueMessagesWaiting,"ax",%progbits
 1846              		.align	1
 1847              		.global	uxQueueMessagesWaiting
 1848              		.syntax unified
 1849              		.thumb
 1850              		.thumb_func
 1852              	uxQueueMessagesWaiting:
 1853              		@ args = 0, pretend = 0, frame = 0
 1854              		@ frame_needed = 0, uses_anonymous_args = 0
 1855 0000 48B1     		cbz	r0, .L283
 1856 0002 10B5     		push	{r4, lr}
 1857 0004 0446     		mov	r4, r0
 1858 0006 FFF7FEFF 		bl	vPortEnterCritical
 1859 000a A36B     		ldr	r3, [r4, #56]
 1860 000c 1C46     		mov	r4, r3
 1861 000e FFF7FEFF 		bl	vPortExitCritical
 1862 0012 2046     		mov	r0, r4
 1863 0014 10BD     		pop	{r4, pc}
 1864              	.L283:
 1865              		.syntax unified
 1866              	@ 195 "Middlewares/Third_Party/FreeRTOS/Source/portable/GCC/ARM_CM4F/portmacro.h" 1
 1867 0016 4FF05003 			mov r3, #80												
ARM GAS  /var/folders/kf/d797ysj14bb1pb7szkr3jbx80000gn/T//ccC7gD5u.s 			page 33


 1868 001a 83F31188 		msr basepri, r3											
 1869 001e BFF36F8F 		isb														
 1870 0022 BFF34F8F 		dsb														
 1871              	
 1872              	@ 0 "" 2
 1873              		.thumb
 1874              		.syntax unified
 1875              	.L280:
 1876 0026 FEE7     		b	.L280
 1878              		.section	.text.uxQueueSpacesAvailable,"ax",%progbits
 1879              		.align	1
 1880              		.global	uxQueueSpacesAvailable
 1881              		.syntax unified
 1882              		.thumb
 1883              		.thumb_func
 1885              	uxQueueSpacesAvailable:
 1886              		@ args = 0, pretend = 0, frame = 0
 1887              		@ frame_needed = 0, uses_anonymous_args = 0
 1888 0000 58B1     		cbz	r0, .L289
 1889 0002 10B5     		push	{r4, lr}
 1890 0004 0446     		mov	r4, r0
 1891 0006 FFF7FEFF 		bl	vPortEnterCritical
 1892 000a E36B     		ldr	r3, [r4, #60]
 1893 000c A26B     		ldr	r2, [r4, #56]
 1894 000e 9B1A     		subs	r3, r3, r2
 1895 0010 1C46     		mov	r4, r3
 1896 0012 FFF7FEFF 		bl	vPortExitCritical
 1897 0016 2046     		mov	r0, r4
 1898 0018 10BD     		pop	{r4, pc}
 1899              	.L289:
 1900              		.syntax unified
 1901              	@ 195 "Middlewares/Third_Party/FreeRTOS/Source/portable/GCC/ARM_CM4F/portmacro.h" 1
 1902 001a 4FF05003 			mov r3, #80												
 1903 001e 83F31188 		msr basepri, r3											
 1904 0022 BFF36F8F 		isb														
 1905 0026 BFF34F8F 		dsb														
 1906              	
 1907              	@ 0 "" 2
 1908              		.thumb
 1909              		.syntax unified
 1910              	.L286:
 1911 002a FEE7     		b	.L286
 1913              		.section	.text.uxQueueMessagesWaitingFromISR,"ax",%progbits
 1914              		.align	1
 1915              		.global	uxQueueMessagesWaitingFromISR
 1916              		.syntax unified
 1917              		.thumb
 1918              		.thumb_func
 1920              	uxQueueMessagesWaitingFromISR:
 1921              		@ args = 0, pretend = 0, frame = 0
 1922              		@ frame_needed = 0, uses_anonymous_args = 0
 1923              		@ link register save eliminated.
 1924 0000 08B1     		cbz	r0, .L293
 1925 0002 806B     		ldr	r0, [r0, #56]
 1926 0004 7047     		bx	lr
 1927              	.L293:
 1928              		.syntax unified
ARM GAS  /var/folders/kf/d797ysj14bb1pb7szkr3jbx80000gn/T//ccC7gD5u.s 			page 34


 1929              	@ 195 "Middlewares/Third_Party/FreeRTOS/Source/portable/GCC/ARM_CM4F/portmacro.h" 1
 1930 0006 4FF05003 			mov r3, #80												
 1931 000a 83F31188 		msr basepri, r3											
 1932 000e BFF36F8F 		isb														
 1933 0012 BFF34F8F 		dsb														
 1934              	
 1935              	@ 0 "" 2
 1936              		.thumb
 1937              		.syntax unified
 1938              	.L292:
 1939 0016 FEE7     		b	.L292
 1941              		.section	.text.xQueueIsQueueEmptyFromISR,"ax",%progbits
 1942              		.align	1
 1943              		.global	xQueueIsQueueEmptyFromISR
 1944              		.syntax unified
 1945              		.thumb
 1946              		.thumb_func
 1948              	xQueueIsQueueEmptyFromISR:
 1949              		@ args = 0, pretend = 0, frame = 0
 1950              		@ frame_needed = 0, uses_anonymous_args = 0
 1951              		@ link register save eliminated.
 1952 0000 18B1     		cbz	r0, .L299
 1953 0002 836B     		ldr	r3, [r0, #56]
 1954 0004 53B9     		cbnz	r3, .L298
 1955 0006 0120     		movs	r0, #1
 1956 0008 7047     		bx	lr
 1957              	.L299:
 1958              		.syntax unified
 1959              	@ 195 "Middlewares/Third_Party/FreeRTOS/Source/portable/GCC/ARM_CM4F/portmacro.h" 1
 1960 000a 4FF05003 			mov r3, #80												
 1961 000e 83F31188 		msr basepri, r3											
 1962 0012 BFF36F8F 		isb														
 1963 0016 BFF34F8F 		dsb														
 1964              	
 1965              	@ 0 "" 2
 1966              		.thumb
 1967              		.syntax unified
 1968              	.L296:
 1969 001a FEE7     		b	.L296
 1970              	.L298:
 1971 001c 0020     		movs	r0, #0
 1972 001e 7047     		bx	lr
 1974              		.section	.text.xQueueIsQueueFullFromISR,"ax",%progbits
 1975              		.align	1
 1976              		.global	xQueueIsQueueFullFromISR
 1977              		.syntax unified
 1978              		.thumb
 1979              		.thumb_func
 1981              	xQueueIsQueueFullFromISR:
 1982              		@ args = 0, pretend = 0, frame = 0
 1983              		@ frame_needed = 0, uses_anonymous_args = 0
 1984              		@ link register save eliminated.
 1985 0000 28B1     		cbz	r0, .L305
 1986 0002 826B     		ldr	r2, [r0, #56]
 1987 0004 C36B     		ldr	r3, [r0, #60]
 1988 0006 9A42     		cmp	r2, r3
 1989 0008 0AD0     		beq	.L306
ARM GAS  /var/folders/kf/d797ysj14bb1pb7szkr3jbx80000gn/T//ccC7gD5u.s 			page 35


 1990 000a 0020     		movs	r0, #0
 1991 000c 7047     		bx	lr
 1992              	.L305:
 1993              		.syntax unified
 1994              	@ 195 "Middlewares/Third_Party/FreeRTOS/Source/portable/GCC/ARM_CM4F/portmacro.h" 1
 1995 000e 4FF05003 			mov r3, #80												
 1996 0012 83F31188 		msr basepri, r3											
 1997 0016 BFF36F8F 		isb														
 1998 001a BFF34F8F 		dsb														
 1999              	
 2000              	@ 0 "" 2
 2001              		.thumb
 2002              		.syntax unified
 2003              	.L302:
 2004 001e FEE7     		b	.L302
 2005              	.L306:
 2006 0020 0120     		movs	r0, #1
 2007 0022 7047     		bx	lr
 2009              		.section	.text.vQueueAddToRegistry,"ax",%progbits
 2010              		.align	1
 2011              		.global	vQueueAddToRegistry
 2012              		.syntax unified
 2013              		.thumb
 2014              		.thumb_func
 2016              	vQueueAddToRegistry:
 2017              		@ args = 0, pretend = 0, frame = 0
 2018              		@ frame_needed = 0, uses_anonymous_args = 0
 2019              		@ link register save eliminated.
 2020 0000 0023     		movs	r3, #0
 2021              	.L308:
 2022 0002 072B     		cmp	r3, #7
 2023 0004 0CD8     		bhi	.L312
 2024 0006 074A     		ldr	r2, .L314
 2025 0008 52F83320 		ldr	r2, [r2, r3, lsl #3]
 2026 000c 0AB1     		cbz	r2, .L313
 2027 000e 0133     		adds	r3, r3, #1
 2028 0010 F7E7     		b	.L308
 2029              	.L313:
 2030 0012 044A     		ldr	r2, .L314
 2031 0014 42F83310 		str	r1, [r2, r3, lsl #3]
 2032 0018 02EBC302 		add	r2, r2, r3, lsl #3
 2033 001c 5060     		str	r0, [r2, #4]
 2034 001e 7047     		bx	lr
 2035              	.L312:
 2036 0020 7047     		bx	lr
 2037              	.L315:
 2038 0022 00BF     		.align	2
 2039              	.L314:
 2040 0024 00000000 		.word	xQueueRegistry
 2042              		.section	.text.pcQueueGetName,"ax",%progbits
 2043              		.align	1
 2044              		.global	pcQueueGetName
 2045              		.syntax unified
 2046              		.thumb
 2047              		.thumb_func
 2049              	pcQueueGetName:
 2050              		@ args = 0, pretend = 0, frame = 0
ARM GAS  /var/folders/kf/d797ysj14bb1pb7szkr3jbx80000gn/T//ccC7gD5u.s 			page 36


 2051              		@ frame_needed = 0, uses_anonymous_args = 0
 2052              		@ link register save eliminated.
 2053 0000 0023     		movs	r3, #0
 2054              	.L317:
 2055 0002 072B     		cmp	r3, #7
 2056 0004 0BD8     		bhi	.L321
 2057 0006 074A     		ldr	r2, .L323
 2058 0008 02EBC302 		add	r2, r2, r3, lsl #3
 2059 000c 5268     		ldr	r2, [r2, #4]
 2060 000e 8242     		cmp	r2, r0
 2061 0010 01D0     		beq	.L322
 2062 0012 0133     		adds	r3, r3, #1
 2063 0014 F5E7     		b	.L317
 2064              	.L322:
 2065 0016 034A     		ldr	r2, .L323
 2066 0018 52F83300 		ldr	r0, [r2, r3, lsl #3]
 2067 001c 7047     		bx	lr
 2068              	.L321:
 2069 001e 0020     		movs	r0, #0
 2070 0020 7047     		bx	lr
 2071              	.L324:
 2072 0022 00BF     		.align	2
 2073              	.L323:
 2074 0024 00000000 		.word	xQueueRegistry
 2076              		.section	.text.vQueueUnregisterQueue,"ax",%progbits
 2077              		.align	1
 2078              		.global	vQueueUnregisterQueue
 2079              		.syntax unified
 2080              		.thumb
 2081              		.thumb_func
 2083              	vQueueUnregisterQueue:
 2084              		@ args = 0, pretend = 0, frame = 0
 2085              		@ frame_needed = 0, uses_anonymous_args = 0
 2086              		@ link register save eliminated.
 2087 0000 0023     		movs	r3, #0
 2088              	.L326:
 2089 0002 072B     		cmp	r3, #7
 2090 0004 0FD8     		bhi	.L330
 2091 0006 084A     		ldr	r2, .L332
 2092 0008 02EBC302 		add	r2, r2, r3, lsl #3
 2093 000c 5268     		ldr	r2, [r2, #4]
 2094 000e 8242     		cmp	r2, r0
 2095 0010 01D0     		beq	.L331
 2096 0012 0133     		adds	r3, r3, #1
 2097 0014 F5E7     		b	.L326
 2098              	.L331:
 2099 0016 044A     		ldr	r2, .L332
 2100 0018 0021     		movs	r1, #0
 2101 001a 42F83310 		str	r1, [r2, r3, lsl #3]
 2102 001e 02EBC302 		add	r2, r2, r3, lsl #3
 2103 0022 5160     		str	r1, [r2, #4]
 2104 0024 7047     		bx	lr
 2105              	.L330:
 2106 0026 7047     		bx	lr
 2107              	.L333:
 2108              		.align	2
 2109              	.L332:
ARM GAS  /var/folders/kf/d797ysj14bb1pb7szkr3jbx80000gn/T//ccC7gD5u.s 			page 37


 2110 0028 00000000 		.word	xQueueRegistry
 2112              		.section	.text.vQueueDelete,"ax",%progbits
 2113              		.align	1
 2114              		.global	vQueueDelete
 2115              		.syntax unified
 2116              		.thumb
 2117              		.thumb_func
 2119              	vQueueDelete:
 2120              		@ args = 0, pretend = 0, frame = 0
 2121              		@ frame_needed = 0, uses_anonymous_args = 0
 2122 0000 38B1     		cbz	r0, .L340
 2123 0002 10B5     		push	{r4, lr}
 2124 0004 0446     		mov	r4, r0
 2125 0006 FFF7FEFF 		bl	vQueueUnregisterQueue
 2126 000a 94F84630 		ldrb	r3, [r4, #70]	@ zero_extendqisi2
 2127 000e 4BB1     		cbz	r3, .L341
 2128              	.L334:
 2129 0010 10BD     		pop	{r4, pc}
 2130              	.L340:
 2131              		.syntax unified
 2132              	@ 195 "Middlewares/Third_Party/FreeRTOS/Source/portable/GCC/ARM_CM4F/portmacro.h" 1
 2133 0012 4FF05003 			mov r3, #80												
 2134 0016 83F31188 		msr basepri, r3											
 2135 001a BFF36F8F 		isb														
 2136 001e BFF34F8F 		dsb														
 2137              	
 2138              	@ 0 "" 2
 2139              		.thumb
 2140              		.syntax unified
 2141              	.L336:
 2142 0022 FEE7     		b	.L336
 2143              	.L341:
 2144 0024 2046     		mov	r0, r4
 2145 0026 FFF7FEFF 		bl	vPortFree
 2146 002a F1E7     		b	.L334
 2148              		.global	xQueueRegistry
 2149              		.section	.bss.xQueueRegistry,"aw",%nobits
 2150              		.align	2
 2153              	xQueueRegistry:
 2154 0000 00000000 		.space	64
 2154      00000000 
 2154      00000000 
 2154      00000000 
 2154      00000000 
 2155              		.ident	"GCC: (xPack GNU Arm Embedded GCC arm64) 15.2.1 20251203"
ARM GAS  /var/folders/kf/d797ysj14bb1pb7szkr3jbx80000gn/T//ccC7gD5u.s 			page 38

