ARM GAS  /var/folders/kf/d797ysj14bb1pb7szkr3jbx80000gn/T//ccF529RZ.s 			page 1


   1              		.cpu cortex-m4
   2              		.arch armv7e-m
   3              		.fpu fpv4-sp-d16
   4              		.eabi_attribute 27, 1
   5              		.eabi_attribute 28, 1
   6              		.eabi_attribute 20, 1
   7              		.eabi_attribute 21, 1
   8              		.eabi_attribute 23, 3
   9              		.eabi_attribute 24, 1
  10              		.eabi_attribute 25, 1
  11              		.eabi_attribute 26, 1
  12              		.eabi_attribute 30, 1
  13              		.eabi_attribute 34, 1
  14              		.eabi_attribute 18, 4
  15              		.file	"stm32f4xx_it.c"
  16              		.text
  17              		.section	.text.NMI_Handler,"ax",%progbits
  18              		.align	1
  19              		.global	NMI_Handler
  20              		.syntax unified
  21              		.thumb
  22              		.thumb_func
  24              	NMI_Handler:
  25              		@ Volatile: function does not return.
  26              		@ args = 0, pretend = 0, frame = 0
  27              		@ frame_needed = 0, uses_anonymous_args = 0
  28              		@ link register save eliminated.
  29              	.L2:
  30 0000 FEE7     		b	.L2
  32              		.section	.text.HardFault_Handler,"ax",%progbits
  33              		.align	1
  34              		.global	HardFault_Handler
  35              		.syntax unified
  36              		.thumb
  37              		.thumb_func
  39              	HardFault_Handler:
  40              		@ Volatile: function does not return.
  41              		@ args = 0, pretend = 0, frame = 0
  42              		@ frame_needed = 0, uses_anonymous_args = 0
  43              		@ link register save eliminated.
  44              	.L4:
  45 0000 FEE7     		b	.L4
  47              		.section	.text.MemManage_Handler,"ax",%progbits
  48              		.align	1
  49              		.global	MemManage_Handler
  50              		.syntax unified
  51              		.thumb
  52              		.thumb_func
  54              	MemManage_Handler:
  55              		@ Volatile: function does not return.
  56              		@ args = 0, pretend = 0, frame = 0
  57              		@ frame_needed = 0, uses_anonymous_args = 0
  58              		@ link register save eliminated.
  59              	.L6:
  60 0000 FEE7     		b	.L6
  62              		.section	.text.BusFault_Handler,"ax",%progbits
  63              		.align	1
ARM GAS  /var/folders/kf/d797ysj14bb1pb7szkr3jbx80000gn/T//ccF529RZ.s 			page 2


  64              		.global	BusFault_Handler
  65              		.syntax unified
  66              		.thumb
  67              		.thumb_func
  69              	BusFault_Handler:
  70              		@ Volatile: function does not return.
  71              		@ args = 0, pretend = 0, frame = 0
  72              		@ frame_needed = 0, uses_anonymous_args = 0
  73              		@ link register save eliminated.
  74              	.L8:
  75 0000 FEE7     		b	.L8
  77              		.section	.text.UsageFault_Handler,"ax",%progbits
  78              		.align	1
  79              		.global	UsageFault_Handler
  80              		.syntax unified
  81              		.thumb
  82              		.thumb_func
  84              	UsageFault_Handler:
  85              		@ Volatile: function does not return.
  86              		@ args = 0, pretend = 0, frame = 0
  87              		@ frame_needed = 0, uses_anonymous_args = 0
  88              		@ link register save eliminated.
  89              	.L10:
  90 0000 FEE7     		b	.L10
  92              		.section	.text.DebugMon_Handler,"ax",%progbits
  93              		.align	1
  94              		.global	DebugMon_Handler
  95              		.syntax unified
  96              		.thumb
  97              		.thumb_func
  99              	DebugMon_Handler:
 100              		@ args = 0, pretend = 0, frame = 0
 101              		@ frame_needed = 0, uses_anonymous_args = 0
 102              		@ link register save eliminated.
 103 0000 7047     		bx	lr
 105              		.section	.text.SysTick_Handler,"ax",%progbits
 106              		.align	1
 107              		.global	SysTick_Handler
 108              		.syntax unified
 109              		.thumb
 110              		.thumb_func
 112              	SysTick_Handler:
 113              		@ args = 0, pretend = 0, frame = 0
 114              		@ frame_needed = 0, uses_anonymous_args = 0
 115 0000 08B5     		push	{r3, lr}
 116 0002 FFF7FEFF 		bl	HAL_IncTick
 117 0006 FFF7FEFF 		bl	xTaskGetSchedulerState
 118 000a 0128     		cmp	r0, #1
 119 000c 00D1     		bne	.L15
 120              	.L12:
 121 000e 08BD     		pop	{r3, pc}
 122              	.L15:
 123 0010 FFF7FEFF 		bl	xPortSysTickHandler
 124 0014 FBE7     		b	.L12
 126              		.section	.text.DMA1_Stream3_IRQHandler,"ax",%progbits
 127              		.align	1
 128              		.global	DMA1_Stream3_IRQHandler
ARM GAS  /var/folders/kf/d797ysj14bb1pb7szkr3jbx80000gn/T//ccF529RZ.s 			page 3


 129              		.syntax unified
 130              		.thumb
 131              		.thumb_func
 133              	DMA1_Stream3_IRQHandler:
 134              		@ args = 0, pretend = 0, frame = 0
 135              		@ frame_needed = 0, uses_anonymous_args = 0
 136 0000 08B5     		push	{r3, lr}
 137 0002 0248     		ldr	r0, .L18
 138 0004 FFF7FEFF 		bl	HAL_DMA_IRQHandler
 139 0008 08BD     		pop	{r3, pc}
 140              	.L19:
 141 000a 00BF     		.align	2
 142              	.L18:
 143 000c 00000000 		.word	hdma_spi2_rx
 145              		.section	.text.SPI1_IRQHandler,"ax",%progbits
 146              		.align	1
 147              		.global	SPI1_IRQHandler
 148              		.syntax unified
 149              		.thumb
 150              		.thumb_func
 152              	SPI1_IRQHandler:
 153              		@ args = 0, pretend = 0, frame = 0
 154              		@ frame_needed = 0, uses_anonymous_args = 0
 155 0000 08B5     		push	{r3, lr}
 156 0002 0248     		ldr	r0, .L22
 157 0004 FFF7FEFF 		bl	HAL_SPI_IRQHandler
 158 0008 08BD     		pop	{r3, pc}
 159              	.L23:
 160 000a 00BF     		.align	2
 161              	.L22:
 162 000c 00000000 		.word	hspi1
 164              		.section	.text.SPI2_IRQHandler,"ax",%progbits
 165              		.align	1
 166              		.global	SPI2_IRQHandler
 167              		.syntax unified
 168              		.thumb
 169              		.thumb_func
 171              	SPI2_IRQHandler:
 172              		@ args = 0, pretend = 0, frame = 0
 173              		@ frame_needed = 0, uses_anonymous_args = 0
 174 0000 08B5     		push	{r3, lr}
 175 0002 0248     		ldr	r0, .L26
 176 0004 FFF7FEFF 		bl	HAL_SPI_IRQHandler
 177 0008 08BD     		pop	{r3, pc}
 178              	.L27:
 179 000a 00BF     		.align	2
 180              	.L26:
 181 000c 00000000 		.word	hspi2
 183              		.section	.text.DMA2_Stream0_IRQHandler,"ax",%progbits
 184              		.align	1
 185              		.global	DMA2_Stream0_IRQHandler
 186              		.syntax unified
 187              		.thumb
 188              		.thumb_func
 190              	DMA2_Stream0_IRQHandler:
 191              		@ args = 0, pretend = 0, frame = 0
 192              		@ frame_needed = 0, uses_anonymous_args = 0
ARM GAS  /var/folders/kf/d797ysj14bb1pb7szkr3jbx80000gn/T//ccF529RZ.s 			page 4


 193 0000 08B5     		push	{r3, lr}
 194 0002 0248     		ldr	r0, .L30
 195 0004 FFF7FEFF 		bl	HAL_DMA_IRQHandler
 196 0008 08BD     		pop	{r3, pc}
 197              	.L31:
 198 000a 00BF     		.align	2
 199              	.L30:
 200 000c 00000000 		.word	hdma_spi1_rx
 202              		.section	.text.OTG_FS_IRQHandler,"ax",%progbits
 203              		.align	1
 204              		.global	OTG_FS_IRQHandler
 205              		.syntax unified
 206              		.thumb
 207              		.thumb_func
 209              	OTG_FS_IRQHandler:
 210              		@ args = 0, pretend = 0, frame = 0
 211              		@ frame_needed = 0, uses_anonymous_args = 0
 212 0000 08B5     		push	{r3, lr}
 213 0002 0248     		ldr	r0, .L34
 214 0004 FFF7FEFF 		bl	HAL_HCD_IRQHandler
 215 0008 08BD     		pop	{r3, pc}
 216              	.L35:
 217 000a 00BF     		.align	2
 218              	.L34:
 219 000c 00000000 		.word	hhcd_USB_OTG_FS
 221              		.ident	"GCC: (xPack GNU Arm Embedded GCC arm64) 15.2.1 20251203"
ARM GAS  /var/folders/kf/d797ysj14bb1pb7szkr3jbx80000gn/T//ccF529RZ.s 			page 5

