ARM GAS  /var/folders/kf/d797ysj14bb1pb7szkr3jbx80000gn/T//ccIy82lf.s 			page 1


   1              		.cpu cortex-m4
   2              		.arch armv7e-m
   3              		.fpu fpv4-sp-d16
   4              		.eabi_attribute 27, 1
   5              		.eabi_attribute 28, 1
   6              		.eabi_attribute 20, 1
   7              		.eabi_attribute 21, 1
   8              		.eabi_attribute 23, 3
   9              		.eabi_attribute 24, 1
  10              		.eabi_attribute 25, 1
  11              		.eabi_attribute 26, 1
  12              		.eabi_attribute 30, 1
  13              		.eabi_attribute 34, 1
  14              		.eabi_attribute 18, 4
  15              		.file	"stm32f4xx_hal_i2c.c"
  16              		.text
  17              		.section	.text.I2C_Flush_DR,"ax",%progbits
  18              		.align	1
  19              		.syntax unified
  20              		.thumb
  21              		.thumb_func
  23              	I2C_Flush_DR:
  24              		@ args = 0, pretend = 0, frame = 0
  25              		@ frame_needed = 0, uses_anonymous_args = 0
  26              		@ link register save eliminated.
  27 0000 0368     		ldr	r3, [r0]
  28 0002 5A69     		ldr	r2, [r3, #20]
  29 0004 12F0800F 		tst	r2, #128
  30 0008 01D0     		beq	.L1
  31 000a 0022     		movs	r2, #0
  32 000c 1A61     		str	r2, [r3, #16]
  33              	.L1:
  34 000e 7047     		bx	lr
  36              		.section	.text.I2C_Master_SB,"ax",%progbits
  37              		.align	1
  38              		.syntax unified
  39              		.thumb
  40              		.thumb_func
  42              	I2C_Master_SB:
  43              		@ args = 0, pretend = 0, frame = 0
  44              		@ frame_needed = 0, uses_anonymous_args = 0
  45              		@ link register save eliminated.
  46 0000 90F83E30 		ldrb	r3, [r0, #62]	@ zero_extendqisi2
  47 0004 402B     		cmp	r3, #64
  48 0006 10D0     		beq	.L13
  49 0008 0369     		ldr	r3, [r0, #16]
  50 000a B3F5804F 		cmp	r3, #16384
  51 000e 1BD0     		beq	.L14
  52 0010 036D     		ldr	r3, [r0, #80]
  53 0012 002B     		cmp	r3, #0
  54 0014 38D1     		bne	.L12
  55 0016 436C     		ldr	r3, [r0, #68]
  56 0018 C3F3C813 		ubfx	r3, r3, #7, #9
  57 001c 0268     		ldr	r2, [r0]
  58 001e 03F00603 		and	r3, r3, #6
  59 0022 43F0F003 		orr	r3, r3, #240
  60 0026 1361     		str	r3, [r2, #16]
ARM GAS  /var/folders/kf/d797ysj14bb1pb7szkr3jbx80000gn/T//ccIy82lf.s 			page 2


  61 0028 7047     		bx	lr
  62              	.L13:
  63 002a 036D     		ldr	r3, [r0, #80]
  64 002c 2BB9     		cbnz	r3, .L5
  65 002e 436C     		ldr	r3, [r0, #68]
  66 0030 0268     		ldr	r2, [r0]
  67 0032 03F0FE03 		and	r3, r3, #254
  68 0036 1361     		str	r3, [r2, #16]
  69 0038 7047     		bx	lr
  70              	.L5:
  71 003a 436C     		ldr	r3, [r0, #68]
  72 003c 0268     		ldr	r2, [r0]
  73 003e 43F00103 		orr	r3, r3, #1
  74 0042 DBB2     		uxtb	r3, r3
  75 0044 1361     		str	r3, [r2, #16]
  76 0046 7047     		bx	lr
  77              	.L14:
  78 0048 90F83D30 		ldrb	r3, [r0, #61]	@ zero_extendqisi2
  79 004c 212B     		cmp	r3, #33
  80 004e 0FD0     		beq	.L15
  81 0050 436C     		ldr	r3, [r0, #68]
  82 0052 0268     		ldr	r2, [r0]
  83 0054 43F00103 		orr	r3, r3, #1
  84 0058 DBB2     		uxtb	r3, r3
  85 005a 1361     		str	r3, [r2, #16]
  86              	.L9:
  87 005c 436B     		ldr	r3, [r0, #52]
  88 005e 6BB1     		cbz	r3, .L10
  89 0060 DB6B     		ldr	r3, [r3, #60]
  90 0062 5BB1     		cbz	r3, .L10
  91              	.L11:
  92 0064 0268     		ldr	r2, [r0]
  93 0066 5368     		ldr	r3, [r2, #4]
  94 0068 43F40063 		orr	r3, r3, #2048
  95 006c 5360     		str	r3, [r2, #4]
  96 006e 7047     		bx	lr
  97              	.L15:
  98 0070 436C     		ldr	r3, [r0, #68]
  99 0072 0268     		ldr	r2, [r0]
 100 0074 03F0FE03 		and	r3, r3, #254
 101 0078 1361     		str	r3, [r2, #16]
 102 007a EFE7     		b	.L9
 103              	.L10:
 104 007c 836B     		ldr	r3, [r0, #56]
 105 007e 33B1     		cbz	r3, .L3
 106 0080 DB6B     		ldr	r3, [r3, #60]
 107 0082 002B     		cmp	r3, #0
 108 0084 EED1     		bne	.L11
 109 0086 02E0     		b	.L3
 110              	.L12:
 111 0088 036D     		ldr	r3, [r0, #80]
 112 008a 012B     		cmp	r3, #1
 113 008c 00D0     		beq	.L16
 114              	.L3:
 115 008e 7047     		bx	lr
 116              	.L16:
 117 0090 436C     		ldr	r3, [r0, #68]
ARM GAS  /var/folders/kf/d797ysj14bb1pb7szkr3jbx80000gn/T//ccIy82lf.s 			page 3


 118 0092 C3F3C813 		ubfx	r3, r3, #7, #9
 119 0096 0268     		ldr	r2, [r0]
 120 0098 03F00603 		and	r3, r3, #6
 121 009c 43F0F103 		orr	r3, r3, #241
 122 00a0 1361     		str	r3, [r2, #16]
 123 00a2 F4E7     		b	.L3
 125              		.section	.text.I2C_Master_ADD10,"ax",%progbits
 126              		.align	1
 127              		.syntax unified
 128              		.thumb
 129              		.thumb_func
 131              	I2C_Master_ADD10:
 132              		@ args = 0, pretend = 0, frame = 0
 133              		@ frame_needed = 0, uses_anonymous_args = 0
 134              		@ link register save eliminated.
 135 0000 436C     		ldr	r3, [r0, #68]
 136 0002 0268     		ldr	r2, [r0]
 137 0004 DBB2     		uxtb	r3, r3
 138 0006 1361     		str	r3, [r2, #16]
 139 0008 436B     		ldr	r3, [r0, #52]
 140 000a 3BB1     		cbz	r3, .L18
 141 000c DB6B     		ldr	r3, [r3, #60]
 142 000e 2BB1     		cbz	r3, .L18
 143              	.L19:
 144 0010 0268     		ldr	r2, [r0]
 145 0012 5368     		ldr	r3, [r2, #4]
 146 0014 43F40063 		orr	r3, r3, #2048
 147 0018 5360     		str	r3, [r2, #4]
 148              	.L17:
 149 001a 7047     		bx	lr
 150              	.L18:
 151 001c 836B     		ldr	r3, [r0, #56]
 152 001e 002B     		cmp	r3, #0
 153 0020 FBD0     		beq	.L17
 154 0022 DB6B     		ldr	r3, [r3, #60]
 155 0024 002B     		cmp	r3, #0
 156 0026 F3D1     		bne	.L19
 157 0028 F7E7     		b	.L17
 159              		.section	.text.I2C_Master_ADDR,"ax",%progbits
 160              		.align	1
 161              		.syntax unified
 162              		.thumb
 163              		.thumb_func
 165              	I2C_Master_ADDR:
 166              		@ args = 0, pretend = 0, frame = 40
 167              		@ frame_needed = 0, uses_anonymous_args = 0
 168              		@ link register save eliminated.
 169 0000 8AB0     		sub	sp, sp, #40
 170 0002 90F83E30 		ldrb	r3, [r0, #62]	@ zero_extendqisi2
 171 0006 C16A     		ldr	r1, [r0, #44]
 172 0008 D0F830C0 		ldr	ip, [r0, #48]
 173 000c 90F83D20 		ldrb	r2, [r0, #61]	@ zero_extendqisi2
 174 0010 222A     		cmp	r2, #34
 175 0012 09D0     		beq	.L44
 176 0014 0023     		movs	r3, #0
 177 0016 0993     		str	r3, [sp, #36]
 178 0018 0368     		ldr	r3, [r0]
ARM GAS  /var/folders/kf/d797ysj14bb1pb7szkr3jbx80000gn/T//ccIy82lf.s 			page 4


 179 001a 5A69     		ldr	r2, [r3, #20]
 180 001c 0992     		str	r2, [sp, #36]
 181 001e 9B69     		ldr	r3, [r3, #24]
 182 0020 0993     		str	r3, [sp, #36]
 183 0022 099B     		ldr	r3, [sp, #36]
 184              	.L21:
 185 0024 0AB0     		add	sp, sp, #40
 186              		@ sp needed
 187 0026 7047     		bx	lr
 188              	.L44:
 189 0028 DBB2     		uxtb	r3, r3
 190 002a 026D     		ldr	r2, [r0, #80]
 191 002c 0AB9     		cbnz	r2, .L23
 192 002e 402B     		cmp	r3, #64
 193 0030 17D0     		beq	.L45
 194              	.L23:
 195 0032 036D     		ldr	r3, [r0, #80]
 196 0034 1BB9     		cbnz	r3, .L25
 197 0036 0369     		ldr	r3, [r0, #16]
 198 0038 B3F5404F 		cmp	r3, #49152
 199 003c 19D0     		beq	.L46
 200              	.L25:
 201 003e 438D     		ldrh	r3, [r0, #42]
 202 0040 9BB2     		uxth	r3, r3
 203 0042 002B     		cmp	r3, #0
 204 0044 25D1     		bne	.L26
 205 0046 0293     		str	r3, [sp, #8]
 206 0048 0368     		ldr	r3, [r0]
 207 004a 5A69     		ldr	r2, [r3, #20]
 208 004c 0292     		str	r2, [sp, #8]
 209 004e 9A69     		ldr	r2, [r3, #24]
 210 0050 0292     		str	r2, [sp, #8]
 211 0052 029A     		ldr	r2, [sp, #8]
 212 0054 1A68     		ldr	r2, [r3]
 213 0056 42F40072 		orr	r2, r2, #512
 214 005a 1A60     		str	r2, [r3]
 215              	.L27:
 216 005c 0023     		movs	r3, #0
 217 005e 0365     		str	r3, [r0, #80]
 218 0060 E0E7     		b	.L21
 219              	.L45:
 220 0062 0092     		str	r2, [sp]
 221 0064 0368     		ldr	r3, [r0]
 222 0066 5A69     		ldr	r2, [r3, #20]
 223 0068 0092     		str	r2, [sp]
 224 006a 9B69     		ldr	r3, [r3, #24]
 225 006c 0093     		str	r3, [sp]
 226 006e 009B     		ldr	r3, [sp]
 227 0070 D8E7     		b	.L21
 228              	.L46:
 229 0072 0023     		movs	r3, #0
 230 0074 0193     		str	r3, [sp, #4]
 231 0076 0368     		ldr	r3, [r0]
 232 0078 5A69     		ldr	r2, [r3, #20]
 233 007a 0192     		str	r2, [sp, #4]
 234 007c 9A69     		ldr	r2, [r3, #24]
 235 007e 0192     		str	r2, [sp, #4]
ARM GAS  /var/folders/kf/d797ysj14bb1pb7szkr3jbx80000gn/T//ccIy82lf.s 			page 5


 236 0080 019A     		ldr	r2, [sp, #4]
 237 0082 1A68     		ldr	r2, [r3]
 238 0084 42F48072 		orr	r2, r2, #256
 239 0088 1A60     		str	r2, [r3]
 240 008a 036D     		ldr	r3, [r0, #80]
 241 008c 0133     		adds	r3, r3, #1
 242 008e 0365     		str	r3, [r0, #80]
 243 0090 C8E7     		b	.L21
 244              	.L26:
 245 0092 438D     		ldrh	r3, [r0, #42]
 246 0094 9BB2     		uxth	r3, r3
 247 0096 012B     		cmp	r3, #1
 248 0098 25D0     		beq	.L47
 249 009a 438D     		ldrh	r3, [r0, #42]
 250 009c 9BB2     		uxth	r3, r3
 251 009e 022B     		cmp	r3, #2
 252 00a0 7CD0     		beq	.L48
 253 00a2 0268     		ldr	r2, [r0]
 254 00a4 1368     		ldr	r3, [r2]
 255 00a6 43F48063 		orr	r3, r3, #1024
 256 00aa 1360     		str	r3, [r2]
 257 00ac 0368     		ldr	r3, [r0]
 258 00ae 5A68     		ldr	r2, [r3, #4]
 259 00b0 12F4006F 		tst	r2, #2048
 260 00b4 0ED0     		beq	.L41
 261 00b6 11F5803F 		cmn	r1, #65536
 262 00ba 07D0     		beq	.L42
 263 00bc 0129     		cmp	r1, #1
 264 00be 05D0     		beq	.L42
 265 00c0 0829     		cmp	r1, #8
 266 00c2 03D0     		beq	.L42
 267 00c4 1029     		cmp	r1, #16
 268 00c6 01D0     		beq	.L42
 269 00c8 2029     		cmp	r1, #32
 270 00ca 03D1     		bne	.L41
 271              	.L42:
 272 00cc 5A68     		ldr	r2, [r3, #4]
 273 00ce 42F48052 		orr	r2, r2, #4096
 274 00d2 5A60     		str	r2, [r3, #4]
 275              	.L41:
 276 00d4 0023     		movs	r3, #0
 277 00d6 0893     		str	r3, [sp, #32]
 278 00d8 0368     		ldr	r3, [r0]
 279 00da 5A69     		ldr	r2, [r3, #20]
 280 00dc 0892     		str	r2, [sp, #32]
 281 00de 9B69     		ldr	r3, [r3, #24]
 282 00e0 0893     		str	r3, [sp, #32]
 283 00e2 089B     		ldr	r3, [sp, #32]
 284 00e4 BAE7     		b	.L27
 285              	.L47:
 286 00e6 11F5803F 		cmn	r1, #65536
 287 00ea 12D0     		beq	.L49
 288 00ec 0829     		cmp	r1, #8
 289 00ee 35D0     		beq	.L31
 290 00f0 2029     		cmp	r1, #32
 291 00f2 33D0     		beq	.L31
 292 00f4 BCF1120F 		cmp	ip, #18
ARM GAS  /var/folders/kf/d797ysj14bb1pb7szkr3jbx80000gn/T//ccIy82lf.s 			page 6


 293 00f8 2ED0     		beq	.L50
 294 00fa 0429     		cmp	r1, #4
 295 00fc 40D0     		beq	.L34
 296              	.L33:
 297 00fe 0229     		cmp	r1, #2
 298 0100 3ED0     		beq	.L34
 299 0102 1029     		cmp	r1, #16
 300 0104 3CD0     		beq	.L34
 301 0106 0268     		ldr	r2, [r0]
 302 0108 1368     		ldr	r3, [r2]
 303 010a 23F48063 		bic	r3, r3, #1024
 304 010e 1360     		str	r3, [r2]
 305 0110 3BE0     		b	.L35
 306              	.L49:
 307 0112 0268     		ldr	r2, [r0]
 308 0114 1368     		ldr	r3, [r2]
 309 0116 23F48063 		bic	r3, r3, #1024
 310 011a 1360     		str	r3, [r2]
 311 011c 0368     		ldr	r3, [r0]
 312 011e 5A68     		ldr	r2, [r3, #4]
 313 0120 12F4006F 		tst	r2, #2048
 314 0124 0CD0     		beq	.L30
 315 0126 1A68     		ldr	r2, [r3]
 316 0128 22F48062 		bic	r2, r2, #1024
 317 012c 1A60     		str	r2, [r3]
 318 012e 0023     		movs	r3, #0
 319 0130 0393     		str	r3, [sp, #12]
 320 0132 0368     		ldr	r3, [r0]
 321 0134 5A69     		ldr	r2, [r3, #20]
 322 0136 0392     		str	r2, [sp, #12]
 323 0138 9B69     		ldr	r3, [r3, #24]
 324 013a 0393     		str	r3, [sp, #12]
 325 013c 039B     		ldr	r3, [sp, #12]
 326 013e 8DE7     		b	.L27
 327              	.L30:
 328 0140 0022     		movs	r2, #0
 329 0142 0492     		str	r2, [sp, #16]
 330 0144 5A69     		ldr	r2, [r3, #20]
 331 0146 0492     		str	r2, [sp, #16]
 332 0148 9A69     		ldr	r2, [r3, #24]
 333 014a 0492     		str	r2, [sp, #16]
 334 014c 049A     		ldr	r2, [sp, #16]
 335 014e 1A68     		ldr	r2, [r3]
 336 0150 42F40072 		orr	r2, r2, #512
 337 0154 1A60     		str	r2, [r3]
 338 0156 81E7     		b	.L27
 339              	.L50:
 340 0158 0129     		cmp	r1, #1
 341 015a D0D0     		beq	.L33
 342              	.L31:
 343 015c 0268     		ldr	r2, [r0]
 344 015e 1368     		ldr	r3, [r2]
 345 0160 23F48063 		bic	r3, r3, #1024
 346 0164 1360     		str	r3, [r2]
 347 0166 0023     		movs	r3, #0
 348 0168 0693     		str	r3, [sp, #24]
 349 016a 0368     		ldr	r3, [r0]
ARM GAS  /var/folders/kf/d797ysj14bb1pb7szkr3jbx80000gn/T//ccIy82lf.s 			page 7


 350 016c 5A69     		ldr	r2, [r3, #20]
 351 016e 0692     		str	r2, [sp, #24]
 352 0170 9A69     		ldr	r2, [r3, #24]
 353 0172 0692     		str	r2, [sp, #24]
 354 0174 069A     		ldr	r2, [sp, #24]
 355 0176 1A68     		ldr	r2, [r3]
 356 0178 42F40072 		orr	r2, r2, #512
 357 017c 1A60     		str	r2, [r3]
 358 017e 6DE7     		b	.L27
 359              	.L34:
 360 0180 0268     		ldr	r2, [r0]
 361 0182 1368     		ldr	r3, [r2]
 362 0184 43F48063 		orr	r3, r3, #1024
 363 0188 1360     		str	r3, [r2]
 364              	.L35:
 365 018a 0023     		movs	r3, #0
 366 018c 0593     		str	r3, [sp, #20]
 367 018e 0368     		ldr	r3, [r0]
 368 0190 5A69     		ldr	r2, [r3, #20]
 369 0192 0592     		str	r2, [sp, #20]
 370 0194 9B69     		ldr	r3, [r3, #24]
 371 0196 0593     		str	r3, [sp, #20]
 372 0198 059B     		ldr	r3, [sp, #20]
 373 019a 5FE7     		b	.L27
 374              	.L48:
 375 019c 0429     		cmp	r1, #4
 376 019e 0ED0     		beq	.L37
 377 01a0 0229     		cmp	r1, #2
 378 01a2 0CD0     		beq	.L37
 379 01a4 1029     		cmp	r1, #16
 380 01a6 0AD0     		beq	.L37
 381 01a8 0268     		ldr	r2, [r0]
 382 01aa 1368     		ldr	r3, [r2]
 383 01ac 23F48063 		bic	r3, r3, #1024
 384 01b0 1360     		str	r3, [r2]
 385 01b2 0268     		ldr	r2, [r0]
 386 01b4 1368     		ldr	r3, [r2]
 387 01b6 43F40063 		orr	r3, r3, #2048
 388 01ba 1360     		str	r3, [r2]
 389 01bc 04E0     		b	.L38
 390              	.L37:
 391 01be 0268     		ldr	r2, [r0]
 392 01c0 1368     		ldr	r3, [r2]
 393 01c2 43F48063 		orr	r3, r3, #1024
 394 01c6 1360     		str	r3, [r2]
 395              	.L38:
 396 01c8 0368     		ldr	r3, [r0]
 397 01ca 5A68     		ldr	r2, [r3, #4]
 398 01cc 12F4006F 		tst	r2, #2048
 399 01d0 0ED0     		beq	.L39
 400 01d2 11F5803F 		cmn	r1, #65536
 401 01d6 07D0     		beq	.L40
 402 01d8 0129     		cmp	r1, #1
 403 01da 05D0     		beq	.L40
 404 01dc 0829     		cmp	r1, #8
 405 01de 03D0     		beq	.L40
 406 01e0 1029     		cmp	r1, #16
ARM GAS  /var/folders/kf/d797ysj14bb1pb7szkr3jbx80000gn/T//ccIy82lf.s 			page 8


 407 01e2 01D0     		beq	.L40
 408 01e4 2029     		cmp	r1, #32
 409 01e6 03D1     		bne	.L39
 410              	.L40:
 411 01e8 5A68     		ldr	r2, [r3, #4]
 412 01ea 42F48052 		orr	r2, r2, #4096
 413 01ee 5A60     		str	r2, [r3, #4]
 414              	.L39:
 415 01f0 0023     		movs	r3, #0
 416 01f2 0793     		str	r3, [sp, #28]
 417 01f4 0368     		ldr	r3, [r0]
 418 01f6 5A69     		ldr	r2, [r3, #20]
 419 01f8 0792     		str	r2, [sp, #28]
 420 01fa 9B69     		ldr	r3, [r3, #24]
 421 01fc 0793     		str	r3, [sp, #28]
 422 01fe 079B     		ldr	r3, [sp, #28]
 423 0200 2CE7     		b	.L27
 425              		.section	.text.I2C_SlaveTransmit_BTF,"ax",%progbits
 426              		.align	1
 427              		.syntax unified
 428              		.thumb
 429              		.thumb_func
 431              	I2C_SlaveTransmit_BTF:
 432              		@ args = 0, pretend = 0, frame = 0
 433              		@ frame_needed = 0, uses_anonymous_args = 0
 434              		@ link register save eliminated.
 435 0000 438D     		ldrh	r3, [r0, #42]
 436 0002 9BB2     		uxth	r3, r3
 437 0004 5BB1     		cbz	r3, .L51
 438 0006 426A     		ldr	r2, [r0, #36]
 439 0008 0368     		ldr	r3, [r0]
 440 000a 1278     		ldrb	r2, [r2]	@ zero_extendqisi2
 441 000c 1A61     		str	r2, [r3, #16]
 442 000e 436A     		ldr	r3, [r0, #36]
 443 0010 0133     		adds	r3, r3, #1
 444 0012 4362     		str	r3, [r0, #36]
 445 0014 438D     		ldrh	r3, [r0, #42]
 446 0016 9BB2     		uxth	r3, r3
 447 0018 013B     		subs	r3, r3, #1
 448 001a 9BB2     		uxth	r3, r3
 449 001c 4385     		strh	r3, [r0, #42]	@ movhi
 450              	.L51:
 451 001e 7047     		bx	lr
 453              		.section	.text.I2C_SlaveReceive_BTF,"ax",%progbits
 454              		.align	1
 455              		.syntax unified
 456              		.thumb
 457              		.thumb_func
 459              	I2C_SlaveReceive_BTF:
 460              		@ args = 0, pretend = 0, frame = 0
 461              		@ frame_needed = 0, uses_anonymous_args = 0
 462              		@ link register save eliminated.
 463 0000 438D     		ldrh	r3, [r0, #42]
 464 0002 9BB2     		uxth	r3, r3
 465 0004 5BB1     		cbz	r3, .L53
 466 0006 0368     		ldr	r3, [r0]
 467 0008 1A69     		ldr	r2, [r3, #16]
ARM GAS  /var/folders/kf/d797ysj14bb1pb7szkr3jbx80000gn/T//ccIy82lf.s 			page 9


 468 000a 436A     		ldr	r3, [r0, #36]
 469 000c 1A70     		strb	r2, [r3]
 470 000e 436A     		ldr	r3, [r0, #36]
 471 0010 0133     		adds	r3, r3, #1
 472 0012 4362     		str	r3, [r0, #36]
 473 0014 438D     		ldrh	r3, [r0, #42]
 474 0016 9BB2     		uxth	r3, r3
 475 0018 013B     		subs	r3, r3, #1
 476 001a 9BB2     		uxth	r3, r3
 477 001c 4385     		strh	r3, [r0, #42]	@ movhi
 478              	.L53:
 479 001e 7047     		bx	lr
 481              		.section	.text.I2C_WaitOnSTOPRequestThroughIT,"ax",%progbits
 482              		.align	1
 483              		.syntax unified
 484              		.thumb
 485              		.thumb_func
 487              	I2C_WaitOnSTOPRequestThroughIT:
 488              		@ args = 0, pretend = 0, frame = 8
 489              		@ frame_needed = 0, uses_anonymous_args = 0
 490              		@ link register save eliminated.
 491 0000 82B0     		sub	sp, sp, #8
 492 0002 0023     		movs	r3, #0
 493 0004 0193     		str	r3, [sp, #4]
 494 0006 0E4B     		ldr	r3, .L61
 495 0008 1B68     		ldr	r3, [r3]
 496 000a DB08     		lsrs	r3, r3, #3
 497 000c 0D4A     		ldr	r2, .L61+4
 498 000e A2FB0323 		umull	r2, r3, r2, r3
 499 0012 1B0A     		lsrs	r3, r3, #8
 500 0014 03EB8303 		add	r3, r3, r3, lsl #2
 501 0018 0193     		str	r3, [sp, #4]
 502              	.L58:
 503 001a 019B     		ldr	r3, [sp, #4]
 504 001c 013B     		subs	r3, r3, #1
 505 001e 0193     		str	r3, [sp, #4]
 506 0020 019B     		ldr	r3, [sp, #4]
 507 0022 33B1     		cbz	r3, .L60
 508 0024 0368     		ldr	r3, [r0]
 509 0026 1B68     		ldr	r3, [r3]
 510 0028 13F4007F 		tst	r3, #512
 511 002c F5D1     		bne	.L58
 512 002e 0020     		movs	r0, #0
 513 0030 04E0     		b	.L57
 514              	.L60:
 515 0032 036C     		ldr	r3, [r0, #64]
 516 0034 43F02003 		orr	r3, r3, #32
 517 0038 0364     		str	r3, [r0, #64]
 518 003a 0120     		movs	r0, #1
 519              	.L57:
 520 003c 02B0     		add	sp, sp, #8
 521              		@ sp needed
 522 003e 7047     		bx	lr
 523              	.L62:
 524              		.align	2
 525              	.L61:
 526 0040 00000000 		.word	SystemCoreClock
ARM GAS  /var/folders/kf/d797ysj14bb1pb7szkr3jbx80000gn/T//ccIy82lf.s 			page 10


 527 0044 89B5F814 		.word	351843721
 529              		.section	.text.I2C_IsAcknowledgeFailed,"ax",%progbits
 530              		.align	1
 531              		.syntax unified
 532              		.thumb
 533              		.thumb_func
 535              	I2C_IsAcknowledgeFailed:
 536              		@ args = 0, pretend = 0, frame = 0
 537              		@ frame_needed = 0, uses_anonymous_args = 0
 538              		@ link register save eliminated.
 539 0000 0368     		ldr	r3, [r0]
 540 0002 5A69     		ldr	r2, [r3, #20]
 541 0004 12F4806F 		tst	r2, #1024
 542 0008 01D1     		bne	.L66
 543 000a 0020     		movs	r0, #0
 544 000c 7047     		bx	lr
 545              	.L66:
 546 000e 6FF48062 		mvn	r2, #1024
 547 0012 5A61     		str	r2, [r3, #20]
 548 0014 0023     		movs	r3, #0
 549 0016 0363     		str	r3, [r0, #48]
 550 0018 2022     		movs	r2, #32
 551 001a 80F83D20 		strb	r2, [r0, #61]
 552 001e 80F83E30 		strb	r3, [r0, #62]
 553 0022 026C     		ldr	r2, [r0, #64]
 554 0024 42F00402 		orr	r2, r2, #4
 555 0028 0264     		str	r2, [r0, #64]
 556 002a 80F83C30 		strb	r3, [r0, #60]
 557 002e 0120     		movs	r0, #1
 558 0030 7047     		bx	lr
 560              		.section	.text.I2C_ConvertOtherXferOptions,"ax",%progbits
 561              		.align	1
 562              		.syntax unified
 563              		.thumb
 564              		.thumb_func
 566              	I2C_ConvertOtherXferOptions:
 567              		@ args = 0, pretend = 0, frame = 0
 568              		@ frame_needed = 0, uses_anonymous_args = 0
 569              		@ link register save eliminated.
 570 0000 C36A     		ldr	r3, [r0, #44]
 571 0002 B3F52A0F 		cmp	r3, #11141120
 572 0006 04D0     		beq	.L70
 573 0008 C36A     		ldr	r3, [r0, #44]
 574 000a B3F12A4F 		cmp	r3, #-1442840576
 575 000e 03D0     		beq	.L71
 576              	.L67:
 577 0010 7047     		bx	lr
 578              	.L70:
 579 0012 0123     		movs	r3, #1
 580 0014 C362     		str	r3, [r0, #44]
 581 0016 7047     		bx	lr
 582              	.L71:
 583 0018 0823     		movs	r3, #8
 584 001a C362     		str	r3, [r0, #44]
 585 001c F8E7     		b	.L67
 587              		.section	.text.I2C_WaitOnFlagUntilTimeout,"ax",%progbits
 588              		.align	1
ARM GAS  /var/folders/kf/d797ysj14bb1pb7szkr3jbx80000gn/T//ccIy82lf.s 			page 11


 589              		.syntax unified
 590              		.thumb
 591              		.thumb_func
 593              	I2C_WaitOnFlagUntilTimeout:
 594              		@ args = 4, pretend = 0, frame = 0
 595              		@ frame_needed = 0, uses_anonymous_args = 0
 596 0000 2DE9F041 		push	{r4, r5, r6, r7, r8, lr}
 597 0004 0646     		mov	r6, r0
 598 0006 0C46     		mov	r4, r1
 599 0008 1746     		mov	r7, r2
 600 000a 9846     		mov	r8, r3
 601 000c 3BE0     		b	.L74
 602              	.L85:
 603 000e FFF7FEFF 		bl	HAL_GetTick
 604 0012 069B     		ldr	r3, [sp, #24]
 605 0014 C01A     		subs	r0, r0, r3
 606 0016 4045     		cmp	r0, r8
 607 0018 02D8     		bhi	.L75
 608 001a B8F1000F 		cmp	r8, #0
 609 001e 32D1     		bne	.L74
 610              	.L75:
 611 0020 012D     		cmp	r5, #1
 612 0022 18D0     		beq	.L83
 613 0024 3368     		ldr	r3, [r6]
 614 0026 9B69     		ldr	r3, [r3, #24]
 615 0028 24EA0303 		bic	r3, r4, r3
 616 002c 9BB2     		uxth	r3, r3
 617 002e B3FA83F3 		clz	r3, r3
 618 0032 5B09     		lsrs	r3, r3, #5
 619              	.L77:
 620 0034 9F42     		cmp	r7, r3
 621 0036 26D1     		bne	.L74
 622 0038 0023     		movs	r3, #0
 623 003a 3363     		str	r3, [r6, #48]
 624 003c 2022     		movs	r2, #32
 625 003e 86F83D20 		strb	r2, [r6, #61]
 626 0042 86F83E30 		strb	r3, [r6, #62]
 627 0046 326C     		ldr	r2, [r6, #64]
 628 0048 42F02002 		orr	r2, r2, #32
 629 004c 3264     		str	r2, [r6, #64]
 630 004e 86F83C30 		strb	r3, [r6, #60]
 631 0052 0120     		movs	r0, #1
 632 0054 27E0     		b	.L78
 633              	.L83:
 634 0056 3368     		ldr	r3, [r6]
 635 0058 5B69     		ldr	r3, [r3, #20]
 636 005a 24EA0303 		bic	r3, r4, r3
 637 005e 9BB2     		uxth	r3, r3
 638 0060 B3FA83F3 		clz	r3, r3
 639 0064 5B09     		lsrs	r3, r3, #5
 640 0066 E5E7     		b	.L77
 641              	.L86:
 642 0068 3368     		ldr	r3, [r6]
 643 006a 5B69     		ldr	r3, [r3, #20]
 644 006c 24EA030C 		bic	ip, r4, r3
 645 0070 1FFA8CFC 		uxth	ip, ip
 646 0074 BCFA8CFC 		clz	ip, ip
ARM GAS  /var/folders/kf/d797ysj14bb1pb7szkr3jbx80000gn/T//ccIy82lf.s 			page 12


 647 0078 4FEA5C1C 		lsr	ip, ip, #5
 648              	.L80:
 649 007c 6745     		cmp	r7, ip
 650 007e 11D1     		bne	.L84
 651 0080 B8F1FF3F 		cmp	r8, #-1
 652 0084 C3D1     		bne	.L85
 653              	.L74:
 654 0086 C4F30745 		ubfx	r5, r4, #16, #8
 655 008a 012D     		cmp	r5, #1
 656 008c ECD0     		beq	.L86
 657 008e 3368     		ldr	r3, [r6]
 658 0090 9B69     		ldr	r3, [r3, #24]
 659 0092 24EA030C 		bic	ip, r4, r3
 660 0096 1FFA8CFC 		uxth	ip, ip
 661 009a BCFA8CFC 		clz	ip, ip
 662 009e 4FEA5C1C 		lsr	ip, ip, #5
 663 00a2 EBE7     		b	.L80
 664              	.L84:
 665 00a4 0020     		movs	r0, #0
 666              	.L78:
 667 00a6 BDE8F081 		pop	{r4, r5, r6, r7, r8, pc}
 669              		.section	.text.I2C_WaitOnMasterAddressFlagUntilTimeout,"ax",%progbits
 670              		.align	1
 671              		.syntax unified
 672              		.thumb
 673              		.thumb_func
 675              	I2C_WaitOnMasterAddressFlagUntilTimeout:
 676              		@ args = 0, pretend = 0, frame = 0
 677              		@ frame_needed = 0, uses_anonymous_args = 0
 678 0000 2DE9F041 		push	{r4, r5, r6, r7, r8, lr}
 679 0004 0446     		mov	r4, r0
 680 0006 0D46     		mov	r5, r1
 681 0008 1746     		mov	r7, r2
 682 000a 9846     		mov	r8, r3
 683 000c 52E0     		b	.L91
 684              	.L101:
 685 000e 1A68     		ldr	r2, [r3]
 686 0010 42F40072 		orr	r2, r2, #512
 687 0014 1A60     		str	r2, [r3]
 688 0016 2368     		ldr	r3, [r4]
 689 0018 6FF48062 		mvn	r2, #1024
 690 001c 5A61     		str	r2, [r3, #20]
 691 001e 0023     		movs	r3, #0
 692 0020 2363     		str	r3, [r4, #48]
 693 0022 2022     		movs	r2, #32
 694 0024 84F83D20 		strb	r2, [r4, #61]
 695 0028 84F83E30 		strb	r3, [r4, #62]
 696 002c 226C     		ldr	r2, [r4, #64]
 697 002e 42F00402 		orr	r2, r2, #4
 698 0032 2264     		str	r2, [r4, #64]
 699 0034 84F83C30 		strb	r3, [r4, #60]
 700 0038 0120     		movs	r0, #1
 701 003a 49E0     		b	.L90
 702              	.L102:
 703 003c FFF7FEFF 		bl	HAL_GetTick
 704 0040 4346     		mov	r3, r8
 705 0042 C01A     		subs	r0, r0, r3
ARM GAS  /var/folders/kf/d797ysj14bb1pb7szkr3jbx80000gn/T//ccIy82lf.s 			page 13


 706 0044 B842     		cmp	r0, r7
 707 0046 01D8     		bhi	.L92
 708 0048 002F     		cmp	r7, #0
 709 004a 33D1     		bne	.L91
 710              	.L92:
 711 004c 012E     		cmp	r6, #1
 712 004e 17D0     		beq	.L99
 713 0050 2368     		ldr	r3, [r4]
 714 0052 9B69     		ldr	r3, [r3, #24]
 715 0054 25EA0303 		bic	r3, r5, r3
 716 0058 9BB2     		uxth	r3, r3
 717 005a 003B     		subs	r3, r3, #0
 718 005c 18BF     		it	ne
 719 005e 0123     		movne	r3, #1
 720              	.L94:
 721 0060 43B3     		cbz	r3, .L91
 722 0062 0023     		movs	r3, #0
 723 0064 2363     		str	r3, [r4, #48]
 724 0066 2022     		movs	r2, #32
 725 0068 84F83D20 		strb	r2, [r4, #61]
 726 006c 84F83E30 		strb	r3, [r4, #62]
 727 0070 226C     		ldr	r2, [r4, #64]
 728 0072 42F02002 		orr	r2, r2, #32
 729 0076 2264     		str	r2, [r4, #64]
 730 0078 84F83C30 		strb	r3, [r4, #60]
 731 007c 0120     		movs	r0, #1
 732 007e 27E0     		b	.L90
 733              	.L99:
 734 0080 2368     		ldr	r3, [r4]
 735 0082 5B69     		ldr	r3, [r3, #20]
 736 0084 25EA0303 		bic	r3, r5, r3
 737 0088 9BB2     		uxth	r3, r3
 738 008a 003B     		subs	r3, r3, #0
 739 008c 18BF     		it	ne
 740 008e 0123     		movne	r3, #1
 741 0090 E6E7     		b	.L94
 742              	.L95:
 743 0092 2368     		ldr	r3, [r4]
 744 0094 9B69     		ldr	r3, [r3, #24]
 745 0096 25EA0303 		bic	r3, r5, r3
 746 009a 9BB2     		uxth	r3, r3
 747 009c 003B     		subs	r3, r3, #0
 748 009e 18BF     		it	ne
 749 00a0 0123     		movne	r3, #1
 750              	.L96:
 751 00a2 A3B1     		cbz	r3, .L100
 752 00a4 2368     		ldr	r3, [r4]
 753 00a6 5A69     		ldr	r2, [r3, #20]
 754 00a8 12F4806F 		tst	r2, #1024
 755 00ac AFD1     		bne	.L101
 756 00ae B7F1FF3F 		cmp	r7, #-1
 757 00b2 C3D1     		bne	.L102
 758              	.L91:
 759 00b4 C5F30746 		ubfx	r6, r5, #16, #8
 760 00b8 012E     		cmp	r6, #1
 761 00ba EAD1     		bne	.L95
 762 00bc 2368     		ldr	r3, [r4]
ARM GAS  /var/folders/kf/d797ysj14bb1pb7szkr3jbx80000gn/T//ccIy82lf.s 			page 14


 763 00be 5B69     		ldr	r3, [r3, #20]
 764 00c0 25EA0303 		bic	r3, r5, r3
 765 00c4 9BB2     		uxth	r3, r3
 766 00c6 003B     		subs	r3, r3, #0
 767 00c8 18BF     		it	ne
 768 00ca 0123     		movne	r3, #1
 769 00cc E9E7     		b	.L96
 770              	.L100:
 771 00ce 1846     		mov	r0, r3
 772              	.L90:
 773 00d0 BDE8F081 		pop	{r4, r5, r6, r7, r8, pc}
 775              		.section	.text.I2C_MasterRequestWrite,"ax",%progbits
 776              		.align	1
 777              		.syntax unified
 778              		.thumb
 779              		.thumb_func
 781              	I2C_MasterRequestWrite:
 782              		@ args = 0, pretend = 0, frame = 0
 783              		@ frame_needed = 0, uses_anonymous_args = 0
 784 0000 F0B5     		push	{r4, r5, r6, r7, lr}
 785 0002 83B0     		sub	sp, sp, #12
 786 0004 0446     		mov	r4, r0
 787 0006 0E46     		mov	r6, r1
 788 0008 1746     		mov	r7, r2
 789 000a 1D46     		mov	r5, r3
 790 000c C36A     		ldr	r3, [r0, #44]
 791 000e 082B     		cmp	r3, #8
 792 0010 0DD0     		beq	.L104
 793 0012 012B     		cmp	r3, #1
 794 0014 0BD0     		beq	.L104
 795 0016 13F5803F 		cmn	r3, #65536
 796 001a 08D0     		beq	.L104
 797 001c 036B     		ldr	r3, [r0, #48]
 798 001e 122B     		cmp	r3, #18
 799 0020 0AD1     		bne	.L106
 800 0022 0268     		ldr	r2, [r0]
 801 0024 1368     		ldr	r3, [r2]
 802 0026 43F48073 		orr	r3, r3, #256
 803 002a 1360     		str	r3, [r2]
 804 002c 04E0     		b	.L106
 805              	.L104:
 806 002e 2268     		ldr	r2, [r4]
 807 0030 1368     		ldr	r3, [r2]
 808 0032 43F48073 		orr	r3, r3, #256
 809 0036 1360     		str	r3, [r2]
 810              	.L106:
 811 0038 0095     		str	r5, [sp]
 812 003a 3B46     		mov	r3, r7
 813 003c 0022     		movs	r2, #0
 814 003e 4FF00111 		mov	r1, #65537
 815 0042 2046     		mov	r0, r4
 816 0044 FFF7FEFF 		bl	I2C_WaitOnFlagUntilTimeout
 817 0048 80B9     		cbnz	r0, .L115
 818 004a 2369     		ldr	r3, [r4, #16]
 819 004c B3F5804F 		cmp	r3, #16384
 820 0050 16D1     		bne	.L110
 821 0052 2368     		ldr	r3, [r4]
ARM GAS  /var/folders/kf/d797ysj14bb1pb7szkr3jbx80000gn/T//ccIy82lf.s 			page 15


 822 0054 06F0FE02 		and	r2, r6, #254
 823 0058 1A61     		str	r2, [r3, #16]
 824              	.L111:
 825 005a 2B46     		mov	r3, r5
 826 005c 3A46     		mov	r2, r7
 827 005e 1349     		ldr	r1, .L117
 828 0060 2046     		mov	r0, r4
 829 0062 FFF7FEFF 		bl	I2C_WaitOnMasterAddressFlagUntilTimeout
 830 0066 F8B9     		cbnz	r0, .L116
 831              	.L109:
 832 0068 03B0     		add	sp, sp, #12
 833              		@ sp needed
 834 006a F0BD     		pop	{r4, r5, r6, r7, pc}
 835              	.L115:
 836 006c 2368     		ldr	r3, [r4]
 837 006e 1B68     		ldr	r3, [r3]
 838 0070 13F4807F 		tst	r3, #256
 839 0074 02D0     		beq	.L108
 840 0076 4FF40073 		mov	r3, #512
 841 007a 2364     		str	r3, [r4, #64]
 842              	.L108:
 843 007c 0320     		movs	r0, #3
 844 007e F3E7     		b	.L109
 845              	.L110:
 846 0080 F311     		asrs	r3, r6, #7
 847 0082 2268     		ldr	r2, [r4]
 848 0084 03F00603 		and	r3, r3, #6
 849 0088 43F0F003 		orr	r3, r3, #240
 850 008c 1361     		str	r3, [r2, #16]
 851 008e 2B46     		mov	r3, r5
 852 0090 3A46     		mov	r2, r7
 853 0092 0749     		ldr	r1, .L117+4
 854 0094 2046     		mov	r0, r4
 855 0096 FFF7FEFF 		bl	I2C_WaitOnMasterAddressFlagUntilTimeout
 856 009a 18B9     		cbnz	r0, .L112
 857 009c 2268     		ldr	r2, [r4]
 858 009e F3B2     		uxtb	r3, r6
 859 00a0 1361     		str	r3, [r2, #16]
 860 00a2 DAE7     		b	.L111
 861              	.L112:
 862 00a4 0120     		movs	r0, #1
 863 00a6 DFE7     		b	.L109
 864              	.L116:
 865 00a8 0120     		movs	r0, #1
 866 00aa DDE7     		b	.L109
 867              	.L118:
 868              		.align	2
 869              	.L117:
 870 00ac 02000100 		.word	65538
 871 00b0 08000100 		.word	65544
 873              		.section	.text.I2C_MasterRequestRead,"ax",%progbits
 874              		.align	1
 875              		.syntax unified
 876              		.thumb
 877              		.thumb_func
 879              	I2C_MasterRequestRead:
 880              		@ args = 0, pretend = 0, frame = 8
ARM GAS  /var/folders/kf/d797ysj14bb1pb7szkr3jbx80000gn/T//ccIy82lf.s 			page 16


 881              		@ frame_needed = 0, uses_anonymous_args = 0
 882 0000 2DE9F041 		push	{r4, r5, r6, r7, r8, lr}
 883 0004 84B0     		sub	sp, sp, #16
 884 0006 0446     		mov	r4, r0
 885 0008 0E46     		mov	r6, r1
 886 000a 1746     		mov	r7, r2
 887 000c 1D46     		mov	r5, r3
 888 000e C26A     		ldr	r2, [r0, #44]
 889 0010 0168     		ldr	r1, [r0]
 890 0012 0B68     		ldr	r3, [r1]
 891 0014 43F48063 		orr	r3, r3, #1024
 892 0018 0B60     		str	r3, [r1]
 893 001a 082A     		cmp	r2, #8
 894 001c 0DD0     		beq	.L120
 895 001e 012A     		cmp	r2, #1
 896 0020 0BD0     		beq	.L120
 897 0022 12F5803F 		cmn	r2, #65536
 898 0026 08D0     		beq	.L120
 899 0028 036B     		ldr	r3, [r0, #48]
 900 002a 112B     		cmp	r3, #17
 901 002c 0AD1     		bne	.L122
 902 002e 0268     		ldr	r2, [r0]
 903 0030 1368     		ldr	r3, [r2]
 904 0032 43F48073 		orr	r3, r3, #256
 905 0036 1360     		str	r3, [r2]
 906 0038 04E0     		b	.L122
 907              	.L120:
 908 003a 2268     		ldr	r2, [r4]
 909 003c 1368     		ldr	r3, [r2]
 910 003e 43F48073 		orr	r3, r3, #256
 911 0042 1360     		str	r3, [r2]
 912              	.L122:
 913 0044 0095     		str	r5, [sp]
 914 0046 3B46     		mov	r3, r7
 915 0048 0022     		movs	r2, #0
 916 004a 4FF00111 		mov	r1, #65537
 917 004e 2046     		mov	r0, r4
 918 0050 FFF7FEFF 		bl	I2C_WaitOnFlagUntilTimeout
 919 0054 98B9     		cbnz	r0, .L134
 920 0056 2369     		ldr	r3, [r4, #16]
 921 0058 B3F5804F 		cmp	r3, #16384
 922 005c 19D1     		bne	.L126
 923 005e 2268     		ldr	r2, [r4]
 924 0060 46F00103 		orr	r3, r6, #1
 925 0064 DBB2     		uxtb	r3, r3
 926 0066 1361     		str	r3, [r2, #16]
 927              	.L127:
 928 0068 2B46     		mov	r3, r5
 929 006a 3A46     		mov	r2, r7
 930 006c 2A49     		ldr	r1, .L139
 931 006e 2046     		mov	r0, r4
 932 0070 FFF7FEFF 		bl	I2C_WaitOnMasterAddressFlagUntilTimeout
 933 0074 0028     		cmp	r0, #0
 934 0076 4DD1     		bne	.L135
 935              	.L125:
 936 0078 04B0     		add	sp, sp, #16
 937              		@ sp needed
ARM GAS  /var/folders/kf/d797ysj14bb1pb7szkr3jbx80000gn/T//ccIy82lf.s 			page 17


 938 007a BDE8F081 		pop	{r4, r5, r6, r7, r8, pc}
 939              	.L134:
 940 007e 2368     		ldr	r3, [r4]
 941 0080 1B68     		ldr	r3, [r3]
 942 0082 13F4807F 		tst	r3, #256
 943 0086 02D0     		beq	.L124
 944 0088 4FF40073 		mov	r3, #512
 945 008c 2364     		str	r3, [r4, #64]
 946              	.L124:
 947 008e 0320     		movs	r0, #3
 948 0090 F2E7     		b	.L125
 949              	.L126:
 950 0092 F311     		asrs	r3, r6, #7
 951 0094 03F00603 		and	r3, r3, #6
 952 0098 1A46     		mov	r2, r3
 953 009a 9846     		mov	r8, r3
 954 009c 2368     		ldr	r3, [r4]
 955 009e 42F0F002 		orr	r2, r2, #240
 956 00a2 1A61     		str	r2, [r3, #16]
 957 00a4 2B46     		mov	r3, r5
 958 00a6 3A46     		mov	r2, r7
 959 00a8 1C49     		ldr	r1, .L139+4
 960 00aa 2046     		mov	r0, r4
 961 00ac FFF7FEFF 		bl	I2C_WaitOnMasterAddressFlagUntilTimeout
 962 00b0 08B1     		cbz	r0, .L136
 963 00b2 0120     		movs	r0, #1
 964 00b4 E0E7     		b	.L125
 965              	.L136:
 966 00b6 2268     		ldr	r2, [r4]
 967 00b8 F3B2     		uxtb	r3, r6
 968 00ba 1361     		str	r3, [r2, #16]
 969 00bc 2B46     		mov	r3, r5
 970 00be 3A46     		mov	r2, r7
 971 00c0 1549     		ldr	r1, .L139
 972 00c2 2046     		mov	r0, r4
 973 00c4 FFF7FEFF 		bl	I2C_WaitOnMasterAddressFlagUntilTimeout
 974 00c8 08B1     		cbz	r0, .L137
 975 00ca 0120     		movs	r0, #1
 976 00cc D4E7     		b	.L125
 977              	.L137:
 978 00ce 0246     		mov	r2, r0
 979 00d0 0390     		str	r0, [sp, #12]
 980 00d2 2368     		ldr	r3, [r4]
 981 00d4 5969     		ldr	r1, [r3, #20]
 982 00d6 0391     		str	r1, [sp, #12]
 983 00d8 9969     		ldr	r1, [r3, #24]
 984 00da 0391     		str	r1, [sp, #12]
 985 00dc 0399     		ldr	r1, [sp, #12]
 986 00de 1968     		ldr	r1, [r3]
 987 00e0 41F48071 		orr	r1, r1, #256
 988 00e4 1960     		str	r1, [r3]
 989 00e6 0095     		str	r5, [sp]
 990 00e8 3B46     		mov	r3, r7
 991 00ea 4FF00111 		mov	r1, #65537
 992 00ee 2046     		mov	r0, r4
 993 00f0 FFF7FEFF 		bl	I2C_WaitOnFlagUntilTimeout
 994 00f4 20B9     		cbnz	r0, .L138
ARM GAS  /var/folders/kf/d797ysj14bb1pb7szkr3jbx80000gn/T//ccIy82lf.s 			page 18


 995 00f6 2268     		ldr	r2, [r4]
 996 00f8 48F0F103 		orr	r3, r8, #241
 997 00fc 1361     		str	r3, [r2, #16]
 998 00fe B3E7     		b	.L127
 999              	.L138:
 1000 0100 2368     		ldr	r3, [r4]
 1001 0102 1B68     		ldr	r3, [r3]
 1002 0104 13F4807F 		tst	r3, #256
 1003 0108 02D0     		beq	.L129
 1004 010a 4FF40073 		mov	r3, #512
 1005 010e 2364     		str	r3, [r4, #64]
 1006              	.L129:
 1007 0110 0320     		movs	r0, #3
 1008 0112 B1E7     		b	.L125
 1009              	.L135:
 1010 0114 0120     		movs	r0, #1
 1011 0116 AFE7     		b	.L125
 1012              	.L140:
 1013              		.align	2
 1014              	.L139:
 1015 0118 02000100 		.word	65538
 1016 011c 08000100 		.word	65544
 1018              		.section	.text.I2C_WaitOnTXEFlagUntilTimeout,"ax",%progbits
 1019              		.align	1
 1020              		.syntax unified
 1021              		.thumb
 1022              		.thumb_func
 1024              	I2C_WaitOnTXEFlagUntilTimeout:
 1025              		@ args = 0, pretend = 0, frame = 0
 1026              		@ frame_needed = 0, uses_anonymous_args = 0
 1027 0000 70B5     		push	{r4, r5, r6, lr}
 1028 0002 0446     		mov	r4, r0
 1029 0004 0D46     		mov	r5, r1
 1030 0006 1646     		mov	r6, r2
 1031              	.L144:
 1032 0008 2368     		ldr	r3, [r4]
 1033 000a 5B69     		ldr	r3, [r3, #20]
 1034 000c 13F0800F 		tst	r3, #128
 1035 0010 21D1     		bne	.L149
 1036 0012 2046     		mov	r0, r4
 1037 0014 FFF7FEFF 		bl	I2C_IsAcknowledgeFailed
 1038 0018 F8B9     		cbnz	r0, .L147
 1039 001a B5F1FF3F 		cmp	r5, #-1
 1040 001e F3D0     		beq	.L144
 1041 0020 FFF7FEFF 		bl	HAL_GetTick
 1042 0024 801B     		subs	r0, r0, r6
 1043 0026 A842     		cmp	r0, r5
 1044 0028 01D8     		bhi	.L145
 1045 002a 002D     		cmp	r5, #0
 1046 002c ECD1     		bne	.L144
 1047              	.L145:
 1048 002e 2368     		ldr	r3, [r4]
 1049 0030 5B69     		ldr	r3, [r3, #20]
 1050 0032 13F0800F 		tst	r3, #128
 1051 0036 E7D1     		bne	.L144
 1052 0038 0023     		movs	r3, #0
 1053 003a 2363     		str	r3, [r4, #48]
ARM GAS  /var/folders/kf/d797ysj14bb1pb7szkr3jbx80000gn/T//ccIy82lf.s 			page 19


 1054 003c 2022     		movs	r2, #32
 1055 003e 84F83D20 		strb	r2, [r4, #61]
 1056 0042 84F83E30 		strb	r3, [r4, #62]
 1057 0046 226C     		ldr	r2, [r4, #64]
 1058 0048 42F02002 		orr	r2, r2, #32
 1059 004c 2264     		str	r2, [r4, #64]
 1060 004e 84F83C30 		strb	r3, [r4, #60]
 1061 0052 0120     		movs	r0, #1
 1062 0054 00E0     		b	.L143
 1063              	.L149:
 1064 0056 0020     		movs	r0, #0
 1065              	.L143:
 1066 0058 70BD     		pop	{r4, r5, r6, pc}
 1067              	.L147:
 1068 005a 0120     		movs	r0, #1
 1069 005c FCE7     		b	.L143
 1071              		.section	.text.I2C_RequestMemoryWrite,"ax",%progbits
 1072              		.align	1
 1073              		.syntax unified
 1074              		.thumb
 1075              		.thumb_func
 1077              	I2C_RequestMemoryWrite:
 1078              		@ args = 8, pretend = 0, frame = 8
 1079              		@ frame_needed = 0, uses_anonymous_args = 0
 1080 0000 F0B5     		push	{r4, r5, r6, r7, lr}
 1081 0002 85B0     		sub	sp, sp, #20
 1082 0004 0446     		mov	r4, r0
 1083 0006 0D46     		mov	r5, r1
 1084 0008 1646     		mov	r6, r2
 1085 000a 1F46     		mov	r7, r3
 1086 000c 0368     		ldr	r3, [r0]
 1087 000e 1968     		ldr	r1, [r3]
 1088 0010 41F48071 		orr	r1, r1, #256
 1089 0014 1960     		str	r1, [r3]
 1090 0016 0B9B     		ldr	r3, [sp, #44]
 1091 0018 0093     		str	r3, [sp]
 1092 001a 0A9B     		ldr	r3, [sp, #40]
 1093 001c 0022     		movs	r2, #0
 1094 001e 4FF00111 		mov	r1, #65537
 1095 0022 FFF7FEFF 		bl	I2C_WaitOnFlagUntilTimeout
 1096 0026 60B9     		cbnz	r0, .L161
 1097 0028 2268     		ldr	r2, [r4]
 1098 002a 05F0FE03 		and	r3, r5, #254
 1099 002e 1361     		str	r3, [r2, #16]
 1100 0030 0B9B     		ldr	r3, [sp, #44]
 1101 0032 0A9A     		ldr	r2, [sp, #40]
 1102 0034 2349     		ldr	r1, .L167
 1103 0036 2046     		mov	r0, r4
 1104 0038 FFF7FEFF 		bl	I2C_WaitOnMasterAddressFlagUntilTimeout
 1105 003c 60B1     		cbz	r0, .L162
 1106 003e 0120     		movs	r0, #1
 1107 0040 08E0     		b	.L153
 1108              	.L161:
 1109 0042 2368     		ldr	r3, [r4]
 1110 0044 1B68     		ldr	r3, [r3]
 1111 0046 13F4807F 		tst	r3, #256
 1112 004a 02D0     		beq	.L152
ARM GAS  /var/folders/kf/d797ysj14bb1pb7szkr3jbx80000gn/T//ccIy82lf.s 			page 20


 1113 004c 4FF40073 		mov	r3, #512
 1114 0050 2364     		str	r3, [r4, #64]
 1115              	.L152:
 1116 0052 0320     		movs	r0, #3
 1117              	.L153:
 1118 0054 05B0     		add	sp, sp, #20
 1119              		@ sp needed
 1120 0056 F0BD     		pop	{r4, r5, r6, r7, pc}
 1121              	.L162:
 1122 0058 0390     		str	r0, [sp, #12]
 1123 005a 2368     		ldr	r3, [r4]
 1124 005c 5A69     		ldr	r2, [r3, #20]
 1125 005e 0392     		str	r2, [sp, #12]
 1126 0060 9B69     		ldr	r3, [r3, #24]
 1127 0062 0393     		str	r3, [sp, #12]
 1128 0064 039B     		ldr	r3, [sp, #12]
 1129 0066 0B9A     		ldr	r2, [sp, #44]
 1130 0068 0A99     		ldr	r1, [sp, #40]
 1131 006a 2046     		mov	r0, r4
 1132 006c FFF7FEFF 		bl	I2C_WaitOnTXEFlagUntilTimeout
 1133 0070 28B9     		cbnz	r0, .L163
 1134 0072 012F     		cmp	r7, #1
 1135 0074 0ED1     		bne	.L156
 1136 0076 2368     		ldr	r3, [r4]
 1137 0078 F2B2     		uxtb	r2, r6
 1138 007a 1A61     		str	r2, [r3, #16]
 1139 007c EAE7     		b	.L153
 1140              	.L163:
 1141 007e 236C     		ldr	r3, [r4, #64]
 1142 0080 042B     		cmp	r3, #4
 1143 0082 01D0     		beq	.L164
 1144              	.L155:
 1145 0084 0120     		movs	r0, #1
 1146 0086 E5E7     		b	.L153
 1147              	.L164:
 1148 0088 2268     		ldr	r2, [r4]
 1149 008a 1368     		ldr	r3, [r2]
 1150 008c 43F40073 		orr	r3, r3, #512
 1151 0090 1360     		str	r3, [r2]
 1152 0092 F7E7     		b	.L155
 1153              	.L156:
 1154 0094 330A     		lsrs	r3, r6, #8
 1155 0096 2268     		ldr	r2, [r4]
 1156 0098 1361     		str	r3, [r2, #16]
 1157 009a 0B9A     		ldr	r2, [sp, #44]
 1158 009c 0A99     		ldr	r1, [sp, #40]
 1159 009e 2046     		mov	r0, r4
 1160 00a0 FFF7FEFF 		bl	I2C_WaitOnTXEFlagUntilTimeout
 1161 00a4 18B9     		cbnz	r0, .L165
 1162 00a6 2268     		ldr	r2, [r4]
 1163 00a8 F3B2     		uxtb	r3, r6
 1164 00aa 1361     		str	r3, [r2, #16]
 1165 00ac D2E7     		b	.L153
 1166              	.L165:
 1167 00ae 236C     		ldr	r3, [r4, #64]
 1168 00b0 042B     		cmp	r3, #4
 1169 00b2 01D0     		beq	.L166
ARM GAS  /var/folders/kf/d797ysj14bb1pb7szkr3jbx80000gn/T//ccIy82lf.s 			page 21


 1170              	.L158:
 1171 00b4 0120     		movs	r0, #1
 1172 00b6 CDE7     		b	.L153
 1173              	.L166:
 1174 00b8 2268     		ldr	r2, [r4]
 1175 00ba 1368     		ldr	r3, [r2]
 1176 00bc 43F40073 		orr	r3, r3, #512
 1177 00c0 1360     		str	r3, [r2]
 1178 00c2 F7E7     		b	.L158
 1179              	.L168:
 1180              		.align	2
 1181              	.L167:
 1182 00c4 02000100 		.word	65538
 1184              		.section	.text.I2C_RequestMemoryRead,"ax",%progbits
 1185              		.align	1
 1186              		.syntax unified
 1187              		.thumb
 1188              		.thumb_func
 1190              	I2C_RequestMemoryRead:
 1191              		@ args = 8, pretend = 0, frame = 8
 1192              		@ frame_needed = 0, uses_anonymous_args = 0
 1193 0000 F0B5     		push	{r4, r5, r6, r7, lr}
 1194 0002 85B0     		sub	sp, sp, #20
 1195 0004 0446     		mov	r4, r0
 1196 0006 0D46     		mov	r5, r1
 1197 0008 1646     		mov	r6, r2
 1198 000a 1F46     		mov	r7, r3
 1199 000c 0268     		ldr	r2, [r0]
 1200 000e 1368     		ldr	r3, [r2]
 1201 0010 43F48063 		orr	r3, r3, #1024
 1202 0014 1360     		str	r3, [r2]
 1203 0016 0268     		ldr	r2, [r0]
 1204 0018 1368     		ldr	r3, [r2]
 1205 001a 43F48073 		orr	r3, r3, #256
 1206 001e 1360     		str	r3, [r2]
 1207 0020 0B9B     		ldr	r3, [sp, #44]
 1208 0022 0093     		str	r3, [sp]
 1209 0024 0A9B     		ldr	r3, [sp, #40]
 1210 0026 0022     		movs	r2, #0
 1211 0028 4FF00111 		mov	r1, #65537
 1212 002c FFF7FEFF 		bl	I2C_WaitOnFlagUntilTimeout
 1213 0030 60B9     		cbnz	r0, .L186
 1214 0032 2368     		ldr	r3, [r4]
 1215 0034 05F0FE02 		and	r2, r5, #254
 1216 0038 1A61     		str	r2, [r3, #16]
 1217 003a 0B9B     		ldr	r3, [sp, #44]
 1218 003c 0A9A     		ldr	r2, [sp, #40]
 1219 003e 4049     		ldr	r1, .L194
 1220 0040 2046     		mov	r0, r4
 1221 0042 FFF7FEFF 		bl	I2C_WaitOnMasterAddressFlagUntilTimeout
 1222 0046 60B1     		cbz	r0, .L187
 1223 0048 0120     		movs	r0, #1
 1224 004a 08E0     		b	.L172
 1225              	.L186:
 1226 004c 2368     		ldr	r3, [r4]
 1227 004e 1B68     		ldr	r3, [r3]
 1228 0050 13F4807F 		tst	r3, #256
ARM GAS  /var/folders/kf/d797ysj14bb1pb7szkr3jbx80000gn/T//ccIy82lf.s 			page 22


 1229 0054 02D0     		beq	.L171
 1230 0056 4FF40073 		mov	r3, #512
 1231 005a 2364     		str	r3, [r4, #64]
 1232              	.L171:
 1233 005c 0320     		movs	r0, #3
 1234              	.L172:
 1235 005e 05B0     		add	sp, sp, #20
 1236              		@ sp needed
 1237 0060 F0BD     		pop	{r4, r5, r6, r7, pc}
 1238              	.L187:
 1239 0062 0390     		str	r0, [sp, #12]
 1240 0064 2368     		ldr	r3, [r4]
 1241 0066 5A69     		ldr	r2, [r3, #20]
 1242 0068 0392     		str	r2, [sp, #12]
 1243 006a 9B69     		ldr	r3, [r3, #24]
 1244 006c 0393     		str	r3, [sp, #12]
 1245 006e 039B     		ldr	r3, [sp, #12]
 1246 0070 0B9A     		ldr	r2, [sp, #44]
 1247 0072 0A99     		ldr	r1, [sp, #40]
 1248 0074 2046     		mov	r0, r4
 1249 0076 FFF7FEFF 		bl	I2C_WaitOnTXEFlagUntilTimeout
 1250 007a 80B9     		cbnz	r0, .L188
 1251 007c 012F     		cmp	r7, #1
 1252 007e 19D1     		bne	.L175
 1253 0080 2368     		ldr	r3, [r4]
 1254 0082 F2B2     		uxtb	r2, r6
 1255 0084 1A61     		str	r2, [r3, #16]
 1256              	.L176:
 1257 0086 0B9A     		ldr	r2, [sp, #44]
 1258 0088 0A99     		ldr	r1, [sp, #40]
 1259 008a 2046     		mov	r0, r4
 1260 008c FFF7FEFF 		bl	I2C_WaitOnTXEFlagUntilTimeout
 1261 0090 0028     		cmp	r0, #0
 1262 0092 2DD0     		beq	.L179
 1263 0094 236C     		ldr	r3, [r4, #64]
 1264 0096 042B     		cmp	r3, #4
 1265 0098 24D0     		beq	.L189
 1266              	.L180:
 1267 009a 0120     		movs	r0, #1
 1268 009c DFE7     		b	.L172
 1269              	.L188:
 1270 009e 236C     		ldr	r3, [r4, #64]
 1271 00a0 042B     		cmp	r3, #4
 1272 00a2 01D0     		beq	.L190
 1273              	.L174:
 1274 00a4 0120     		movs	r0, #1
 1275 00a6 DAE7     		b	.L172
 1276              	.L190:
 1277 00a8 2268     		ldr	r2, [r4]
 1278 00aa 1368     		ldr	r3, [r2]
 1279 00ac 43F40073 		orr	r3, r3, #512
 1280 00b0 1360     		str	r3, [r2]
 1281 00b2 F7E7     		b	.L174
 1282              	.L175:
 1283 00b4 330A     		lsrs	r3, r6, #8
 1284 00b6 2268     		ldr	r2, [r4]
 1285 00b8 1361     		str	r3, [r2, #16]
ARM GAS  /var/folders/kf/d797ysj14bb1pb7szkr3jbx80000gn/T//ccIy82lf.s 			page 23


 1286 00ba 0B9A     		ldr	r2, [sp, #44]
 1287 00bc 0A99     		ldr	r1, [sp, #40]
 1288 00be 2046     		mov	r0, r4
 1289 00c0 FFF7FEFF 		bl	I2C_WaitOnTXEFlagUntilTimeout
 1290 00c4 18B9     		cbnz	r0, .L191
 1291 00c6 2268     		ldr	r2, [r4]
 1292 00c8 F3B2     		uxtb	r3, r6
 1293 00ca 1361     		str	r3, [r2, #16]
 1294 00cc DBE7     		b	.L176
 1295              	.L191:
 1296 00ce 236C     		ldr	r3, [r4, #64]
 1297 00d0 042B     		cmp	r3, #4
 1298 00d2 01D0     		beq	.L192
 1299              	.L178:
 1300 00d4 0120     		movs	r0, #1
 1301 00d6 C2E7     		b	.L172
 1302              	.L192:
 1303 00d8 2268     		ldr	r2, [r4]
 1304 00da 1368     		ldr	r3, [r2]
 1305 00dc 43F40073 		orr	r3, r3, #512
 1306 00e0 1360     		str	r3, [r2]
 1307 00e2 F7E7     		b	.L178
 1308              	.L189:
 1309 00e4 2268     		ldr	r2, [r4]
 1310 00e6 1368     		ldr	r3, [r2]
 1311 00e8 43F40073 		orr	r3, r3, #512
 1312 00ec 1360     		str	r3, [r2]
 1313 00ee D4E7     		b	.L180
 1314              	.L179:
 1315 00f0 2268     		ldr	r2, [r4]
 1316 00f2 1368     		ldr	r3, [r2]
 1317 00f4 43F48073 		orr	r3, r3, #256
 1318 00f8 1360     		str	r3, [r2]
 1319 00fa 0B9B     		ldr	r3, [sp, #44]
 1320 00fc 0093     		str	r3, [sp]
 1321 00fe 0A9B     		ldr	r3, [sp, #40]
 1322 0100 0246     		mov	r2, r0
 1323 0102 4FF00111 		mov	r1, #65537
 1324 0106 2046     		mov	r0, r4
 1325 0108 FFF7FEFF 		bl	I2C_WaitOnFlagUntilTimeout
 1326 010c 70B9     		cbnz	r0, .L193
 1327 010e 2268     		ldr	r2, [r4]
 1328 0110 45F00103 		orr	r3, r5, #1
 1329 0114 DBB2     		uxtb	r3, r3
 1330 0116 1361     		str	r3, [r2, #16]
 1331 0118 0B9B     		ldr	r3, [sp, #44]
 1332 011a 0A9A     		ldr	r2, [sp, #40]
 1333 011c 0849     		ldr	r1, .L194
 1334 011e 2046     		mov	r0, r4
 1335 0120 FFF7FEFF 		bl	I2C_WaitOnMasterAddressFlagUntilTimeout
 1336 0124 0028     		cmp	r0, #0
 1337 0126 9AD0     		beq	.L172
 1338 0128 0120     		movs	r0, #1
 1339 012a 98E7     		b	.L172
 1340              	.L193:
 1341 012c 2368     		ldr	r3, [r4]
 1342 012e 1B68     		ldr	r3, [r3]
ARM GAS  /var/folders/kf/d797ysj14bb1pb7szkr3jbx80000gn/T//ccIy82lf.s 			page 24


 1343 0130 13F4807F 		tst	r3, #256
 1344 0134 02D0     		beq	.L182
 1345 0136 4FF40073 		mov	r3, #512
 1346 013a 2364     		str	r3, [r4, #64]
 1347              	.L182:
 1348 013c 0320     		movs	r0, #3
 1349 013e 8EE7     		b	.L172
 1350              	.L195:
 1351              		.align	2
 1352              	.L194:
 1353 0140 02000100 		.word	65538
 1355              		.section	.text.I2C_WaitOnBTFFlagUntilTimeout,"ax",%progbits
 1356              		.align	1
 1357              		.syntax unified
 1358              		.thumb
 1359              		.thumb_func
 1361              	I2C_WaitOnBTFFlagUntilTimeout:
 1362              		@ args = 0, pretend = 0, frame = 0
 1363              		@ frame_needed = 0, uses_anonymous_args = 0
 1364 0000 70B5     		push	{r4, r5, r6, lr}
 1365 0002 0446     		mov	r4, r0
 1366 0004 0D46     		mov	r5, r1
 1367 0006 1646     		mov	r6, r2
 1368              	.L199:
 1369 0008 2368     		ldr	r3, [r4]
 1370 000a 5B69     		ldr	r3, [r3, #20]
 1371 000c 13F0040F 		tst	r3, #4
 1372 0010 21D1     		bne	.L204
 1373 0012 2046     		mov	r0, r4
 1374 0014 FFF7FEFF 		bl	I2C_IsAcknowledgeFailed
 1375 0018 F8B9     		cbnz	r0, .L202
 1376 001a B5F1FF3F 		cmp	r5, #-1
 1377 001e F3D0     		beq	.L199
 1378 0020 FFF7FEFF 		bl	HAL_GetTick
 1379 0024 801B     		subs	r0, r0, r6
 1380 0026 A842     		cmp	r0, r5
 1381 0028 01D8     		bhi	.L200
 1382 002a 002D     		cmp	r5, #0
 1383 002c ECD1     		bne	.L199
 1384              	.L200:
 1385 002e 2368     		ldr	r3, [r4]
 1386 0030 5B69     		ldr	r3, [r3, #20]
 1387 0032 13F0040F 		tst	r3, #4
 1388 0036 E7D1     		bne	.L199
 1389 0038 0023     		movs	r3, #0
 1390 003a 2363     		str	r3, [r4, #48]
 1391 003c 2022     		movs	r2, #32
 1392 003e 84F83D20 		strb	r2, [r4, #61]
 1393 0042 84F83E30 		strb	r3, [r4, #62]
 1394 0046 226C     		ldr	r2, [r4, #64]
 1395 0048 42F02002 		orr	r2, r2, #32
 1396 004c 2264     		str	r2, [r4, #64]
 1397 004e 84F83C30 		strb	r3, [r4, #60]
 1398 0052 0120     		movs	r0, #1
 1399 0054 00E0     		b	.L198
 1400              	.L204:
 1401 0056 0020     		movs	r0, #0
ARM GAS  /var/folders/kf/d797ysj14bb1pb7szkr3jbx80000gn/T//ccIy82lf.s 			page 25


 1402              	.L198:
 1403 0058 70BD     		pop	{r4, r5, r6, pc}
 1404              	.L202:
 1405 005a 0120     		movs	r0, #1
 1406 005c FCE7     		b	.L198
 1408              		.section	.text.I2C_WaitOnRXNEFlagUntilTimeout,"ax",%progbits
 1409              		.align	1
 1410              		.syntax unified
 1411              		.thumb
 1412              		.thumb_func
 1414              	I2C_WaitOnRXNEFlagUntilTimeout:
 1415              		@ args = 0, pretend = 0, frame = 0
 1416              		@ frame_needed = 0, uses_anonymous_args = 0
 1417 0000 70B5     		push	{r4, r5, r6, lr}
 1418 0002 0446     		mov	r4, r0
 1419 0004 0D46     		mov	r5, r1
 1420 0006 1646     		mov	r6, r2
 1421 0008 14E0     		b	.L206
 1422              	.L214:
 1423 000a 6FF01002 		mvn	r2, #16
 1424 000e 5A61     		str	r2, [r3, #20]
 1425 0010 0023     		movs	r3, #0
 1426 0012 2363     		str	r3, [r4, #48]
 1427 0014 2022     		movs	r2, #32
 1428 0016 84F83D20 		strb	r2, [r4, #61]
 1429 001a 84F83E30 		strb	r3, [r4, #62]
 1430 001e 226C     		ldr	r2, [r4, #64]
 1431 0020 2264     		str	r2, [r4, #64]
 1432 0022 84F83C30 		strb	r3, [r4, #60]
 1433 0026 0120     		movs	r0, #1
 1434 0028 25E0     		b	.L208
 1435              	.L209:
 1436 002a 2368     		ldr	r3, [r4]
 1437 002c 5B69     		ldr	r3, [r3, #20]
 1438 002e 13F0400F 		tst	r3, #64
 1439 0032 10D0     		beq	.L212
 1440              	.L206:
 1441 0034 2368     		ldr	r3, [r4]
 1442 0036 5869     		ldr	r0, [r3, #20]
 1443 0038 10F0400F 		tst	r0, #64
 1444 003c 1AD1     		bne	.L213
 1445 003e 5869     		ldr	r0, [r3, #20]
 1446 0040 10F0100F 		tst	r0, #16
 1447 0044 E1D1     		bne	.L214
 1448 0046 FFF7FEFF 		bl	HAL_GetTick
 1449 004a 801B     		subs	r0, r0, r6
 1450 004c A842     		cmp	r0, r5
 1451 004e ECD8     		bhi	.L209
 1452 0050 002D     		cmp	r5, #0
 1453 0052 EFD1     		bne	.L206
 1454 0054 E9E7     		b	.L209
 1455              	.L212:
 1456 0056 0023     		movs	r3, #0
 1457 0058 2363     		str	r3, [r4, #48]
 1458 005a 2022     		movs	r2, #32
 1459 005c 84F83D20 		strb	r2, [r4, #61]
 1460 0060 84F83E30 		strb	r3, [r4, #62]
ARM GAS  /var/folders/kf/d797ysj14bb1pb7szkr3jbx80000gn/T//ccIy82lf.s 			page 26


 1461 0064 226C     		ldr	r2, [r4, #64]
 1462 0066 42F02002 		orr	r2, r2, #32
 1463 006a 2264     		str	r2, [r4, #64]
 1464 006c 84F83C30 		strb	r3, [r4, #60]
 1465 0070 0120     		movs	r0, #1
 1466 0072 00E0     		b	.L208
 1467              	.L213:
 1468 0074 0020     		movs	r0, #0
 1469              	.L208:
 1470 0076 70BD     		pop	{r4, r5, r6, pc}
 1472              		.section	.text.I2C_WaitOnSTOPFlagUntilTimeout,"ax",%progbits
 1473              		.align	1
 1474              		.syntax unified
 1475              		.thumb
 1476              		.thumb_func
 1478              	I2C_WaitOnSTOPFlagUntilTimeout:
 1479              		@ args = 0, pretend = 0, frame = 0
 1480              		@ frame_needed = 0, uses_anonymous_args = 0
 1481 0000 70B5     		push	{r4, r5, r6, lr}
 1482 0002 0446     		mov	r4, r0
 1483 0004 0D46     		mov	r5, r1
 1484 0006 1646     		mov	r6, r2
 1485 0008 04E0     		b	.L216
 1486              	.L218:
 1487 000a 2368     		ldr	r3, [r4]
 1488 000c 5B69     		ldr	r3, [r3, #20]
 1489 000e 13F0100F 		tst	r3, #16
 1490 0012 10D0     		beq	.L222
 1491              	.L216:
 1492 0014 2368     		ldr	r3, [r4]
 1493 0016 5B69     		ldr	r3, [r3, #20]
 1494 0018 13F0100F 		tst	r3, #16
 1495 001c 1AD1     		bne	.L223
 1496 001e 2046     		mov	r0, r4
 1497 0020 FFF7FEFF 		bl	I2C_IsAcknowledgeFailed
 1498 0024 C0B9     		cbnz	r0, .L220
 1499 0026 FFF7FEFF 		bl	HAL_GetTick
 1500 002a 801B     		subs	r0, r0, r6
 1501 002c A842     		cmp	r0, r5
 1502 002e ECD8     		bhi	.L218
 1503 0030 002D     		cmp	r5, #0
 1504 0032 EFD1     		bne	.L216
 1505 0034 E9E7     		b	.L218
 1506              	.L222:
 1507 0036 0023     		movs	r3, #0
 1508 0038 2363     		str	r3, [r4, #48]
 1509 003a 2022     		movs	r2, #32
 1510 003c 84F83D20 		strb	r2, [r4, #61]
 1511 0040 84F83E30 		strb	r3, [r4, #62]
 1512 0044 226C     		ldr	r2, [r4, #64]
 1513 0046 42F02002 		orr	r2, r2, #32
 1514 004a 2264     		str	r2, [r4, #64]
 1515 004c 84F83C30 		strb	r3, [r4, #60]
 1516 0050 0120     		movs	r0, #1
 1517 0052 00E0     		b	.L217
 1518              	.L223:
 1519 0054 0020     		movs	r0, #0
ARM GAS  /var/folders/kf/d797ysj14bb1pb7szkr3jbx80000gn/T//ccIy82lf.s 			page 27


 1520              	.L217:
 1521 0056 70BD     		pop	{r4, r5, r6, pc}
 1522              	.L220:
 1523 0058 0120     		movs	r0, #1
 1524 005a FCE7     		b	.L217
 1526              		.section	.text.HAL_I2C_MspInit,"ax",%progbits
 1527              		.align	1
 1528              		.weak	HAL_I2C_MspInit
 1529              		.syntax unified
 1530              		.thumb
 1531              		.thumb_func
 1533              	HAL_I2C_MspInit:
 1534              		@ args = 0, pretend = 0, frame = 0
 1535              		@ frame_needed = 0, uses_anonymous_args = 0
 1536              		@ link register save eliminated.
 1537 0000 7047     		bx	lr
 1539              		.section	.text.HAL_I2C_Init,"ax",%progbits
 1540              		.align	1
 1541              		.global	HAL_I2C_Init
 1542              		.syntax unified
 1543              		.thumb
 1544              		.thumb_func
 1546              	HAL_I2C_Init:
 1547              		@ args = 0, pretend = 0, frame = 0
 1548              		@ frame_needed = 0, uses_anonymous_args = 0
 1549 0000 0028     		cmp	r0, #0
 1550 0002 00F0DA80 		beq	.L237
 1551 0006 38B5     		push	{r3, r4, r5, lr}
 1552 0008 0446     		mov	r4, r0
 1553 000a 90F83D30 		ldrb	r3, [r0, #61]	@ zero_extendqisi2
 1554 000e 002B     		cmp	r3, #0
 1555 0010 51D0     		beq	.L245
 1556              	.L227:
 1557 0012 2423     		movs	r3, #36
 1558 0014 84F83D30 		strb	r3, [r4, #61]
 1559 0018 2268     		ldr	r2, [r4]
 1560 001a 1368     		ldr	r3, [r2]
 1561 001c 23F00103 		bic	r3, r3, #1
 1562 0020 1360     		str	r3, [r2]
 1563 0022 2268     		ldr	r2, [r4]
 1564 0024 1368     		ldr	r3, [r2]
 1565 0026 43F40043 		orr	r3, r3, #32768
 1566 002a 1360     		str	r3, [r2]
 1567 002c 2268     		ldr	r2, [r4]
 1568 002e 1368     		ldr	r3, [r2]
 1569 0030 23F40043 		bic	r3, r3, #32768
 1570 0034 1360     		str	r3, [r2]
 1571 0036 FFF7FEFF 		bl	HAL_RCC_GetPCLK1Freq
 1572 003a 6268     		ldr	r2, [r4, #4]
 1573 003c 614B     		ldr	r3, .L246
 1574 003e 9A42     		cmp	r2, r3
 1575 0040 3ED8     		bhi	.L228
 1576 0042 614B     		ldr	r3, .L246+4
 1577 0044 9842     		cmp	r0, r3
 1578 0046 8CBF     		ite	hi
 1579 0048 0023     		movhi	r3, #0
 1580 004a 0123     		movls	r3, #1
ARM GAS  /var/folders/kf/d797ysj14bb1pb7szkr3jbx80000gn/T//ccIy82lf.s 			page 28


 1581              	.L229:
 1582 004c 002B     		cmp	r3, #0
 1583 004e 40F0B680 		bne	.L238
 1584 0052 5E49     		ldr	r1, .L246+8
 1585 0054 A1FB0031 		umull	r3, r1, r1, r0
 1586 0058 8B0C     		lsrs	r3, r1, #18
 1587 005a D4F800C0 		ldr	ip, [r4]
 1588 005e DCF80420 		ldr	r2, [ip, #4]
 1589 0062 22F03F02 		bic	r2, r2, #63
 1590 0066 42EA9142 		orr	r2, r2, r1, lsr #18
 1591 006a CCF80420 		str	r2, [ip, #4]
 1592 006e 2168     		ldr	r1, [r4]
 1593 0070 0A6A     		ldr	r2, [r1, #32]
 1594 0072 22F03F02 		bic	r2, r2, #63
 1595 0076 DFF84CC1 		ldr	ip, .L246
 1596 007a 6568     		ldr	r5, [r4, #4]
 1597 007c 6545     		cmp	r5, ip
 1598 007e 25D8     		bhi	.L230
 1599 0080 0133     		adds	r3, r3, #1
 1600              	.L231:
 1601 0082 1343     		orrs	r3, r3, r2
 1602 0084 0B62     		str	r3, [r1, #32]
 1603 0086 2168     		ldr	r1, [r4]
 1604 0088 CA69     		ldr	r2, [r1, #28]
 1605 008a 22F44F42 		bic	r2, r2, #52992
 1606 008e 22F0FF02 		bic	r2, r2, #255
 1607 0092 D4F804C0 		ldr	ip, [r4, #4]
 1608 0096 4B4B     		ldr	r3, .L246
 1609 0098 9C45     		cmp	ip, r3
 1610 009a 22D8     		bhi	.L232
 1611 009c 431E     		subs	r3, r0, #1
 1612 009e 4FEA4C0C 		lsl	ip, ip, #1
 1613 00a2 B3FBFCF3 		udiv	r3, r3, ip
 1614 00a6 0133     		adds	r3, r3, #1
 1615 00a8 40F6FC70 		movw	r0, #4092
 1616 00ac 0342     		tst	r3, r0
 1617 00ae 54D0     		beq	.L239
 1618 00b0 C3F30B03 		ubfx	r3, r3, #0, #12
 1619 00b4 52E0     		b	.L233
 1620              	.L245:
 1621 00b6 80F83C30 		strb	r3, [r0, #60]
 1622 00ba FFF7FEFF 		bl	HAL_I2C_MspInit
 1623 00be A8E7     		b	.L227
 1624              	.L228:
 1625 00c0 434B     		ldr	r3, .L246+12
 1626 00c2 9842     		cmp	r0, r3
 1627 00c4 8CBF     		ite	hi
 1628 00c6 0023     		movhi	r3, #0
 1629 00c8 0123     		movls	r3, #1
 1630 00ca BFE7     		b	.L229
 1631              	.L230:
 1632 00cc 4FF4967C 		mov	ip, #300
 1633 00d0 0CFB03F3 		mul	r3, ip, r3
 1634 00d4 DFF8FCC0 		ldr	ip, .L246+16
 1635 00d8 ACFB03C3 		umull	ip, r3, ip, r3
 1636 00dc 9B09     		lsrs	r3, r3, #6
 1637 00de 0133     		adds	r3, r3, #1
ARM GAS  /var/folders/kf/d797ysj14bb1pb7szkr3jbx80000gn/T//ccIy82lf.s 			page 29


 1638 00e0 CFE7     		b	.L231
 1639              	.L232:
 1640 00e2 D4F808E0 		ldr	lr, [r4, #8]
 1641 00e6 BEF1000F 		cmp	lr, #0
 1642 00ea 1AD1     		bne	.L234
 1643 00ec 431E     		subs	r3, r0, #1
 1644 00ee 0CEB4C05 		add	r5, ip, ip, lsl #1
 1645 00f2 B3FBF5F3 		udiv	r3, r3, r5
 1646 00f6 0133     		adds	r3, r3, #1
 1647 00f8 C3F30B03 		ubfx	r3, r3, #0, #12
 1648 00fc B3FA83F3 		clz	r3, r3
 1649 0100 5B09     		lsrs	r3, r3, #5
 1650              	.L235:
 1651 0102 002B     		cmp	r3, #0
 1652 0104 57D1     		bne	.L240
 1653 0106 BEF1000F 		cmp	lr, #0
 1654 010a 19D1     		bne	.L236
 1655 010c 431E     		subs	r3, r0, #1
 1656 010e 0CEB4C0C 		add	ip, ip, ip, lsl #1
 1657 0112 B3FBFCF3 		udiv	r3, r3, ip
 1658 0116 0133     		adds	r3, r3, #1
 1659 0118 C3F30B03 		ubfx	r3, r3, #0, #12
 1660 011c 43F40043 		orr	r3, r3, #32768
 1661 0120 1CE0     		b	.L233
 1662              	.L234:
 1663 0122 0CEB8C03 		add	r3, ip, ip, lsl #2
 1664 0126 03EB8303 		add	r3, r3, r3, lsl #2
 1665 012a 1D46     		mov	r5, r3
 1666 012c 431E     		subs	r3, r0, #1
 1667 012e B3FBF5F3 		udiv	r3, r3, r5
 1668 0132 0133     		adds	r3, r3, #1
 1669 0134 C3F30B03 		ubfx	r3, r3, #0, #12
 1670 0138 B3FA83F3 		clz	r3, r3
 1671 013c 5B09     		lsrs	r3, r3, #5
 1672 013e E0E7     		b	.L235
 1673              	.L236:
 1674 0140 431E     		subs	r3, r0, #1
 1675 0142 0CEB8C0C 		add	ip, ip, ip, lsl #2
 1676 0146 0CEB8C0C 		add	ip, ip, ip, lsl #2
 1677 014a B3FBFCF3 		udiv	r3, r3, ip
 1678 014e 0133     		adds	r3, r3, #1
 1679 0150 C3F30B03 		ubfx	r3, r3, #0, #12
 1680 0154 43F44043 		orr	r3, r3, #49152
 1681 0158 00E0     		b	.L233
 1682              	.L239:
 1683 015a 0423     		movs	r3, #4
 1684              	.L233:
 1685 015c 1A43     		orrs	r2, r2, r3
 1686 015e CA61     		str	r2, [r1, #28]
 1687 0160 2168     		ldr	r1, [r4]
 1688 0162 0B68     		ldr	r3, [r1]
 1689 0164 23F0C003 		bic	r3, r3, #192
 1690 0168 E269     		ldr	r2, [r4, #28]
 1691 016a 206A     		ldr	r0, [r4, #32]
 1692 016c 0243     		orrs	r2, r2, r0
 1693 016e 1343     		orrs	r3, r3, r2
 1694 0170 0B60     		str	r3, [r1]
ARM GAS  /var/folders/kf/d797ysj14bb1pb7szkr3jbx80000gn/T//ccIy82lf.s 			page 30


 1695 0172 2168     		ldr	r1, [r4]
 1696 0174 8B68     		ldr	r3, [r1, #8]
 1697 0176 23F40343 		bic	r3, r3, #33536
 1698 017a 23F0FF03 		bic	r3, r3, #255
 1699 017e 2269     		ldr	r2, [r4, #16]
 1700 0180 E068     		ldr	r0, [r4, #12]
 1701 0182 0243     		orrs	r2, r2, r0
 1702 0184 1343     		orrs	r3, r3, r2
 1703 0186 8B60     		str	r3, [r1, #8]
 1704 0188 2168     		ldr	r1, [r4]
 1705 018a CB68     		ldr	r3, [r1, #12]
 1706 018c 23F0FF03 		bic	r3, r3, #255
 1707 0190 6269     		ldr	r2, [r4, #20]
 1708 0192 A069     		ldr	r0, [r4, #24]
 1709 0194 0243     		orrs	r2, r2, r0
 1710 0196 1343     		orrs	r3, r3, r2
 1711 0198 CB60     		str	r3, [r1, #12]
 1712 019a 2268     		ldr	r2, [r4]
 1713 019c 1368     		ldr	r3, [r2]
 1714 019e 43F00103 		orr	r3, r3, #1
 1715 01a2 1360     		str	r3, [r2]
 1716 01a4 0020     		movs	r0, #0
 1717 01a6 2064     		str	r0, [r4, #64]
 1718 01a8 2023     		movs	r3, #32
 1719 01aa 84F83D30 		strb	r3, [r4, #61]
 1720 01ae 2063     		str	r0, [r4, #48]
 1721 01b0 84F83E00 		strb	r0, [r4, #62]
 1722              	.L226:
 1723 01b4 38BD     		pop	{r3, r4, r5, pc}
 1724              	.L240:
 1725 01b6 0123     		movs	r3, #1
 1726 01b8 D0E7     		b	.L233
 1727              	.L237:
 1728 01ba 0120     		movs	r0, #1
 1729 01bc 7047     		bx	lr
 1730              	.L238:
 1731 01be 0120     		movs	r0, #1
 1732 01c0 F8E7     		b	.L226
 1733              	.L247:
 1734 01c2 00BF     		.align	2
 1735              	.L246:
 1736 01c4 A0860100 		.word	100000
 1737 01c8 7F841E00 		.word	1999999
 1738 01cc 83DE1B43 		.word	1125899907
 1739 01d0 FF083D00 		.word	3999999
 1740 01d4 D34D6210 		.word	274877907
 1742              		.section	.text.HAL_I2C_MspDeInit,"ax",%progbits
 1743              		.align	1
 1744              		.weak	HAL_I2C_MspDeInit
 1745              		.syntax unified
 1746              		.thumb
 1747              		.thumb_func
 1749              	HAL_I2C_MspDeInit:
 1750              		@ args = 0, pretend = 0, frame = 0
 1751              		@ frame_needed = 0, uses_anonymous_args = 0
 1752              		@ link register save eliminated.
 1753 0000 7047     		bx	lr
ARM GAS  /var/folders/kf/d797ysj14bb1pb7szkr3jbx80000gn/T//ccIy82lf.s 			page 31


 1755              		.section	.text.HAL_I2C_DeInit,"ax",%progbits
 1756              		.align	1
 1757              		.global	HAL_I2C_DeInit
 1758              		.syntax unified
 1759              		.thumb
 1760              		.thumb_func
 1762              	HAL_I2C_DeInit:
 1763              		@ args = 0, pretend = 0, frame = 0
 1764              		@ frame_needed = 0, uses_anonymous_args = 0
 1765 0000 A8B1     		cbz	r0, .L251
 1766 0002 10B5     		push	{r4, lr}
 1767 0004 0446     		mov	r4, r0
 1768 0006 2423     		movs	r3, #36
 1769 0008 80F83D30 		strb	r3, [r0, #61]
 1770 000c 0268     		ldr	r2, [r0]
 1771 000e 1368     		ldr	r3, [r2]
 1772 0010 23F00103 		bic	r3, r3, #1
 1773 0014 1360     		str	r3, [r2]
 1774 0016 FFF7FEFF 		bl	HAL_I2C_MspDeInit
 1775 001a 0020     		movs	r0, #0
 1776 001c 2064     		str	r0, [r4, #64]
 1777 001e 84F83D00 		strb	r0, [r4, #61]
 1778 0022 2063     		str	r0, [r4, #48]
 1779 0024 84F83E00 		strb	r0, [r4, #62]
 1780 0028 84F83C00 		strb	r0, [r4, #60]
 1781 002c 10BD     		pop	{r4, pc}
 1782              	.L251:
 1783 002e 0120     		movs	r0, #1
 1784 0030 7047     		bx	lr
 1786              		.section	.text.HAL_I2C_Master_Transmit,"ax",%progbits
 1787              		.align	1
 1788              		.global	HAL_I2C_Master_Transmit
 1789              		.syntax unified
 1790              		.thumb
 1791              		.thumb_func
 1793              	HAL_I2C_Master_Transmit:
 1794              		@ args = 4, pretend = 0, frame = 8
 1795              		@ frame_needed = 0, uses_anonymous_args = 0
 1796 0000 2DE9F043 		push	{r4, r5, r6, r7, r8, r9, lr}
 1797 0004 85B0     		sub	sp, sp, #20
 1798 0006 0446     		mov	r4, r0
 1799 0008 0F46     		mov	r7, r1
 1800 000a 9046     		mov	r8, r2
 1801 000c 9946     		mov	r9, r3
 1802 000e 0C9E     		ldr	r6, [sp, #48]
 1803 0010 FFF7FEFF 		bl	HAL_GetTick
 1804 0014 94F83D10 		ldrb	r1, [r4, #61]	@ zero_extendqisi2
 1805 0018 2029     		cmp	r1, #32
 1806 001a 05D0     		beq	.L270
 1807 001c 0223     		movs	r3, #2
 1808 001e 1F46     		mov	r7, r3
 1809              	.L257:
 1810 0020 3846     		mov	r0, r7
 1811 0022 05B0     		add	sp, sp, #20
 1812              		@ sp needed
 1813 0024 BDE8F083 		pop	{r4, r5, r6, r7, r8, r9, pc}
 1814              	.L270:
ARM GAS  /var/folders/kf/d797ysj14bb1pb7szkr3jbx80000gn/T//ccIy82lf.s 			page 32


 1815 0028 0546     		mov	r5, r0
 1816 002a 0090     		str	r0, [sp]
 1817 002c 1923     		movs	r3, #25
 1818 002e 0122     		movs	r2, #1
 1819 0030 5149     		ldr	r1, .L276
 1820 0032 2046     		mov	r0, r4
 1821 0034 FFF7FEFF 		bl	I2C_WaitOnFlagUntilTimeout
 1822 0038 0028     		cmp	r0, #0
 1823 003a 40F09380 		bne	.L266
 1824 003e 94F83C30 		ldrb	r3, [r4, #60]	@ zero_extendqisi2
 1825 0042 012B     		cmp	r3, #1
 1826 0044 00F09180 		beq	.L267
 1827 0048 0123     		movs	r3, #1
 1828 004a 84F83C30 		strb	r3, [r4, #60]
 1829 004e 2368     		ldr	r3, [r4]
 1830 0050 1A68     		ldr	r2, [r3]
 1831 0052 12F0010F 		tst	r2, #1
 1832 0056 03D1     		bne	.L258
 1833 0058 1A68     		ldr	r2, [r3]
 1834 005a 42F00102 		orr	r2, r2, #1
 1835 005e 1A60     		str	r2, [r3]
 1836              	.L258:
 1837 0060 2268     		ldr	r2, [r4]
 1838 0062 1368     		ldr	r3, [r2]
 1839 0064 23F40063 		bic	r3, r3, #2048
 1840 0068 1360     		str	r3, [r2]
 1841 006a 2123     		movs	r3, #33
 1842 006c 84F83D30 		strb	r3, [r4, #61]
 1843 0070 1023     		movs	r3, #16
 1844 0072 84F83E30 		strb	r3, [r4, #62]
 1845 0076 0023     		movs	r3, #0
 1846 0078 2364     		str	r3, [r4, #64]
 1847 007a C4F82480 		str	r8, [r4, #36]
 1848 007e A4F82A90 		strh	r9, [r4, #42]	@ movhi
 1849 0082 638D     		ldrh	r3, [r4, #42]
 1850 0084 2385     		strh	r3, [r4, #40]	@ movhi
 1851 0086 3D4B     		ldr	r3, .L276+4
 1852 0088 E362     		str	r3, [r4, #44]
 1853 008a 2B46     		mov	r3, r5
 1854 008c 3246     		mov	r2, r6
 1855 008e 3946     		mov	r1, r7
 1856 0090 2046     		mov	r0, r4
 1857 0092 FFF7FEFF 		bl	I2C_MasterRequestWrite
 1858 0096 0746     		mov	r7, r0
 1859 0098 0028     		cmp	r0, #0
 1860 009a 69D1     		bne	.L268
 1861 009c 0390     		str	r0, [sp, #12]
 1862 009e 2368     		ldr	r3, [r4]
 1863 00a0 5A69     		ldr	r2, [r3, #20]
 1864 00a2 0392     		str	r2, [sp, #12]
 1865 00a4 9B69     		ldr	r3, [r3, #24]
 1866 00a6 0393     		str	r3, [sp, #12]
 1867 00a8 039B     		ldr	r3, [sp, #12]
 1868 00aa 12E0     		b	.L259
 1869              	.L274:
 1870 00ac 236C     		ldr	r3, [r4, #64]
 1871 00ae 042B     		cmp	r3, #4
ARM GAS  /var/folders/kf/d797ysj14bb1pb7szkr3jbx80000gn/T//ccIy82lf.s 			page 33


 1872 00b0 02D0     		beq	.L271
 1873              	.L261:
 1874 00b2 0123     		movs	r3, #1
 1875 00b4 1F46     		mov	r7, r3
 1876 00b6 B3E7     		b	.L257
 1877              	.L271:
 1878 00b8 2268     		ldr	r2, [r4]
 1879 00ba 1368     		ldr	r3, [r2]
 1880 00bc 43F40073 		orr	r3, r3, #512
 1881 00c0 1360     		str	r3, [r2]
 1882 00c2 F6E7     		b	.L261
 1883              	.L262:
 1884 00c4 2A46     		mov	r2, r5
 1885 00c6 3146     		mov	r1, r6
 1886 00c8 2046     		mov	r0, r4
 1887 00ca FFF7FEFF 		bl	I2C_WaitOnBTFFlagUntilTimeout
 1888 00ce 0028     		cmp	r0, #0
 1889 00d0 2ED1     		bne	.L272
 1890              	.L259:
 1891 00d2 238D     		ldrh	r3, [r4, #40]
 1892 00d4 002B     		cmp	r3, #0
 1893 00d6 37D0     		beq	.L273
 1894 00d8 2A46     		mov	r2, r5
 1895 00da 3146     		mov	r1, r6
 1896 00dc 2046     		mov	r0, r4
 1897 00de FFF7FEFF 		bl	I2C_WaitOnTXEFlagUntilTimeout
 1898 00e2 0028     		cmp	r0, #0
 1899 00e4 E2D1     		bne	.L274
 1900 00e6 626A     		ldr	r2, [r4, #36]
 1901 00e8 2368     		ldr	r3, [r4]
 1902 00ea 1278     		ldrb	r2, [r2]	@ zero_extendqisi2
 1903 00ec 1A61     		str	r2, [r3, #16]
 1904 00ee 606A     		ldr	r0, [r4, #36]
 1905 00f0 431C     		adds	r3, r0, #1
 1906 00f2 6362     		str	r3, [r4, #36]
 1907 00f4 618D     		ldrh	r1, [r4, #42]
 1908 00f6 89B2     		uxth	r1, r1
 1909 00f8 0139     		subs	r1, r1, #1
 1910 00fa 89B2     		uxth	r1, r1
 1911 00fc 6185     		strh	r1, [r4, #42]	@ movhi
 1912 00fe 238D     		ldrh	r3, [r4, #40]
 1913 0100 013B     		subs	r3, r3, #1
 1914 0102 9BB2     		uxth	r3, r3
 1915 0104 2385     		strh	r3, [r4, #40]	@ movhi
 1916 0106 2268     		ldr	r2, [r4]
 1917 0108 5169     		ldr	r1, [r2, #20]
 1918 010a 11F0040F 		tst	r1, #4
 1919 010e D9D0     		beq	.L262
 1920 0110 002B     		cmp	r3, #0
 1921 0112 D7D0     		beq	.L262
 1922 0114 4378     		ldrb	r3, [r0, #1]	@ zero_extendqisi2
 1923 0116 1361     		str	r3, [r2, #16]
 1924 0118 636A     		ldr	r3, [r4, #36]
 1925 011a 0133     		adds	r3, r3, #1
 1926 011c 6362     		str	r3, [r4, #36]
 1927 011e 638D     		ldrh	r3, [r4, #42]
 1928 0120 9BB2     		uxth	r3, r3
ARM GAS  /var/folders/kf/d797ysj14bb1pb7szkr3jbx80000gn/T//ccIy82lf.s 			page 34


 1929 0122 013B     		subs	r3, r3, #1
 1930 0124 9BB2     		uxth	r3, r3
 1931 0126 6385     		strh	r3, [r4, #42]	@ movhi
 1932 0128 238D     		ldrh	r3, [r4, #40]
 1933 012a 013B     		subs	r3, r3, #1
 1934 012c 2385     		strh	r3, [r4, #40]	@ movhi
 1935 012e C9E7     		b	.L262
 1936              	.L272:
 1937 0130 236C     		ldr	r3, [r4, #64]
 1938 0132 042B     		cmp	r3, #4
 1939 0134 02D0     		beq	.L275
 1940              	.L263:
 1941 0136 0123     		movs	r3, #1
 1942 0138 1F46     		mov	r7, r3
 1943 013a 71E7     		b	.L257
 1944              	.L275:
 1945 013c 2268     		ldr	r2, [r4]
 1946 013e 1368     		ldr	r3, [r2]
 1947 0140 43F40073 		orr	r3, r3, #512
 1948 0144 1360     		str	r3, [r2]
 1949 0146 F6E7     		b	.L263
 1950              	.L273:
 1951 0148 2268     		ldr	r2, [r4]
 1952 014a 1368     		ldr	r3, [r2]
 1953 014c 43F40073 		orr	r3, r3, #512
 1954 0150 1360     		str	r3, [r2]
 1955 0152 2023     		movs	r3, #32
 1956 0154 84F83D30 		strb	r3, [r4, #61]
 1957 0158 0023     		movs	r3, #0
 1958 015a 84F83E30 		strb	r3, [r4, #62]
 1959 015e 84F83C30 		strb	r3, [r4, #60]
 1960 0162 5DE7     		b	.L257
 1961              	.L266:
 1962 0164 0223     		movs	r3, #2
 1963 0166 1F46     		mov	r7, r3
 1964 0168 5AE7     		b	.L257
 1965              	.L267:
 1966 016a 0223     		movs	r3, #2
 1967 016c 1F46     		mov	r7, r3
 1968 016e 57E7     		b	.L257
 1969              	.L268:
 1970 0170 0123     		movs	r3, #1
 1971 0172 1F46     		mov	r7, r3
 1972 0174 54E7     		b	.L257
 1973              	.L277:
 1974 0176 00BF     		.align	2
 1975              	.L276:
 1976 0178 02001000 		.word	1048578
 1977 017c 0000FFFF 		.word	-65536
 1979              		.section	.text.HAL_I2C_Master_Receive,"ax",%progbits
 1980              		.align	1
 1981              		.global	HAL_I2C_Master_Receive
 1982              		.syntax unified
 1983              		.thumb
 1984              		.thumb_func
 1986              	HAL_I2C_Master_Receive:
 1987              		@ args = 4, pretend = 0, frame = 16
ARM GAS  /var/folders/kf/d797ysj14bb1pb7szkr3jbx80000gn/T//ccIy82lf.s 			page 35


 1988              		@ frame_needed = 0, uses_anonymous_args = 0
 1989 0000 2DE9F043 		push	{r4, r5, r6, r7, r8, r9, lr}
 1990 0004 87B0     		sub	sp, sp, #28
 1991 0006 0446     		mov	r4, r0
 1992 0008 0F46     		mov	r7, r1
 1993 000a 9046     		mov	r8, r2
 1994 000c 9946     		mov	r9, r3
 1995 000e 0E9E     		ldr	r6, [sp, #56]
 1996 0010 FFF7FEFF 		bl	HAL_GetTick
 1997 0014 94F83D10 		ldrb	r1, [r4, #61]	@ zero_extendqisi2
 1998 0018 2029     		cmp	r1, #32
 1999 001a 05D0     		beq	.L302
 2000 001c 0223     		movs	r3, #2
 2001 001e 1F46     		mov	r7, r3
 2002              	.L279:
 2003 0020 3846     		mov	r0, r7
 2004 0022 07B0     		add	sp, sp, #28
 2005              		@ sp needed
 2006 0024 BDE8F083 		pop	{r4, r5, r6, r7, r8, r9, pc}
 2007              	.L302:
 2008 0028 0546     		mov	r5, r0
 2009 002a 0090     		str	r0, [sp]
 2010 002c 1923     		movs	r3, #25
 2011 002e 0122     		movs	r2, #1
 2012 0030 8949     		ldr	r1, .L309
 2013 0032 2046     		mov	r0, r4
 2014 0034 FFF7FEFF 		bl	I2C_WaitOnFlagUntilTimeout
 2015 0038 0028     		cmp	r0, #0
 2016 003a 40F04E81 		bne	.L293
 2017 003e 94F83C30 		ldrb	r3, [r4, #60]	@ zero_extendqisi2
 2018 0042 012B     		cmp	r3, #1
 2019 0044 00F04C81 		beq	.L294
 2020 0048 0123     		movs	r3, #1
 2021 004a 84F83C30 		strb	r3, [r4, #60]
 2022 004e 2368     		ldr	r3, [r4]
 2023 0050 1A68     		ldr	r2, [r3]
 2024 0052 12F0010F 		tst	r2, #1
 2025 0056 03D1     		bne	.L280
 2026 0058 1A68     		ldr	r2, [r3]
 2027 005a 42F00102 		orr	r2, r2, #1
 2028 005e 1A60     		str	r2, [r3]
 2029              	.L280:
 2030 0060 2268     		ldr	r2, [r4]
 2031 0062 1368     		ldr	r3, [r2]
 2032 0064 23F40063 		bic	r3, r3, #2048
 2033 0068 1360     		str	r3, [r2]
 2034 006a 2223     		movs	r3, #34
 2035 006c 84F83D30 		strb	r3, [r4, #61]
 2036 0070 1023     		movs	r3, #16
 2037 0072 84F83E30 		strb	r3, [r4, #62]
 2038 0076 0023     		movs	r3, #0
 2039 0078 2364     		str	r3, [r4, #64]
 2040 007a C4F82480 		str	r8, [r4, #36]
 2041 007e A4F82A90 		strh	r9, [r4, #42]	@ movhi
 2042 0082 638D     		ldrh	r3, [r4, #42]
 2043 0084 2385     		strh	r3, [r4, #40]	@ movhi
 2044 0086 754B     		ldr	r3, .L309+4
ARM GAS  /var/folders/kf/d797ysj14bb1pb7szkr3jbx80000gn/T//ccIy82lf.s 			page 36


 2045 0088 E362     		str	r3, [r4, #44]
 2046 008a 2B46     		mov	r3, r5
 2047 008c 3246     		mov	r2, r6
 2048 008e 3946     		mov	r1, r7
 2049 0090 2046     		mov	r0, r4
 2050 0092 FFF7FEFF 		bl	I2C_MasterRequestRead
 2051 0096 0746     		mov	r7, r0
 2052 0098 0028     		cmp	r0, #0
 2053 009a 40F02481 		bne	.L295
 2054 009e 238D     		ldrh	r3, [r4, #40]
 2055 00a0 5BB9     		cbnz	r3, .L281
 2056 00a2 0293     		str	r3, [sp, #8]
 2057 00a4 2368     		ldr	r3, [r4]
 2058 00a6 5A69     		ldr	r2, [r3, #20]
 2059 00a8 0292     		str	r2, [sp, #8]
 2060 00aa 9A69     		ldr	r2, [r3, #24]
 2061 00ac 0292     		str	r2, [sp, #8]
 2062 00ae 029A     		ldr	r2, [sp, #8]
 2063 00b0 1A68     		ldr	r2, [r3]
 2064 00b2 42F40072 		orr	r2, r2, #512
 2065 00b6 1A60     		str	r2, [r3]
 2066 00b8 7AE0     		b	.L290
 2067              	.L281:
 2068 00ba 012B     		cmp	r3, #1
 2069 00bc 0FD0     		beq	.L303
 2070 00be 022B     		cmp	r3, #2
 2071 00c0 1FD0     		beq	.L304
 2072 00c2 2268     		ldr	r2, [r4]
 2073 00c4 1368     		ldr	r3, [r2]
 2074 00c6 43F48063 		orr	r3, r3, #1024
 2075 00ca 1360     		str	r3, [r2]
 2076 00cc 0023     		movs	r3, #0
 2077 00ce 0593     		str	r3, [sp, #20]
 2078 00d0 2368     		ldr	r3, [r4]
 2079 00d2 5A69     		ldr	r2, [r3, #20]
 2080 00d4 0592     		str	r2, [sp, #20]
 2081 00d6 9B69     		ldr	r3, [r3, #24]
 2082 00d8 0593     		str	r3, [sp, #20]
 2083 00da 059B     		ldr	r3, [sp, #20]
 2084 00dc 68E0     		b	.L290
 2085              	.L303:
 2086 00de 2268     		ldr	r2, [r4]
 2087 00e0 1368     		ldr	r3, [r2]
 2088 00e2 23F48063 		bic	r3, r3, #1024
 2089 00e6 1360     		str	r3, [r2]
 2090 00e8 0023     		movs	r3, #0
 2091 00ea 0393     		str	r3, [sp, #12]
 2092 00ec 2368     		ldr	r3, [r4]
 2093 00ee 5A69     		ldr	r2, [r3, #20]
 2094 00f0 0392     		str	r2, [sp, #12]
 2095 00f2 9A69     		ldr	r2, [r3, #24]
 2096 00f4 0392     		str	r2, [sp, #12]
 2097 00f6 039A     		ldr	r2, [sp, #12]
 2098 00f8 1A68     		ldr	r2, [r3]
 2099 00fa 42F40072 		orr	r2, r2, #512
 2100 00fe 1A60     		str	r2, [r3]
 2101 0100 56E0     		b	.L290
ARM GAS  /var/folders/kf/d797ysj14bb1pb7szkr3jbx80000gn/T//ccIy82lf.s 			page 37


 2102              	.L304:
 2103 0102 2268     		ldr	r2, [r4]
 2104 0104 1368     		ldr	r3, [r2]
 2105 0106 23F48063 		bic	r3, r3, #1024
 2106 010a 1360     		str	r3, [r2]
 2107 010c 2268     		ldr	r2, [r4]
 2108 010e 1368     		ldr	r3, [r2]
 2109 0110 43F40063 		orr	r3, r3, #2048
 2110 0114 1360     		str	r3, [r2]
 2111 0116 0023     		movs	r3, #0
 2112 0118 0493     		str	r3, [sp, #16]
 2113 011a 2368     		ldr	r3, [r4]
 2114 011c 5A69     		ldr	r2, [r3, #20]
 2115 011e 0492     		str	r2, [sp, #16]
 2116 0120 9B69     		ldr	r3, [r3, #24]
 2117 0122 0493     		str	r3, [sp, #16]
 2118 0124 049B     		ldr	r3, [sp, #16]
 2119 0126 43E0     		b	.L290
 2120              	.L306:
 2121 0128 2A46     		mov	r2, r5
 2122 012a 3146     		mov	r1, r6
 2123 012c 2046     		mov	r0, r4
 2124 012e FFF7FEFF 		bl	I2C_WaitOnRXNEFlagUntilTimeout
 2125 0132 0028     		cmp	r0, #0
 2126 0134 40F0DA80 		bne	.L296
 2127 0138 2368     		ldr	r3, [r4]
 2128 013a 1A69     		ldr	r2, [r3, #16]
 2129 013c 636A     		ldr	r3, [r4, #36]
 2130 013e 1A70     		strb	r2, [r3]
 2131 0140 636A     		ldr	r3, [r4, #36]
 2132 0142 0133     		adds	r3, r3, #1
 2133 0144 6362     		str	r3, [r4, #36]
 2134 0146 238D     		ldrh	r3, [r4, #40]
 2135 0148 013B     		subs	r3, r3, #1
 2136 014a 2385     		strh	r3, [r4, #40]	@ movhi
 2137 014c 638D     		ldrh	r3, [r4, #42]
 2138 014e 9BB2     		uxth	r3, r3
 2139 0150 013B     		subs	r3, r3, #1
 2140 0152 9BB2     		uxth	r3, r3
 2141 0154 6385     		strh	r3, [r4, #42]	@ movhi
 2142 0156 2BE0     		b	.L290
 2143              	.L307:
 2144 0158 0095     		str	r5, [sp]
 2145 015a 3346     		mov	r3, r6
 2146 015c 0022     		movs	r2, #0
 2147 015e 4049     		ldr	r1, .L309+8
 2148 0160 2046     		mov	r0, r4
 2149 0162 FFF7FEFF 		bl	I2C_WaitOnFlagUntilTimeout
 2150 0166 0028     		cmp	r0, #0
 2151 0168 40F0C380 		bne	.L297
 2152 016c 2268     		ldr	r2, [r4]
 2153 016e 1368     		ldr	r3, [r2]
 2154 0170 43F40073 		orr	r3, r3, #512
 2155 0174 1360     		str	r3, [r2]
 2156 0176 2368     		ldr	r3, [r4]
 2157 0178 1A69     		ldr	r2, [r3, #16]
 2158 017a 636A     		ldr	r3, [r4, #36]
ARM GAS  /var/folders/kf/d797ysj14bb1pb7szkr3jbx80000gn/T//ccIy82lf.s 			page 38


 2159 017c 1A70     		strb	r2, [r3]
 2160 017e 626A     		ldr	r2, [r4, #36]
 2161 0180 531C     		adds	r3, r2, #1
 2162 0182 6362     		str	r3, [r4, #36]
 2163 0184 238D     		ldrh	r3, [r4, #40]
 2164 0186 013B     		subs	r3, r3, #1
 2165 0188 2385     		strh	r3, [r4, #40]	@ movhi
 2166 018a 638D     		ldrh	r3, [r4, #42]
 2167 018c 9BB2     		uxth	r3, r3
 2168 018e 013B     		subs	r3, r3, #1
 2169 0190 9BB2     		uxth	r3, r3
 2170 0192 6385     		strh	r3, [r4, #42]	@ movhi
 2171 0194 2368     		ldr	r3, [r4]
 2172 0196 1B69     		ldr	r3, [r3, #16]
 2173 0198 5370     		strb	r3, [r2, #1]
 2174 019a 636A     		ldr	r3, [r4, #36]
 2175 019c 0133     		adds	r3, r3, #1
 2176 019e 6362     		str	r3, [r4, #36]
 2177 01a0 238D     		ldrh	r3, [r4, #40]
 2178 01a2 013B     		subs	r3, r3, #1
 2179 01a4 2385     		strh	r3, [r4, #40]	@ movhi
 2180 01a6 638D     		ldrh	r3, [r4, #42]
 2181 01a8 9BB2     		uxth	r3, r3
 2182 01aa 013B     		subs	r3, r3, #1
 2183 01ac 9BB2     		uxth	r3, r3
 2184 01ae 6385     		strh	r3, [r4, #42]	@ movhi
 2185              	.L290:
 2186 01b0 218D     		ldrh	r1, [r4, #40]
 2187 01b2 0029     		cmp	r1, #0
 2188 01b4 00F08980 		beq	.L305
 2189 01b8 0329     		cmp	r1, #3
 2190 01ba 53D8     		bhi	.L285
 2191 01bc 0129     		cmp	r1, #1
 2192 01be B3D0     		beq	.L306
 2193 01c0 0229     		cmp	r1, #2
 2194 01c2 C9D0     		beq	.L307
 2195 01c4 0095     		str	r5, [sp]
 2196 01c6 3346     		mov	r3, r6
 2197 01c8 0022     		movs	r2, #0
 2198 01ca 2549     		ldr	r1, .L309+8
 2199 01cc 2046     		mov	r0, r4
 2200 01ce FFF7FEFF 		bl	I2C_WaitOnFlagUntilTimeout
 2201 01d2 0028     		cmp	r0, #0
 2202 01d4 40F09080 		bne	.L298
 2203 01d8 2268     		ldr	r2, [r4]
 2204 01da 1368     		ldr	r3, [r2]
 2205 01dc 23F48063 		bic	r3, r3, #1024
 2206 01e0 1360     		str	r3, [r2]
 2207 01e2 2368     		ldr	r3, [r4]
 2208 01e4 1A69     		ldr	r2, [r3, #16]
 2209 01e6 636A     		ldr	r3, [r4, #36]
 2210 01e8 1A70     		strb	r2, [r3]
 2211 01ea 636A     		ldr	r3, [r4, #36]
 2212 01ec 0133     		adds	r3, r3, #1
 2213 01ee 6362     		str	r3, [r4, #36]
 2214 01f0 238D     		ldrh	r3, [r4, #40]
 2215 01f2 013B     		subs	r3, r3, #1
ARM GAS  /var/folders/kf/d797ysj14bb1pb7szkr3jbx80000gn/T//ccIy82lf.s 			page 39


 2216 01f4 2385     		strh	r3, [r4, #40]	@ movhi
 2217 01f6 618D     		ldrh	r1, [r4, #42]
 2218 01f8 89B2     		uxth	r1, r1
 2219 01fa 0139     		subs	r1, r1, #1
 2220 01fc 89B2     		uxth	r1, r1
 2221 01fe 6185     		strh	r1, [r4, #42]	@ movhi
 2222 0200 0095     		str	r5, [sp]
 2223 0202 3346     		mov	r3, r6
 2224 0204 0246     		mov	r2, r0
 2225 0206 1649     		ldr	r1, .L309+8
 2226 0208 2046     		mov	r0, r4
 2227 020a FFF7FEFF 		bl	I2C_WaitOnFlagUntilTimeout
 2228 020e 0028     		cmp	r0, #0
 2229 0210 75D1     		bne	.L299
 2230 0212 2268     		ldr	r2, [r4]
 2231 0214 1368     		ldr	r3, [r2]
 2232 0216 43F40073 		orr	r3, r3, #512
 2233 021a 1360     		str	r3, [r2]
 2234 021c 2368     		ldr	r3, [r4]
 2235 021e 1A69     		ldr	r2, [r3, #16]
 2236 0220 636A     		ldr	r3, [r4, #36]
 2237 0222 1A70     		strb	r2, [r3]
 2238 0224 626A     		ldr	r2, [r4, #36]
 2239 0226 531C     		adds	r3, r2, #1
 2240 0228 6362     		str	r3, [r4, #36]
 2241 022a 238D     		ldrh	r3, [r4, #40]
 2242 022c 013B     		subs	r3, r3, #1
 2243 022e 2385     		strh	r3, [r4, #40]	@ movhi
 2244 0230 638D     		ldrh	r3, [r4, #42]
 2245 0232 9BB2     		uxth	r3, r3
 2246 0234 013B     		subs	r3, r3, #1
 2247 0236 9BB2     		uxth	r3, r3
 2248 0238 6385     		strh	r3, [r4, #42]	@ movhi
 2249 023a 2368     		ldr	r3, [r4]
 2250 023c 1B69     		ldr	r3, [r3, #16]
 2251 023e 5370     		strb	r3, [r2, #1]
 2252 0240 636A     		ldr	r3, [r4, #36]
 2253 0242 0133     		adds	r3, r3, #1
 2254 0244 6362     		str	r3, [r4, #36]
 2255 0246 238D     		ldrh	r3, [r4, #40]
 2256 0248 013B     		subs	r3, r3, #1
 2257 024a 2385     		strh	r3, [r4, #40]	@ movhi
 2258 024c 638D     		ldrh	r3, [r4, #42]
 2259 024e 9BB2     		uxth	r3, r3
 2260 0250 013B     		subs	r3, r3, #1
 2261 0252 9BB2     		uxth	r3, r3
 2262 0254 6385     		strh	r3, [r4, #42]	@ movhi
 2263 0256 ABE7     		b	.L290
 2264              	.L310:
 2265              		.align	2
 2266              	.L309:
 2267 0258 02001000 		.word	1048578
 2268 025c 0000FFFF 		.word	-65536
 2269 0260 04000100 		.word	65540
 2270              	.L285:
 2271 0264 2A46     		mov	r2, r5
 2272 0266 3146     		mov	r1, r6
ARM GAS  /var/folders/kf/d797ysj14bb1pb7szkr3jbx80000gn/T//ccIy82lf.s 			page 40


 2273 0268 2046     		mov	r0, r4
 2274 026a FFF7FEFF 		bl	I2C_WaitOnRXNEFlagUntilTimeout
 2275 026e 0028     		cmp	r0, #0
 2276 0270 48D1     		bne	.L300
 2277 0272 2368     		ldr	r3, [r4]
 2278 0274 1A69     		ldr	r2, [r3, #16]
 2279 0276 636A     		ldr	r3, [r4, #36]
 2280 0278 1A70     		strb	r2, [r3]
 2281 027a 636A     		ldr	r3, [r4, #36]
 2282 027c 0133     		adds	r3, r3, #1
 2283 027e 6362     		str	r3, [r4, #36]
 2284 0280 228D     		ldrh	r2, [r4, #40]
 2285 0282 013A     		subs	r2, r2, #1
 2286 0284 92B2     		uxth	r2, r2
 2287 0286 2285     		strh	r2, [r4, #40]	@ movhi
 2288 0288 638D     		ldrh	r3, [r4, #42]
 2289 028a 9BB2     		uxth	r3, r3
 2290 028c 013B     		subs	r3, r3, #1
 2291 028e 9BB2     		uxth	r3, r3
 2292 0290 6385     		strh	r3, [r4, #42]	@ movhi
 2293 0292 2368     		ldr	r3, [r4]
 2294 0294 5969     		ldr	r1, [r3, #20]
 2295 0296 11F0040F 		tst	r1, #4
 2296 029a 89D0     		beq	.L290
 2297 029c 032A     		cmp	r2, #3
 2298 029e 0FD0     		beq	.L308
 2299              	.L289:
 2300 02a0 2368     		ldr	r3, [r4]
 2301 02a2 1A69     		ldr	r2, [r3, #16]
 2302 02a4 636A     		ldr	r3, [r4, #36]
 2303 02a6 1A70     		strb	r2, [r3]
 2304 02a8 636A     		ldr	r3, [r4, #36]
 2305 02aa 0133     		adds	r3, r3, #1
 2306 02ac 6362     		str	r3, [r4, #36]
 2307 02ae 238D     		ldrh	r3, [r4, #40]
 2308 02b0 013B     		subs	r3, r3, #1
 2309 02b2 2385     		strh	r3, [r4, #40]	@ movhi
 2310 02b4 638D     		ldrh	r3, [r4, #42]
 2311 02b6 9BB2     		uxth	r3, r3
 2312 02b8 013B     		subs	r3, r3, #1
 2313 02ba 9BB2     		uxth	r3, r3
 2314 02bc 6385     		strh	r3, [r4, #42]	@ movhi
 2315 02be 77E7     		b	.L290
 2316              	.L308:
 2317 02c0 1A68     		ldr	r2, [r3]
 2318 02c2 22F48062 		bic	r2, r2, #1024
 2319 02c6 1A60     		str	r2, [r3]
 2320 02c8 EAE7     		b	.L289
 2321              	.L305:
 2322 02ca 2023     		movs	r3, #32
 2323 02cc 84F83D30 		strb	r3, [r4, #61]
 2324 02d0 84F83E10 		strb	r1, [r4, #62]
 2325 02d4 84F83C10 		strb	r1, [r4, #60]
 2326 02d8 A2E6     		b	.L279
 2327              	.L293:
 2328 02da 0223     		movs	r3, #2
 2329 02dc 1F46     		mov	r7, r3
ARM GAS  /var/folders/kf/d797ysj14bb1pb7szkr3jbx80000gn/T//ccIy82lf.s 			page 41


 2330 02de 9FE6     		b	.L279
 2331              	.L294:
 2332 02e0 0223     		movs	r3, #2
 2333 02e2 1F46     		mov	r7, r3
 2334 02e4 9CE6     		b	.L279
 2335              	.L295:
 2336 02e6 0123     		movs	r3, #1
 2337 02e8 1F46     		mov	r7, r3
 2338 02ea 99E6     		b	.L279
 2339              	.L296:
 2340 02ec 0123     		movs	r3, #1
 2341 02ee 1F46     		mov	r7, r3
 2342 02f0 96E6     		b	.L279
 2343              	.L297:
 2344 02f2 0123     		movs	r3, #1
 2345 02f4 1F46     		mov	r7, r3
 2346 02f6 93E6     		b	.L279
 2347              	.L298:
 2348 02f8 0123     		movs	r3, #1
 2349 02fa 1F46     		mov	r7, r3
 2350 02fc 90E6     		b	.L279
 2351              	.L299:
 2352 02fe 0123     		movs	r3, #1
 2353 0300 1F46     		mov	r7, r3
 2354 0302 8DE6     		b	.L279
 2355              	.L300:
 2356 0304 0123     		movs	r3, #1
 2357 0306 1F46     		mov	r7, r3
 2358 0308 8AE6     		b	.L279
 2360 030a 00BF     		.section	.text.HAL_I2C_Slave_Transmit,"ax",%progbits
 2361              		.align	1
 2362              		.global	HAL_I2C_Slave_Transmit
 2363              		.syntax unified
 2364              		.thumb
 2365              		.thumb_func
 2367              	HAL_I2C_Slave_Transmit:
 2368              		@ args = 0, pretend = 0, frame = 8
 2369              		@ frame_needed = 0, uses_anonymous_args = 0
 2370 0000 2DE9F041 		push	{r4, r5, r6, r7, r8, lr}
 2371 0004 84B0     		sub	sp, sp, #16
 2372 0006 0446     		mov	r4, r0
 2373 0008 0D46     		mov	r5, r1
 2374 000a 1646     		mov	r6, r2
 2375 000c 9846     		mov	r8, r3
 2376 000e FFF7FEFF 		bl	HAL_GetTick
 2377 0012 94F83D30 		ldrb	r3, [r4, #61]	@ zero_extendqisi2
 2378 0016 202B     		cmp	r3, #32
 2379 0018 40F0AA80 		bne	.L319
 2380 001c 0746     		mov	r7, r0
 2381 001e 002D     		cmp	r5, #0
 2382 0020 00F0AA80 		beq	.L320
 2383 0024 002E     		cmp	r6, #0
 2384 0026 00F0A980 		beq	.L321
 2385 002a 94F83C30 		ldrb	r3, [r4, #60]	@ zero_extendqisi2
 2386 002e 012B     		cmp	r3, #1
 2387 0030 00F0A680 		beq	.L322
 2388 0034 0123     		movs	r3, #1
ARM GAS  /var/folders/kf/d797ysj14bb1pb7szkr3jbx80000gn/T//ccIy82lf.s 			page 42


 2389 0036 84F83C30 		strb	r3, [r4, #60]
 2390 003a 2368     		ldr	r3, [r4]
 2391 003c 1A68     		ldr	r2, [r3]
 2392 003e 12F0010F 		tst	r2, #1
 2393 0042 03D1     		bne	.L313
 2394 0044 1A68     		ldr	r2, [r3]
 2395 0046 42F00102 		orr	r2, r2, #1
 2396 004a 1A60     		str	r2, [r3]
 2397              	.L313:
 2398 004c 2268     		ldr	r2, [r4]
 2399 004e 1368     		ldr	r3, [r2]
 2400 0050 23F40063 		bic	r3, r3, #2048
 2401 0054 1360     		str	r3, [r2]
 2402 0056 2123     		movs	r3, #33
 2403 0058 84F83D30 		strb	r3, [r4, #61]
 2404 005c 2023     		movs	r3, #32
 2405 005e 84F83E30 		strb	r3, [r4, #62]
 2406 0062 0022     		movs	r2, #0
 2407 0064 2264     		str	r2, [r4, #64]
 2408 0066 6562     		str	r5, [r4, #36]
 2409 0068 6685     		strh	r6, [r4, #42]	@ movhi
 2410 006a 638D     		ldrh	r3, [r4, #42]
 2411 006c 2385     		strh	r3, [r4, #40]	@ movhi
 2412 006e 484B     		ldr	r3, .L330
 2413 0070 E362     		str	r3, [r4, #44]
 2414 0072 2168     		ldr	r1, [r4]
 2415 0074 0B68     		ldr	r3, [r1]
 2416 0076 43F48063 		orr	r3, r3, #1024
 2417 007a 0B60     		str	r3, [r1]
 2418 007c 0097     		str	r7, [sp]
 2419 007e 4346     		mov	r3, r8
 2420 0080 4449     		ldr	r1, .L330+4
 2421 0082 2046     		mov	r0, r4
 2422 0084 FFF7FEFF 		bl	I2C_WaitOnFlagUntilTimeout
 2423 0088 0028     		cmp	r0, #0
 2424 008a 7BD1     		bne	.L323
 2425 008c 0290     		str	r0, [sp, #8]
 2426 008e 2368     		ldr	r3, [r4]
 2427 0090 5A69     		ldr	r2, [r3, #20]
 2428 0092 0292     		str	r2, [sp, #8]
 2429 0094 9B69     		ldr	r3, [r3, #24]
 2430 0096 0293     		str	r3, [sp, #8]
 2431 0098 029B     		ldr	r3, [sp, #8]
 2432 009a 2369     		ldr	r3, [r4, #16]
 2433 009c B3F5404F 		cmp	r3, #49152
 2434 00a0 33D0     		beq	.L327
 2435              	.L317:
 2436 00a2 238D     		ldrh	r3, [r4, #40]
 2437 00a4 002B     		cmp	r3, #0
 2438 00a6 48D0     		beq	.L328
 2439 00a8 3A46     		mov	r2, r7
 2440 00aa 4146     		mov	r1, r8
 2441 00ac 2046     		mov	r0, r4
 2442 00ae FFF7FEFF 		bl	I2C_WaitOnTXEFlagUntilTimeout
 2443 00b2 0028     		cmp	r0, #0
 2444 00b4 3AD1     		bne	.L329
 2445 00b6 626A     		ldr	r2, [r4, #36]
ARM GAS  /var/folders/kf/d797ysj14bb1pb7szkr3jbx80000gn/T//ccIy82lf.s 			page 43


 2446 00b8 2368     		ldr	r3, [r4]
 2447 00ba 1278     		ldrb	r2, [r2]	@ zero_extendqisi2
 2448 00bc 1A61     		str	r2, [r3, #16]
 2449 00be 616A     		ldr	r1, [r4, #36]
 2450 00c0 4B1C     		adds	r3, r1, #1
 2451 00c2 6362     		str	r3, [r4, #36]
 2452 00c4 B4F82AC0 		ldrh	ip, [r4, #42]
 2453 00c8 1FFA8CFC 		uxth	ip, ip
 2454 00cc 0CF1FF3C 		add	ip, ip, #-1
 2455 00d0 1FFA8CFC 		uxth	ip, ip
 2456 00d4 A4F82AC0 		strh	ip, [r4, #42]	@ movhi
 2457 00d8 228D     		ldrh	r2, [r4, #40]
 2458 00da 013A     		subs	r2, r2, #1
 2459 00dc 92B2     		uxth	r2, r2
 2460 00de 2285     		strh	r2, [r4, #40]	@ movhi
 2461 00e0 2368     		ldr	r3, [r4]
 2462 00e2 5869     		ldr	r0, [r3, #20]
 2463 00e4 10F0040F 		tst	r0, #4
 2464 00e8 DBD0     		beq	.L317
 2465 00ea 002A     		cmp	r2, #0
 2466 00ec D9D0     		beq	.L317
 2467 00ee 4A78     		ldrb	r2, [r1, #1]	@ zero_extendqisi2
 2468 00f0 1A61     		str	r2, [r3, #16]
 2469 00f2 636A     		ldr	r3, [r4, #36]
 2470 00f4 0133     		adds	r3, r3, #1
 2471 00f6 6362     		str	r3, [r4, #36]
 2472 00f8 638D     		ldrh	r3, [r4, #42]
 2473 00fa 9BB2     		uxth	r3, r3
 2474 00fc 013B     		subs	r3, r3, #1
 2475 00fe 9BB2     		uxth	r3, r3
 2476 0100 6385     		strh	r3, [r4, #42]	@ movhi
 2477 0102 238D     		ldrh	r3, [r4, #40]
 2478 0104 013B     		subs	r3, r3, #1
 2479 0106 2385     		strh	r3, [r4, #40]	@ movhi
 2480 0108 CBE7     		b	.L317
 2481              	.L327:
 2482 010a 0097     		str	r7, [sp]
 2483 010c 4346     		mov	r3, r8
 2484 010e 0246     		mov	r2, r0
 2485 0110 2049     		ldr	r1, .L330+4
 2486 0112 2046     		mov	r0, r4
 2487 0114 FFF7FEFF 		bl	I2C_WaitOnFlagUntilTimeout
 2488 0118 0028     		cmp	r0, #0
 2489 011a 35D1     		bne	.L324
 2490 011c 0390     		str	r0, [sp, #12]
 2491 011e 2368     		ldr	r3, [r4]
 2492 0120 5A69     		ldr	r2, [r3, #20]
 2493 0122 0392     		str	r2, [sp, #12]
 2494 0124 9B69     		ldr	r3, [r3, #24]
 2495 0126 0393     		str	r3, [sp, #12]
 2496 0128 039B     		ldr	r3, [sp, #12]
 2497 012a BAE7     		b	.L317
 2498              	.L329:
 2499 012c 2268     		ldr	r2, [r4]
 2500 012e 1368     		ldr	r3, [r2]
 2501 0130 23F48063 		bic	r3, r3, #1024
 2502 0134 1360     		str	r3, [r2]
ARM GAS  /var/folders/kf/d797ysj14bb1pb7szkr3jbx80000gn/T//ccIy82lf.s 			page 44


 2503 0136 0120     		movs	r0, #1
 2504 0138 1BE0     		b	.L312
 2505              	.L328:
 2506 013a 0097     		str	r7, [sp]
 2507 013c 4346     		mov	r3, r8
 2508 013e 0022     		movs	r2, #0
 2509 0140 4FF48231 		mov	r1, #66560
 2510 0144 2046     		mov	r0, r4
 2511 0146 FFF7FEFF 		bl	I2C_WaitOnFlagUntilTimeout
 2512 014a F8B9     		cbnz	r0, .L325
 2513 014c 2368     		ldr	r3, [r4]
 2514 014e 6FF48062 		mvn	r2, #1024
 2515 0152 5A61     		str	r2, [r3, #20]
 2516 0154 2268     		ldr	r2, [r4]
 2517 0156 1368     		ldr	r3, [r2]
 2518 0158 23F48063 		bic	r3, r3, #1024
 2519 015c 1360     		str	r3, [r2]
 2520 015e 2023     		movs	r3, #32
 2521 0160 84F83D30 		strb	r3, [r4, #61]
 2522 0164 0023     		movs	r3, #0
 2523 0166 84F83E30 		strb	r3, [r4, #62]
 2524 016a 84F83C30 		strb	r3, [r4, #60]
 2525 016e 00E0     		b	.L312
 2526              	.L319:
 2527 0170 0220     		movs	r0, #2
 2528              	.L312:
 2529 0172 04B0     		add	sp, sp, #16
 2530              		@ sp needed
 2531 0174 BDE8F081 		pop	{r4, r5, r6, r7, r8, pc}
 2532              	.L320:
 2533 0178 0120     		movs	r0, #1
 2534 017a FAE7     		b	.L312
 2535              	.L321:
 2536 017c 0120     		movs	r0, #1
 2537 017e F8E7     		b	.L312
 2538              	.L322:
 2539 0180 0220     		movs	r0, #2
 2540 0182 F6E7     		b	.L312
 2541              	.L323:
 2542 0184 0120     		movs	r0, #1
 2543 0186 F4E7     		b	.L312
 2544              	.L324:
 2545 0188 0120     		movs	r0, #1
 2546 018a F2E7     		b	.L312
 2547              	.L325:
 2548 018c 0120     		movs	r0, #1
 2549 018e F0E7     		b	.L312
 2550              	.L331:
 2551              		.align	2
 2552              	.L330:
 2553 0190 0000FFFF 		.word	-65536
 2554 0194 02000100 		.word	65538
 2556              		.section	.text.HAL_I2C_Slave_Receive,"ax",%progbits
 2557              		.align	1
 2558              		.global	HAL_I2C_Slave_Receive
 2559              		.syntax unified
 2560              		.thumb
ARM GAS  /var/folders/kf/d797ysj14bb1pb7szkr3jbx80000gn/T//ccIy82lf.s 			page 45


 2561              		.thumb_func
 2563              	HAL_I2C_Slave_Receive:
 2564              		@ args = 0, pretend = 0, frame = 8
 2565              		@ frame_needed = 0, uses_anonymous_args = 0
 2566 0000 2DE9F041 		push	{r4, r5, r6, r7, r8, lr}
 2567 0004 84B0     		sub	sp, sp, #16
 2568 0006 0446     		mov	r4, r0
 2569 0008 0E46     		mov	r6, r1
 2570 000a 1746     		mov	r7, r2
 2571 000c 9846     		mov	r8, r3
 2572 000e FFF7FEFF 		bl	HAL_GetTick
 2573 0012 94F83D30 		ldrb	r3, [r4, #61]	@ zero_extendqisi2
 2574 0016 202B     		cmp	r3, #32
 2575 0018 40F09C80 		bne	.L340
 2576 001c 0546     		mov	r5, r0
 2577 001e 002E     		cmp	r6, #0
 2578 0020 00F09C80 		beq	.L341
 2579 0024 002F     		cmp	r7, #0
 2580 0026 00F09B80 		beq	.L342
 2581 002a 94F83C30 		ldrb	r3, [r4, #60]	@ zero_extendqisi2
 2582 002e 012B     		cmp	r3, #1
 2583 0030 00F09880 		beq	.L343
 2584 0034 0123     		movs	r3, #1
 2585 0036 84F83C30 		strb	r3, [r4, #60]
 2586 003a 2368     		ldr	r3, [r4]
 2587 003c 1A68     		ldr	r2, [r3]
 2588 003e 12F0010F 		tst	r2, #1
 2589 0042 03D1     		bne	.L334
 2590 0044 1A68     		ldr	r2, [r3]
 2591 0046 42F00102 		orr	r2, r2, #1
 2592 004a 1A60     		str	r2, [r3]
 2593              	.L334:
 2594 004c 2268     		ldr	r2, [r4]
 2595 004e 1368     		ldr	r3, [r2]
 2596 0050 23F40063 		bic	r3, r3, #2048
 2597 0054 1360     		str	r3, [r2]
 2598 0056 2223     		movs	r3, #34
 2599 0058 84F83D30 		strb	r3, [r4, #61]
 2600 005c 2023     		movs	r3, #32
 2601 005e 84F83E30 		strb	r3, [r4, #62]
 2602 0062 0022     		movs	r2, #0
 2603 0064 2264     		str	r2, [r4, #64]
 2604 0066 6662     		str	r6, [r4, #36]
 2605 0068 6785     		strh	r7, [r4, #42]	@ movhi
 2606 006a 638D     		ldrh	r3, [r4, #42]
 2607 006c 2385     		strh	r3, [r4, #40]	@ movhi
 2608 006e 3F4B     		ldr	r3, .L348
 2609 0070 E362     		str	r3, [r4, #44]
 2610 0072 2168     		ldr	r1, [r4]
 2611 0074 0B68     		ldr	r3, [r1]
 2612 0076 43F48063 		orr	r3, r3, #1024
 2613 007a 0B60     		str	r3, [r1]
 2614 007c 0095     		str	r5, [sp]
 2615 007e 4346     		mov	r3, r8
 2616 0080 3B49     		ldr	r1, .L348+4
 2617 0082 2046     		mov	r0, r4
 2618 0084 FFF7FEFF 		bl	I2C_WaitOnFlagUntilTimeout
ARM GAS  /var/folders/kf/d797ysj14bb1pb7szkr3jbx80000gn/T//ccIy82lf.s 			page 46


 2619 0088 0028     		cmp	r0, #0
 2620 008a 6DD1     		bne	.L344
 2621 008c 0290     		str	r0, [sp, #8]
 2622 008e 2368     		ldr	r3, [r4]
 2623 0090 5A69     		ldr	r2, [r3, #20]
 2624 0092 0292     		str	r2, [sp, #8]
 2625 0094 9B69     		ldr	r3, [r3, #24]
 2626 0096 0293     		str	r3, [sp, #8]
 2627 0098 029B     		ldr	r3, [sp, #8]
 2628              	.L335:
 2629 009a 238D     		ldrh	r3, [r4, #40]
 2630 009c 002B     		cmp	r3, #0
 2631 009e 36D0     		beq	.L346
 2632 00a0 2A46     		mov	r2, r5
 2633 00a2 4146     		mov	r1, r8
 2634 00a4 2046     		mov	r0, r4
 2635 00a6 FFF7FEFF 		bl	I2C_WaitOnRXNEFlagUntilTimeout
 2636 00aa 48BB     		cbnz	r0, .L347
 2637 00ac 2368     		ldr	r3, [r4]
 2638 00ae 1A69     		ldr	r2, [r3, #16]
 2639 00b0 636A     		ldr	r3, [r4, #36]
 2640 00b2 1A70     		strb	r2, [r3]
 2641 00b4 636A     		ldr	r3, [r4, #36]
 2642 00b6 5A1C     		adds	r2, r3, #1
 2643 00b8 6262     		str	r2, [r4, #36]
 2644 00ba 228D     		ldrh	r2, [r4, #40]
 2645 00bc 013A     		subs	r2, r2, #1
 2646 00be 92B2     		uxth	r2, r2
 2647 00c0 2285     		strh	r2, [r4, #40]	@ movhi
 2648 00c2 B4F82AC0 		ldrh	ip, [r4, #42]
 2649 00c6 1FFA8CFC 		uxth	ip, ip
 2650 00ca 0CF1FF3C 		add	ip, ip, #-1
 2651 00ce 1FFA8CFC 		uxth	ip, ip
 2652 00d2 A4F82AC0 		strh	ip, [r4, #42]	@ movhi
 2653 00d6 2168     		ldr	r1, [r4]
 2654 00d8 4869     		ldr	r0, [r1, #20]
 2655 00da 10F0040F 		tst	r0, #4
 2656 00de DCD0     		beq	.L335
 2657 00e0 002A     		cmp	r2, #0
 2658 00e2 DAD0     		beq	.L335
 2659 00e4 0A69     		ldr	r2, [r1, #16]
 2660 00e6 5A70     		strb	r2, [r3, #1]
 2661 00e8 636A     		ldr	r3, [r4, #36]
 2662 00ea 0133     		adds	r3, r3, #1
 2663 00ec 6362     		str	r3, [r4, #36]
 2664 00ee 238D     		ldrh	r3, [r4, #40]
 2665 00f0 013B     		subs	r3, r3, #1
 2666 00f2 2385     		strh	r3, [r4, #40]	@ movhi
 2667 00f4 638D     		ldrh	r3, [r4, #42]
 2668 00f6 9BB2     		uxth	r3, r3
 2669 00f8 013B     		subs	r3, r3, #1
 2670 00fa 9BB2     		uxth	r3, r3
 2671 00fc 6385     		strh	r3, [r4, #42]	@ movhi
 2672 00fe CCE7     		b	.L335
 2673              	.L347:
 2674 0100 2268     		ldr	r2, [r4]
 2675 0102 1368     		ldr	r3, [r2]
ARM GAS  /var/folders/kf/d797ysj14bb1pb7szkr3jbx80000gn/T//ccIy82lf.s 			page 47


 2676 0104 23F48063 		bic	r3, r3, #1024
 2677 0108 1360     		str	r3, [r2]
 2678 010a 0120     		movs	r0, #1
 2679 010c 23E0     		b	.L333
 2680              	.L346:
 2681 010e 2A46     		mov	r2, r5
 2682 0110 4146     		mov	r1, r8
 2683 0112 2046     		mov	r0, r4
 2684 0114 FFF7FEFF 		bl	I2C_WaitOnSTOPFlagUntilTimeout
 2685 0118 30B1     		cbz	r0, .L339
 2686 011a 2268     		ldr	r2, [r4]
 2687 011c 1368     		ldr	r3, [r2]
 2688 011e 23F48063 		bic	r3, r3, #1024
 2689 0122 1360     		str	r3, [r2]
 2690 0124 0120     		movs	r0, #1
 2691 0126 16E0     		b	.L333
 2692              	.L339:
 2693 0128 0390     		str	r0, [sp, #12]
 2694 012a 2268     		ldr	r2, [r4]
 2695 012c 5169     		ldr	r1, [r2, #20]
 2696 012e 0391     		str	r1, [sp, #12]
 2697 0130 1168     		ldr	r1, [r2]
 2698 0132 41F00101 		orr	r1, r1, #1
 2699 0136 1160     		str	r1, [r2]
 2700 0138 039A     		ldr	r2, [sp, #12]
 2701 013a 2168     		ldr	r1, [r4]
 2702 013c 0A68     		ldr	r2, [r1]
 2703 013e 22F48062 		bic	r2, r2, #1024
 2704 0142 0A60     		str	r2, [r1]
 2705 0144 2022     		movs	r2, #32
 2706 0146 84F83D20 		strb	r2, [r4, #61]
 2707 014a 84F83E00 		strb	r0, [r4, #62]
 2708 014e 84F83C00 		strb	r0, [r4, #60]
 2709 0152 00E0     		b	.L333
 2710              	.L340:
 2711 0154 0220     		movs	r0, #2
 2712              	.L333:
 2713 0156 04B0     		add	sp, sp, #16
 2714              		@ sp needed
 2715 0158 BDE8F081 		pop	{r4, r5, r6, r7, r8, pc}
 2716              	.L341:
 2717 015c 0120     		movs	r0, #1
 2718 015e FAE7     		b	.L333
 2719              	.L342:
 2720 0160 0120     		movs	r0, #1
 2721 0162 F8E7     		b	.L333
 2722              	.L343:
 2723 0164 0220     		movs	r0, #2
 2724 0166 F6E7     		b	.L333
 2725              	.L344:
 2726 0168 0120     		movs	r0, #1
 2727 016a F4E7     		b	.L333
 2728              	.L349:
 2729              		.align	2
 2730              	.L348:
 2731 016c 0000FFFF 		.word	-65536
 2732 0170 02000100 		.word	65538
ARM GAS  /var/folders/kf/d797ysj14bb1pb7szkr3jbx80000gn/T//ccIy82lf.s 			page 48


 2734              		.section	.text.HAL_I2C_Master_Transmit_IT,"ax",%progbits
 2735              		.align	1
 2736              		.global	HAL_I2C_Master_Transmit_IT
 2737              		.syntax unified
 2738              		.thumb
 2739              		.thumb_func
 2741              	HAL_I2C_Master_Transmit_IT:
 2742              		@ args = 0, pretend = 0, frame = 8
 2743              		@ frame_needed = 0, uses_anonymous_args = 0
 2744 0000 10B5     		push	{r4, lr}
 2745 0002 82B0     		sub	sp, sp, #8
 2746 0004 9E46     		mov	lr, r3
 2747 0006 0023     		movs	r3, #0
 2748 0008 0193     		str	r3, [sp, #4]
 2749 000a 90F83D30 		ldrb	r3, [r0, #61]	@ zero_extendqisi2
 2750 000e 202B     		cmp	r3, #32
 2751 0010 56D1     		bne	.L355
 2752 0012 1446     		mov	r4, r2
 2753 0014 2D4B     		ldr	r3, .L359
 2754 0016 1B68     		ldr	r3, [r3]
 2755 0018 4FEAD30C 		lsr	ip, r3, #3
 2756 001c 2C4B     		ldr	r3, .L359+4
 2757 001e A3FB0C3C 		umull	r3, ip, r3, ip
 2758 0022 4FEA1C2C 		lsr	ip, ip, #8
 2759 0026 0CEB8C0C 		add	ip, ip, ip, lsl #2
 2760 002a 0CEB8C03 		add	r3, ip, ip, lsl #2
 2761 002e 0193     		str	r3, [sp, #4]
 2762              	.L353:
 2763 0030 019B     		ldr	r3, [sp, #4]
 2764 0032 013B     		subs	r3, r3, #1
 2765 0034 0193     		str	r3, [sp, #4]
 2766 0036 019B     		ldr	r3, [sp, #4]
 2767 0038 002B     		cmp	r3, #0
 2768 003a 36D0     		beq	.L358
 2769 003c 0368     		ldr	r3, [r0]
 2770 003e 9A69     		ldr	r2, [r3, #24]
 2771 0040 12F0020F 		tst	r2, #2
 2772 0044 F4D1     		bne	.L353
 2773 0046 90F83C20 		ldrb	r2, [r0, #60]	@ zero_extendqisi2
 2774 004a 012A     		cmp	r2, #1
 2775 004c 3BD0     		beq	.L356
 2776 004e 0122     		movs	r2, #1
 2777 0050 80F83C20 		strb	r2, [r0, #60]
 2778 0054 1A68     		ldr	r2, [r3]
 2779 0056 12F0010F 		tst	r2, #1
 2780 005a 03D1     		bne	.L354
 2781 005c 1A68     		ldr	r2, [r3]
 2782 005e 42F00102 		orr	r2, r2, #1
 2783 0062 1A60     		str	r2, [r3]
 2784              	.L354:
 2785 0064 0268     		ldr	r2, [r0]
 2786 0066 1368     		ldr	r3, [r2]
 2787 0068 23F40063 		bic	r3, r3, #2048
 2788 006c 1360     		str	r3, [r2]
 2789 006e 2123     		movs	r3, #33
 2790 0070 80F83D30 		strb	r3, [r0, #61]
 2791 0074 1023     		movs	r3, #16
ARM GAS  /var/folders/kf/d797ysj14bb1pb7szkr3jbx80000gn/T//ccIy82lf.s 			page 49


 2792 0076 80F83E30 		strb	r3, [r0, #62]
 2793 007a 0023     		movs	r3, #0
 2794 007c 0364     		str	r3, [r0, #64]
 2795 007e 4462     		str	r4, [r0, #36]
 2796 0080 A0F82AE0 		strh	lr, [r0, #42]	@ movhi
 2797 0084 428D     		ldrh	r2, [r0, #42]
 2798 0086 0285     		strh	r2, [r0, #40]	@ movhi
 2799 0088 124A     		ldr	r2, .L359+8
 2800 008a C262     		str	r2, [r0, #44]
 2801 008c 4164     		str	r1, [r0, #68]
 2802 008e 80F83C30 		strb	r3, [r0, #60]
 2803 0092 0168     		ldr	r1, [r0]
 2804 0094 4A68     		ldr	r2, [r1, #4]
 2805 0096 42F4E062 		orr	r2, r2, #1792
 2806 009a 4A60     		str	r2, [r1, #4]
 2807 009c 0168     		ldr	r1, [r0]
 2808 009e 0A68     		ldr	r2, [r1]
 2809 00a0 42F48072 		orr	r2, r2, #256
 2810 00a4 0A60     		str	r2, [r1]
 2811 00a6 1846     		mov	r0, r3
 2812 00a8 0BE0     		b	.L351
 2813              	.L358:
 2814 00aa 0363     		str	r3, [r0, #48]
 2815 00ac 2022     		movs	r2, #32
 2816 00ae 80F83D20 		strb	r2, [r0, #61]
 2817 00b2 80F83E30 		strb	r3, [r0, #62]
 2818 00b6 036C     		ldr	r3, [r0, #64]
 2819 00b8 1343     		orrs	r3, r3, r2
 2820 00ba 0364     		str	r3, [r0, #64]
 2821 00bc 0220     		movs	r0, #2
 2822 00be 00E0     		b	.L351
 2823              	.L355:
 2824 00c0 0220     		movs	r0, #2
 2825              	.L351:
 2826 00c2 02B0     		add	sp, sp, #8
 2827              		@ sp needed
 2828 00c4 10BD     		pop	{r4, pc}
 2829              	.L356:
 2830 00c6 0220     		movs	r0, #2
 2831 00c8 FBE7     		b	.L351
 2832              	.L360:
 2833 00ca 00BF     		.align	2
 2834              	.L359:
 2835 00cc 00000000 		.word	SystemCoreClock
 2836 00d0 89B5F814 		.word	351843721
 2837 00d4 0000FFFF 		.word	-65536
 2839              		.section	.text.HAL_I2C_Master_Receive_IT,"ax",%progbits
 2840              		.align	1
 2841              		.global	HAL_I2C_Master_Receive_IT
 2842              		.syntax unified
 2843              		.thumb
 2844              		.thumb_func
 2846              	HAL_I2C_Master_Receive_IT:
 2847              		@ args = 0, pretend = 0, frame = 8
 2848              		@ frame_needed = 0, uses_anonymous_args = 0
 2849 0000 10B5     		push	{r4, lr}
 2850 0002 82B0     		sub	sp, sp, #8
ARM GAS  /var/folders/kf/d797ysj14bb1pb7szkr3jbx80000gn/T//ccIy82lf.s 			page 50


 2851 0004 9E46     		mov	lr, r3
 2852 0006 0023     		movs	r3, #0
 2853 0008 0193     		str	r3, [sp, #4]
 2854 000a 90F83D30 		ldrb	r3, [r0, #61]	@ zero_extendqisi2
 2855 000e 202B     		cmp	r3, #32
 2856 0010 5BD1     		bne	.L366
 2857 0012 1446     		mov	r4, r2
 2858 0014 2F4B     		ldr	r3, .L370
 2859 0016 1B68     		ldr	r3, [r3]
 2860 0018 4FEAD30C 		lsr	ip, r3, #3
 2861 001c 2E4B     		ldr	r3, .L370+4
 2862 001e A3FB0C3C 		umull	r3, ip, r3, ip
 2863 0022 4FEA1C2C 		lsr	ip, ip, #8
 2864 0026 0CEB8C0C 		add	ip, ip, ip, lsl #2
 2865 002a 0CEB8C03 		add	r3, ip, ip, lsl #2
 2866 002e 0193     		str	r3, [sp, #4]
 2867              	.L364:
 2868 0030 019B     		ldr	r3, [sp, #4]
 2869 0032 013B     		subs	r3, r3, #1
 2870 0034 0193     		str	r3, [sp, #4]
 2871 0036 019B     		ldr	r3, [sp, #4]
 2872 0038 002B     		cmp	r3, #0
 2873 003a 3BD0     		beq	.L369
 2874 003c 0368     		ldr	r3, [r0]
 2875 003e 9A69     		ldr	r2, [r3, #24]
 2876 0040 12F0020F 		tst	r2, #2
 2877 0044 F4D1     		bne	.L364
 2878 0046 90F83C20 		ldrb	r2, [r0, #60]	@ zero_extendqisi2
 2879 004a 012A     		cmp	r2, #1
 2880 004c 40D0     		beq	.L367
 2881 004e 0122     		movs	r2, #1
 2882 0050 80F83C20 		strb	r2, [r0, #60]
 2883 0054 1A68     		ldr	r2, [r3]
 2884 0056 12F0010F 		tst	r2, #1
 2885 005a 03D1     		bne	.L365
 2886 005c 1A68     		ldr	r2, [r3]
 2887 005e 42F00102 		orr	r2, r2, #1
 2888 0062 1A60     		str	r2, [r3]
 2889              	.L365:
 2890 0064 0268     		ldr	r2, [r0]
 2891 0066 1368     		ldr	r3, [r2]
 2892 0068 23F40063 		bic	r3, r3, #2048
 2893 006c 1360     		str	r3, [r2]
 2894 006e 2223     		movs	r3, #34
 2895 0070 80F83D30 		strb	r3, [r0, #61]
 2896 0074 1023     		movs	r3, #16
 2897 0076 80F83E30 		strb	r3, [r0, #62]
 2898 007a 0023     		movs	r3, #0
 2899 007c 0364     		str	r3, [r0, #64]
 2900 007e 4462     		str	r4, [r0, #36]
 2901 0080 A0F82AE0 		strh	lr, [r0, #42]	@ movhi
 2902 0084 428D     		ldrh	r2, [r0, #42]
 2903 0086 0285     		strh	r2, [r0, #40]	@ movhi
 2904 0088 144A     		ldr	r2, .L370+8
 2905 008a C262     		str	r2, [r0, #44]
 2906 008c 4164     		str	r1, [r0, #68]
 2907 008e 80F83C30 		strb	r3, [r0, #60]
ARM GAS  /var/folders/kf/d797ysj14bb1pb7szkr3jbx80000gn/T//ccIy82lf.s 			page 51


 2908 0092 0168     		ldr	r1, [r0]
 2909 0094 4A68     		ldr	r2, [r1, #4]
 2910 0096 42F4E062 		orr	r2, r2, #1792
 2911 009a 4A60     		str	r2, [r1, #4]
 2912 009c 0168     		ldr	r1, [r0]
 2913 009e 0A68     		ldr	r2, [r1]
 2914 00a0 42F48062 		orr	r2, r2, #1024
 2915 00a4 0A60     		str	r2, [r1]
 2916 00a6 0168     		ldr	r1, [r0]
 2917 00a8 0A68     		ldr	r2, [r1]
 2918 00aa 42F48072 		orr	r2, r2, #256
 2919 00ae 0A60     		str	r2, [r1]
 2920 00b0 1846     		mov	r0, r3
 2921 00b2 0BE0     		b	.L362
 2922              	.L369:
 2923 00b4 0363     		str	r3, [r0, #48]
 2924 00b6 2022     		movs	r2, #32
 2925 00b8 80F83D20 		strb	r2, [r0, #61]
 2926 00bc 80F83E30 		strb	r3, [r0, #62]
 2927 00c0 036C     		ldr	r3, [r0, #64]
 2928 00c2 1343     		orrs	r3, r3, r2
 2929 00c4 0364     		str	r3, [r0, #64]
 2930 00c6 0220     		movs	r0, #2
 2931 00c8 00E0     		b	.L362
 2932              	.L366:
 2933 00ca 0220     		movs	r0, #2
 2934              	.L362:
 2935 00cc 02B0     		add	sp, sp, #8
 2936              		@ sp needed
 2937 00ce 10BD     		pop	{r4, pc}
 2938              	.L367:
 2939 00d0 0220     		movs	r0, #2
 2940 00d2 FBE7     		b	.L362
 2941              	.L371:
 2942              		.align	2
 2943              	.L370:
 2944 00d4 00000000 		.word	SystemCoreClock
 2945 00d8 89B5F814 		.word	351843721
 2946 00dc 0000FFFF 		.word	-65536
 2948              		.section	.text.HAL_I2C_Slave_Transmit_IT,"ax",%progbits
 2949              		.align	1
 2950              		.global	HAL_I2C_Slave_Transmit_IT
 2951              		.syntax unified
 2952              		.thumb
 2953              		.thumb_func
 2955              	HAL_I2C_Slave_Transmit_IT:
 2956              		@ args = 0, pretend = 0, frame = 0
 2957              		@ frame_needed = 0, uses_anonymous_args = 0
 2958              		@ link register save eliminated.
 2959 0000 90F83D30 		ldrb	r3, [r0, #61]	@ zero_extendqisi2
 2960 0004 202B     		cmp	r3, #32
 2961 0006 3AD1     		bne	.L375
 2962 0008 0029     		cmp	r1, #0
 2963 000a 3AD0     		beq	.L376
 2964 000c 002A     		cmp	r2, #0
 2965 000e 3AD0     		beq	.L377
 2966 0010 90F83C30 		ldrb	r3, [r0, #60]	@ zero_extendqisi2
ARM GAS  /var/folders/kf/d797ysj14bb1pb7szkr3jbx80000gn/T//ccIy82lf.s 			page 52


 2967 0014 012B     		cmp	r3, #1
 2968 0016 38D0     		beq	.L378
 2969 0018 0123     		movs	r3, #1
 2970 001a 80F83C30 		strb	r3, [r0, #60]
 2971 001e 0368     		ldr	r3, [r0]
 2972 0020 D3F800C0 		ldr	ip, [r3]
 2973 0024 1CF0010F 		tst	ip, #1
 2974 0028 05D1     		bne	.L374
 2975 002a D3F800C0 		ldr	ip, [r3]
 2976 002e 4CF0010C 		orr	ip, ip, #1
 2977 0032 C3F800C0 		str	ip, [r3]
 2978              	.L374:
 2979 0036 D0F800C0 		ldr	ip, [r0]
 2980 003a DCF80030 		ldr	r3, [ip]
 2981 003e 23F40063 		bic	r3, r3, #2048
 2982 0042 CCF80030 		str	r3, [ip]
 2983 0046 2123     		movs	r3, #33
 2984 0048 80F83D30 		strb	r3, [r0, #61]
 2985 004c 2023     		movs	r3, #32
 2986 004e 80F83E30 		strb	r3, [r0, #62]
 2987 0052 0023     		movs	r3, #0
 2988 0054 0364     		str	r3, [r0, #64]
 2989 0056 4162     		str	r1, [r0, #36]
 2990 0058 4285     		strh	r2, [r0, #42]	@ movhi
 2991 005a 428D     		ldrh	r2, [r0, #42]
 2992 005c 0285     		strh	r2, [r0, #40]	@ movhi
 2993 005e 0C4A     		ldr	r2, .L379
 2994 0060 C262     		str	r2, [r0, #44]
 2995 0062 0168     		ldr	r1, [r0]
 2996 0064 0A68     		ldr	r2, [r1]
 2997 0066 42F48062 		orr	r2, r2, #1024
 2998 006a 0A60     		str	r2, [r1]
 2999 006c 80F83C30 		strb	r3, [r0, #60]
 3000 0070 0168     		ldr	r1, [r0]
 3001 0072 4A68     		ldr	r2, [r1, #4]
 3002 0074 42F4E062 		orr	r2, r2, #1792
 3003 0078 4A60     		str	r2, [r1, #4]
 3004 007a 1846     		mov	r0, r3
 3005 007c 7047     		bx	lr
 3006              	.L375:
 3007 007e 0220     		movs	r0, #2
 3008 0080 7047     		bx	lr
 3009              	.L376:
 3010 0082 0120     		movs	r0, #1
 3011 0084 7047     		bx	lr
 3012              	.L377:
 3013 0086 0120     		movs	r0, #1
 3014 0088 7047     		bx	lr
 3015              	.L378:
 3016 008a 0220     		movs	r0, #2
 3017 008c 7047     		bx	lr
 3018              	.L380:
 3019 008e 00BF     		.align	2
 3020              	.L379:
 3021 0090 0000FFFF 		.word	-65536
 3023              		.section	.text.HAL_I2C_Slave_Receive_IT,"ax",%progbits
 3024              		.align	1
ARM GAS  /var/folders/kf/d797ysj14bb1pb7szkr3jbx80000gn/T//ccIy82lf.s 			page 53


 3025              		.global	HAL_I2C_Slave_Receive_IT
 3026              		.syntax unified
 3027              		.thumb
 3028              		.thumb_func
 3030              	HAL_I2C_Slave_Receive_IT:
 3031              		@ args = 0, pretend = 0, frame = 0
 3032              		@ frame_needed = 0, uses_anonymous_args = 0
 3033              		@ link register save eliminated.
 3034 0000 90F83D30 		ldrb	r3, [r0, #61]	@ zero_extendqisi2
 3035 0004 202B     		cmp	r3, #32
 3036 0006 3AD1     		bne	.L384
 3037 0008 0029     		cmp	r1, #0
 3038 000a 3AD0     		beq	.L385
 3039 000c 002A     		cmp	r2, #0
 3040 000e 3AD0     		beq	.L386
 3041 0010 90F83C30 		ldrb	r3, [r0, #60]	@ zero_extendqisi2
 3042 0014 012B     		cmp	r3, #1
 3043 0016 38D0     		beq	.L387
 3044 0018 0123     		movs	r3, #1
 3045 001a 80F83C30 		strb	r3, [r0, #60]
 3046 001e 0368     		ldr	r3, [r0]
 3047 0020 D3F800C0 		ldr	ip, [r3]
 3048 0024 1CF0010F 		tst	ip, #1
 3049 0028 05D1     		bne	.L383
 3050 002a D3F800C0 		ldr	ip, [r3]
 3051 002e 4CF0010C 		orr	ip, ip, #1
 3052 0032 C3F800C0 		str	ip, [r3]
 3053              	.L383:
 3054 0036 D0F800C0 		ldr	ip, [r0]
 3055 003a DCF80030 		ldr	r3, [ip]
 3056 003e 23F40063 		bic	r3, r3, #2048
 3057 0042 CCF80030 		str	r3, [ip]
 3058 0046 2223     		movs	r3, #34
 3059 0048 80F83D30 		strb	r3, [r0, #61]
 3060 004c 2023     		movs	r3, #32
 3061 004e 80F83E30 		strb	r3, [r0, #62]
 3062 0052 0023     		movs	r3, #0
 3063 0054 0364     		str	r3, [r0, #64]
 3064 0056 4162     		str	r1, [r0, #36]
 3065 0058 4285     		strh	r2, [r0, #42]	@ movhi
 3066 005a 428D     		ldrh	r2, [r0, #42]
 3067 005c 0285     		strh	r2, [r0, #40]	@ movhi
 3068 005e 0C4A     		ldr	r2, .L388
 3069 0060 C262     		str	r2, [r0, #44]
 3070 0062 0168     		ldr	r1, [r0]
 3071 0064 0A68     		ldr	r2, [r1]
 3072 0066 42F48062 		orr	r2, r2, #1024
 3073 006a 0A60     		str	r2, [r1]
 3074 006c 80F83C30 		strb	r3, [r0, #60]
 3075 0070 0168     		ldr	r1, [r0]
 3076 0072 4A68     		ldr	r2, [r1, #4]
 3077 0074 42F4E062 		orr	r2, r2, #1792
 3078 0078 4A60     		str	r2, [r1, #4]
 3079 007a 1846     		mov	r0, r3
 3080 007c 7047     		bx	lr
 3081              	.L384:
 3082 007e 0220     		movs	r0, #2
ARM GAS  /var/folders/kf/d797ysj14bb1pb7szkr3jbx80000gn/T//ccIy82lf.s 			page 54


 3083 0080 7047     		bx	lr
 3084              	.L385:
 3085 0082 0120     		movs	r0, #1
 3086 0084 7047     		bx	lr
 3087              	.L386:
 3088 0086 0120     		movs	r0, #1
 3089 0088 7047     		bx	lr
 3090              	.L387:
 3091 008a 0220     		movs	r0, #2
 3092 008c 7047     		bx	lr
 3093              	.L389:
 3094 008e 00BF     		.align	2
 3095              	.L388:
 3096 0090 0000FFFF 		.word	-65536
 3098              		.section	.text.HAL_I2C_Master_Transmit_DMA,"ax",%progbits
 3099              		.align	1
 3100              		.global	HAL_I2C_Master_Transmit_DMA
 3101              		.syntax unified
 3102              		.thumb
 3103              		.thumb_func
 3105              	HAL_I2C_Master_Transmit_DMA:
 3106              		@ args = 0, pretend = 0, frame = 8
 3107              		@ frame_needed = 0, uses_anonymous_args = 0
 3108 0000 10B5     		push	{r4, lr}
 3109 0002 82B0     		sub	sp, sp, #8
 3110 0004 9C46     		mov	ip, r3
 3111 0006 0023     		movs	r3, #0
 3112 0008 0193     		str	r3, [sp, #4]
 3113 000a 90F83D30 		ldrb	r3, [r0, #61]	@ zero_extendqisi2
 3114 000e 202B     		cmp	r3, #32
 3115 0010 40F0AB80 		bne	.L400
 3116 0014 0446     		mov	r4, r0
 3117 0016 574B     		ldr	r3, .L405
 3118 0018 1868     		ldr	r0, [r3]
 3119 001a C008     		lsrs	r0, r0, #3
 3120 001c 564B     		ldr	r3, .L405+4
 3121 001e A3FB0030 		umull	r3, r0, r3, r0
 3122 0022 000A     		lsrs	r0, r0, #8
 3123 0024 00EB8000 		add	r0, r0, r0, lsl #2
 3124 0028 00EB8000 		add	r0, r0, r0, lsl #2
 3125 002c 0190     		str	r0, [sp, #4]
 3126              	.L393:
 3127 002e 019B     		ldr	r3, [sp, #4]
 3128 0030 013B     		subs	r3, r3, #1
 3129 0032 0193     		str	r3, [sp, #4]
 3130 0034 0198     		ldr	r0, [sp, #4]
 3131 0036 0028     		cmp	r0, #0
 3132 0038 53D0     		beq	.L404
 3133 003a 2068     		ldr	r0, [r4]
 3134 003c 8369     		ldr	r3, [r0, #24]
 3135 003e 13F0020F 		tst	r3, #2
 3136 0042 F4D1     		bne	.L393
 3137 0044 94F83C30 		ldrb	r3, [r4, #60]	@ zero_extendqisi2
 3138 0048 012B     		cmp	r3, #1
 3139 004a 00F09180 		beq	.L401
 3140 004e 0123     		movs	r3, #1
 3141 0050 84F83C30 		strb	r3, [r4, #60]
ARM GAS  /var/folders/kf/d797ysj14bb1pb7szkr3jbx80000gn/T//ccIy82lf.s 			page 55


 3142 0054 0368     		ldr	r3, [r0]
 3143 0056 13F0010F 		tst	r3, #1
 3144 005a 03D1     		bne	.L394
 3145 005c 0368     		ldr	r3, [r0]
 3146 005e 43F00103 		orr	r3, r3, #1
 3147 0062 0360     		str	r3, [r0]
 3148              	.L394:
 3149 0064 2068     		ldr	r0, [r4]
 3150 0066 0368     		ldr	r3, [r0]
 3151 0068 23F40063 		bic	r3, r3, #2048
 3152 006c 0360     		str	r3, [r0]
 3153 006e 2123     		movs	r3, #33
 3154 0070 84F83D30 		strb	r3, [r4, #61]
 3155 0074 1023     		movs	r3, #16
 3156 0076 84F83E30 		strb	r3, [r4, #62]
 3157 007a 0023     		movs	r3, #0
 3158 007c 2364     		str	r3, [r4, #64]
 3159 007e 6262     		str	r2, [r4, #36]
 3160 0080 A4F82AC0 		strh	ip, [r4, #42]	@ movhi
 3161 0084 638D     		ldrh	r3, [r4, #42]
 3162 0086 9BB2     		uxth	r3, r3
 3163 0088 2385     		strh	r3, [r4, #40]	@ movhi
 3164 008a 3C4A     		ldr	r2, .L405+8
 3165 008c E262     		str	r2, [r4, #44]
 3166 008e 6164     		str	r1, [r4, #68]
 3167 0090 002B     		cmp	r3, #0
 3168 0092 56D0     		beq	.L395
 3169 0094 636B     		ldr	r3, [r4, #52]
 3170 0096 002B     		cmp	r3, #0
 3171 0098 2ED0     		beq	.L396
 3172 009a 394A     		ldr	r2, .L405+12
 3173 009c DA63     		str	r2, [r3, #60]
 3174 009e 636B     		ldr	r3, [r4, #52]
 3175 00a0 384A     		ldr	r2, .L405+16
 3176 00a2 DA64     		str	r2, [r3, #76]
 3177 00a4 626B     		ldr	r2, [r4, #52]
 3178 00a6 0023     		movs	r3, #0
 3179 00a8 1364     		str	r3, [r2, #64]
 3180 00aa 626B     		ldr	r2, [r4, #52]
 3181 00ac 5364     		str	r3, [r2, #68]
 3182 00ae 626B     		ldr	r2, [r4, #52]
 3183 00b0 9364     		str	r3, [r2, #72]
 3184 00b2 626B     		ldr	r2, [r4, #52]
 3185 00b4 1365     		str	r3, [r2, #80]
 3186 00b6 2268     		ldr	r2, [r4]
 3187 00b8 238D     		ldrh	r3, [r4, #40]
 3188 00ba 1032     		adds	r2, r2, #16
 3189 00bc 616A     		ldr	r1, [r4, #36]
 3190 00be 606B     		ldr	r0, [r4, #52]
 3191 00c0 FFF7FEFF 		bl	HAL_DMA_Start_IT
 3192 00c4 30B3     		cbz	r0, .L397
 3193 00c6 2023     		movs	r3, #32
 3194 00c8 84F83D30 		strb	r3, [r4, #61]
 3195 00cc 0022     		movs	r2, #0
 3196 00ce 84F83E20 		strb	r2, [r4, #62]
 3197 00d2 236C     		ldr	r3, [r4, #64]
 3198 00d4 43F01003 		orr	r3, r3, #16
ARM GAS  /var/folders/kf/d797ysj14bb1pb7szkr3jbx80000gn/T//ccIy82lf.s 			page 56


 3199 00d8 2364     		str	r3, [r4, #64]
 3200 00da 84F83C20 		strb	r2, [r4, #60]
 3201 00de 0120     		movs	r0, #1
 3202 00e0 44E0     		b	.L391
 3203              	.L404:
 3204 00e2 2063     		str	r0, [r4, #48]
 3205 00e4 2022     		movs	r2, #32
 3206 00e6 84F83D20 		strb	r2, [r4, #61]
 3207 00ea 84F83E00 		strb	r0, [r4, #62]
 3208 00ee 236C     		ldr	r3, [r4, #64]
 3209 00f0 1343     		orrs	r3, r3, r2
 3210 00f2 2364     		str	r3, [r4, #64]
 3211 00f4 0220     		movs	r0, #2
 3212 00f6 39E0     		b	.L391
 3213              	.L396:
 3214 00f8 2023     		movs	r3, #32
 3215 00fa 84F83D30 		strb	r3, [r4, #61]
 3216 00fe 0022     		movs	r2, #0
 3217 0100 84F83E20 		strb	r2, [r4, #62]
 3218 0104 236C     		ldr	r3, [r4, #64]
 3219 0106 43F08003 		orr	r3, r3, #128
 3220 010a 2364     		str	r3, [r4, #64]
 3221 010c 84F83C20 		strb	r2, [r4, #60]
 3222 0110 0120     		movs	r0, #1
 3223 0112 2BE0     		b	.L391
 3224              	.L397:
 3225 0114 84F83C00 		strb	r0, [r4, #60]
 3226 0118 2268     		ldr	r2, [r4]
 3227 011a 5368     		ldr	r3, [r2, #4]
 3228 011c 43F44073 		orr	r3, r3, #768
 3229 0120 5360     		str	r3, [r2, #4]
 3230 0122 2268     		ldr	r2, [r4]
 3231 0124 5368     		ldr	r3, [r2, #4]
 3232 0126 43F40063 		orr	r3, r3, #2048
 3233 012a 5360     		str	r3, [r2, #4]
 3234 012c 2268     		ldr	r2, [r4]
 3235 012e 1368     		ldr	r3, [r2]
 3236 0130 43F48063 		orr	r3, r3, #1024
 3237 0134 1360     		str	r3, [r2]
 3238 0136 2268     		ldr	r2, [r4]
 3239 0138 1368     		ldr	r3, [r2]
 3240 013a 43F48073 		orr	r3, r3, #256
 3241 013e 1360     		str	r3, [r2]
 3242 0140 11E0     		b	.L399
 3243              	.L395:
 3244 0142 2268     		ldr	r2, [r4]
 3245 0144 1368     		ldr	r3, [r2]
 3246 0146 43F48063 		orr	r3, r3, #1024
 3247 014a 1360     		str	r3, [r2]
 3248 014c 2268     		ldr	r2, [r4]
 3249 014e 1368     		ldr	r3, [r2]
 3250 0150 43F48073 		orr	r3, r3, #256
 3251 0154 1360     		str	r3, [r2]
 3252 0156 0023     		movs	r3, #0
 3253 0158 84F83C30 		strb	r3, [r4, #60]
 3254 015c 2268     		ldr	r2, [r4]
 3255 015e 5368     		ldr	r3, [r2, #4]
ARM GAS  /var/folders/kf/d797ysj14bb1pb7szkr3jbx80000gn/T//ccIy82lf.s 			page 57


 3256 0160 43F4E063 		orr	r3, r3, #1792
 3257 0164 5360     		str	r3, [r2, #4]
 3258              	.L399:
 3259 0166 0020     		movs	r0, #0
 3260 0168 00E0     		b	.L391
 3261              	.L400:
 3262 016a 0220     		movs	r0, #2
 3263              	.L391:
 3264 016c 02B0     		add	sp, sp, #8
 3265              		@ sp needed
 3266 016e 10BD     		pop	{r4, pc}
 3267              	.L401:
 3268 0170 0220     		movs	r0, #2
 3269 0172 FBE7     		b	.L391
 3270              	.L406:
 3271              		.align	2
 3272              	.L405:
 3273 0174 00000000 		.word	SystemCoreClock
 3274 0178 89B5F814 		.word	351843721
 3275 017c 0000FFFF 		.word	-65536
 3276 0180 00000000 		.word	I2C_DMAXferCplt
 3277 0184 00000000 		.word	I2C_DMAError
 3279              		.section	.text.HAL_I2C_Master_Receive_DMA,"ax",%progbits
 3280              		.align	1
 3281              		.global	HAL_I2C_Master_Receive_DMA
 3282              		.syntax unified
 3283              		.thumb
 3284              		.thumb_func
 3286              	HAL_I2C_Master_Receive_DMA:
 3287              		@ args = 0, pretend = 0, frame = 8
 3288              		@ frame_needed = 0, uses_anonymous_args = 0
 3289 0000 10B5     		push	{r4, lr}
 3290 0002 82B0     		sub	sp, sp, #8
 3291 0004 9C46     		mov	ip, r3
 3292 0006 0023     		movs	r3, #0
 3293 0008 0193     		str	r3, [sp, #4]
 3294 000a 90F83D30 		ldrb	r3, [r0, #61]	@ zero_extendqisi2
 3295 000e 202B     		cmp	r3, #32
 3296 0010 40F0AA80 		bne	.L417
 3297 0014 0446     		mov	r4, r0
 3298 0016 574B     		ldr	r3, .L422
 3299 0018 1868     		ldr	r0, [r3]
 3300 001a C008     		lsrs	r0, r0, #3
 3301 001c 564B     		ldr	r3, .L422+4
 3302 001e A3FB0030 		umull	r3, r0, r3, r0
 3303 0022 000A     		lsrs	r0, r0, #8
 3304 0024 00EB8000 		add	r0, r0, r0, lsl #2
 3305 0028 00EB8000 		add	r0, r0, r0, lsl #2
 3306 002c 0190     		str	r0, [sp, #4]
 3307              	.L410:
 3308 002e 019B     		ldr	r3, [sp, #4]
 3309 0030 013B     		subs	r3, r3, #1
 3310 0032 0193     		str	r3, [sp, #4]
 3311 0034 0198     		ldr	r0, [sp, #4]
 3312 0036 0028     		cmp	r0, #0
 3313 0038 53D0     		beq	.L421
 3314 003a 2068     		ldr	r0, [r4]
ARM GAS  /var/folders/kf/d797ysj14bb1pb7szkr3jbx80000gn/T//ccIy82lf.s 			page 58


 3315 003c 8369     		ldr	r3, [r0, #24]
 3316 003e 13F0020F 		tst	r3, #2
 3317 0042 F4D1     		bne	.L410
 3318 0044 94F83C30 		ldrb	r3, [r4, #60]	@ zero_extendqisi2
 3319 0048 012B     		cmp	r3, #1
 3320 004a 00F09080 		beq	.L418
 3321 004e 0123     		movs	r3, #1
 3322 0050 84F83C30 		strb	r3, [r4, #60]
 3323 0054 0368     		ldr	r3, [r0]
 3324 0056 13F0010F 		tst	r3, #1
 3325 005a 03D1     		bne	.L411
 3326 005c 0368     		ldr	r3, [r0]
 3327 005e 43F00103 		orr	r3, r3, #1
 3328 0062 0360     		str	r3, [r0]
 3329              	.L411:
 3330 0064 2068     		ldr	r0, [r4]
 3331 0066 0368     		ldr	r3, [r0]
 3332 0068 23F40063 		bic	r3, r3, #2048
 3333 006c 0360     		str	r3, [r0]
 3334 006e 2223     		movs	r3, #34
 3335 0070 84F83D30 		strb	r3, [r4, #61]
 3336 0074 1023     		movs	r3, #16
 3337 0076 84F83E30 		strb	r3, [r4, #62]
 3338 007a 0023     		movs	r3, #0
 3339 007c 2364     		str	r3, [r4, #64]
 3340 007e 6262     		str	r2, [r4, #36]
 3341 0080 A4F82AC0 		strh	ip, [r4, #42]	@ movhi
 3342 0084 638D     		ldrh	r3, [r4, #42]
 3343 0086 9BB2     		uxth	r3, r3
 3344 0088 2385     		strh	r3, [r4, #40]	@ movhi
 3345 008a 3C4A     		ldr	r2, .L422+8
 3346 008c E262     		str	r2, [r4, #44]
 3347 008e 6164     		str	r1, [r4, #68]
 3348 0090 002B     		cmp	r3, #0
 3349 0092 56D0     		beq	.L412
 3350 0094 A36B     		ldr	r3, [r4, #56]
 3351 0096 002B     		cmp	r3, #0
 3352 0098 2ED0     		beq	.L413
 3353 009a 394A     		ldr	r2, .L422+12
 3354 009c DA63     		str	r2, [r3, #60]
 3355 009e A36B     		ldr	r3, [r4, #56]
 3356 00a0 384A     		ldr	r2, .L422+16
 3357 00a2 DA64     		str	r2, [r3, #76]
 3358 00a4 A26B     		ldr	r2, [r4, #56]
 3359 00a6 0023     		movs	r3, #0
 3360 00a8 1364     		str	r3, [r2, #64]
 3361 00aa A26B     		ldr	r2, [r4, #56]
 3362 00ac 5364     		str	r3, [r2, #68]
 3363 00ae A26B     		ldr	r2, [r4, #56]
 3364 00b0 9364     		str	r3, [r2, #72]
 3365 00b2 A26B     		ldr	r2, [r4, #56]
 3366 00b4 1365     		str	r3, [r2, #80]
 3367 00b6 2168     		ldr	r1, [r4]
 3368 00b8 238D     		ldrh	r3, [r4, #40]
 3369 00ba 626A     		ldr	r2, [r4, #36]
 3370 00bc 1031     		adds	r1, r1, #16
 3371 00be A06B     		ldr	r0, [r4, #56]
ARM GAS  /var/folders/kf/d797ysj14bb1pb7szkr3jbx80000gn/T//ccIy82lf.s 			page 59


 3372 00c0 FFF7FEFF 		bl	HAL_DMA_Start_IT
 3373 00c4 30B3     		cbz	r0, .L414
 3374 00c6 2023     		movs	r3, #32
 3375 00c8 84F83D30 		strb	r3, [r4, #61]
 3376 00cc 0022     		movs	r2, #0
 3377 00ce 84F83E20 		strb	r2, [r4, #62]
 3378 00d2 236C     		ldr	r3, [r4, #64]
 3379 00d4 43F01003 		orr	r3, r3, #16
 3380 00d8 2364     		str	r3, [r4, #64]
 3381 00da 84F83C20 		strb	r2, [r4, #60]
 3382 00de 0120     		movs	r0, #1
 3383 00e0 43E0     		b	.L408
 3384              	.L421:
 3385 00e2 2063     		str	r0, [r4, #48]
 3386 00e4 2022     		movs	r2, #32
 3387 00e6 84F83D20 		strb	r2, [r4, #61]
 3388 00ea 84F83E00 		strb	r0, [r4, #62]
 3389 00ee 236C     		ldr	r3, [r4, #64]
 3390 00f0 1343     		orrs	r3, r3, r2
 3391 00f2 2364     		str	r3, [r4, #64]
 3392 00f4 0220     		movs	r0, #2
 3393 00f6 38E0     		b	.L408
 3394              	.L413:
 3395 00f8 2023     		movs	r3, #32
 3396 00fa 84F83D30 		strb	r3, [r4, #61]
 3397 00fe 0022     		movs	r2, #0
 3398 0100 84F83E20 		strb	r2, [r4, #62]
 3399 0104 236C     		ldr	r3, [r4, #64]
 3400 0106 43F08003 		orr	r3, r3, #128
 3401 010a 2364     		str	r3, [r4, #64]
 3402 010c 84F83C20 		strb	r2, [r4, #60]
 3403 0110 0120     		movs	r0, #1
 3404 0112 2AE0     		b	.L408
 3405              	.L414:
 3406 0114 2268     		ldr	r2, [r4]
 3407 0116 1368     		ldr	r3, [r2]
 3408 0118 43F48063 		orr	r3, r3, #1024
 3409 011c 1360     		str	r3, [r2]
 3410 011e 2268     		ldr	r2, [r4]
 3411 0120 1368     		ldr	r3, [r2]
 3412 0122 43F48073 		orr	r3, r3, #256
 3413 0126 1360     		str	r3, [r2]
 3414 0128 84F83C00 		strb	r0, [r4, #60]
 3415 012c 2268     		ldr	r2, [r4]
 3416 012e 5368     		ldr	r3, [r2, #4]
 3417 0130 43F44073 		orr	r3, r3, #768
 3418 0134 5360     		str	r3, [r2, #4]
 3419 0136 2268     		ldr	r2, [r4]
 3420 0138 5368     		ldr	r3, [r2, #4]
 3421 013a 43F40063 		orr	r3, r3, #2048
 3422 013e 5360     		str	r3, [r2, #4]
 3423 0140 10E0     		b	.L416
 3424              	.L412:
 3425 0142 84F83C30 		strb	r3, [r4, #60]
 3426 0146 2268     		ldr	r2, [r4]
 3427 0148 5368     		ldr	r3, [r2, #4]
 3428 014a 43F4E063 		orr	r3, r3, #1792
ARM GAS  /var/folders/kf/d797ysj14bb1pb7szkr3jbx80000gn/T//ccIy82lf.s 			page 60


 3429 014e 5360     		str	r3, [r2, #4]
 3430 0150 2268     		ldr	r2, [r4]
 3431 0152 1368     		ldr	r3, [r2]
 3432 0154 43F48063 		orr	r3, r3, #1024
 3433 0158 1360     		str	r3, [r2]
 3434 015a 2268     		ldr	r2, [r4]
 3435 015c 1368     		ldr	r3, [r2]
 3436 015e 43F48073 		orr	r3, r3, #256
 3437 0162 1360     		str	r3, [r2]
 3438              	.L416:
 3439 0164 0020     		movs	r0, #0
 3440 0166 00E0     		b	.L408
 3441              	.L417:
 3442 0168 0220     		movs	r0, #2
 3443              	.L408:
 3444 016a 02B0     		add	sp, sp, #8
 3445              		@ sp needed
 3446 016c 10BD     		pop	{r4, pc}
 3447              	.L418:
 3448 016e 0220     		movs	r0, #2
 3449 0170 FBE7     		b	.L408
 3450              	.L423:
 3451 0172 00BF     		.align	2
 3452              	.L422:
 3453 0174 00000000 		.word	SystemCoreClock
 3454 0178 89B5F814 		.word	351843721
 3455 017c 0000FFFF 		.word	-65536
 3456 0180 00000000 		.word	I2C_DMAXferCplt
 3457 0184 00000000 		.word	I2C_DMAError
 3459              		.section	.text.HAL_I2C_Slave_Transmit_DMA,"ax",%progbits
 3460              		.align	1
 3461              		.global	HAL_I2C_Slave_Transmit_DMA
 3462              		.syntax unified
 3463              		.thumb
 3464              		.thumb_func
 3466              	HAL_I2C_Slave_Transmit_DMA:
 3467              		@ args = 0, pretend = 0, frame = 0
 3468              		@ frame_needed = 0, uses_anonymous_args = 0
 3469 0000 90F83D30 		ldrb	r3, [r0, #61]	@ zero_extendqisi2
 3470 0004 202B     		cmp	r3, #32
 3471 0006 6FD1     		bne	.L430
 3472 0008 10B5     		push	{r4, lr}
 3473 000a 0446     		mov	r4, r0
 3474 000c 0029     		cmp	r1, #0
 3475 000e 6DD0     		beq	.L431
 3476 0010 002A     		cmp	r2, #0
 3477 0012 6DD0     		beq	.L432
 3478 0014 90F83C30 		ldrb	r3, [r0, #60]	@ zero_extendqisi2
 3479 0018 012B     		cmp	r3, #1
 3480 001a 6BD0     		beq	.L433
 3481 001c 0123     		movs	r3, #1
 3482 001e 80F83C30 		strb	r3, [r0, #60]
 3483 0022 0368     		ldr	r3, [r0]
 3484 0024 1868     		ldr	r0, [r3]
 3485 0026 10F0010F 		tst	r0, #1
 3486 002a 03D1     		bne	.L426
 3487 002c 1868     		ldr	r0, [r3]
ARM GAS  /var/folders/kf/d797ysj14bb1pb7szkr3jbx80000gn/T//ccIy82lf.s 			page 61


 3488 002e 40F00100 		orr	r0, r0, #1
 3489 0032 1860     		str	r0, [r3]
 3490              	.L426:
 3491 0034 2068     		ldr	r0, [r4]
 3492 0036 0368     		ldr	r3, [r0]
 3493 0038 23F40063 		bic	r3, r3, #2048
 3494 003c 0360     		str	r3, [r0]
 3495 003e 2123     		movs	r3, #33
 3496 0040 84F83D30 		strb	r3, [r4, #61]
 3497 0044 2023     		movs	r3, #32
 3498 0046 84F83E30 		strb	r3, [r4, #62]
 3499 004a 0023     		movs	r3, #0
 3500 004c 2364     		str	r3, [r4, #64]
 3501 004e 6162     		str	r1, [r4, #36]
 3502 0050 6285     		strh	r2, [r4, #42]	@ movhi
 3503 0052 638D     		ldrh	r3, [r4, #42]
 3504 0054 2385     		strh	r3, [r4, #40]	@ movhi
 3505 0056 284B     		ldr	r3, .L439
 3506 0058 E362     		str	r3, [r4, #44]
 3507 005a 636B     		ldr	r3, [r4, #52]
 3508 005c 1BB3     		cbz	r3, .L427
 3509 005e 274A     		ldr	r2, .L439+4
 3510 0060 DA63     		str	r2, [r3, #60]
 3511 0062 636B     		ldr	r3, [r4, #52]
 3512 0064 264A     		ldr	r2, .L439+8
 3513 0066 DA64     		str	r2, [r3, #76]
 3514 0068 626B     		ldr	r2, [r4, #52]
 3515 006a 0023     		movs	r3, #0
 3516 006c 1364     		str	r3, [r2, #64]
 3517 006e 626B     		ldr	r2, [r4, #52]
 3518 0070 5364     		str	r3, [r2, #68]
 3519 0072 626B     		ldr	r2, [r4, #52]
 3520 0074 9364     		str	r3, [r2, #72]
 3521 0076 626B     		ldr	r2, [r4, #52]
 3522 0078 1365     		str	r3, [r2, #80]
 3523 007a 2268     		ldr	r2, [r4]
 3524 007c 238D     		ldrh	r3, [r4, #40]
 3525 007e 1032     		adds	r2, r2, #16
 3526 0080 616A     		ldr	r1, [r4, #36]
 3527 0082 606B     		ldr	r0, [r4, #52]
 3528 0084 FFF7FEFF 		bl	HAL_DMA_Start_IT
 3529 0088 D8B1     		cbz	r0, .L428
 3530 008a 2023     		movs	r3, #32
 3531 008c 84F83D30 		strb	r3, [r4, #61]
 3532 0090 0022     		movs	r2, #0
 3533 0092 84F83E20 		strb	r2, [r4, #62]
 3534 0096 236C     		ldr	r3, [r4, #64]
 3535 0098 43F01003 		orr	r3, r3, #16
 3536 009c 2364     		str	r3, [r4, #64]
 3537 009e 84F83C20 		strb	r2, [r4, #60]
 3538 00a2 0120     		movs	r0, #1
 3539 00a4 25E0     		b	.L425
 3540              	.L427:
 3541 00a6 2823     		movs	r3, #40
 3542 00a8 84F83D30 		strb	r3, [r4, #61]
 3543 00ac 0022     		movs	r2, #0
 3544 00ae 84F83E20 		strb	r2, [r4, #62]
ARM GAS  /var/folders/kf/d797ysj14bb1pb7szkr3jbx80000gn/T//ccIy82lf.s 			page 62


 3545 00b2 236C     		ldr	r3, [r4, #64]
 3546 00b4 43F08003 		orr	r3, r3, #128
 3547 00b8 2364     		str	r3, [r4, #64]
 3548 00ba 84F83C20 		strb	r2, [r4, #60]
 3549 00be 0120     		movs	r0, #1
 3550 00c0 17E0     		b	.L425
 3551              	.L428:
 3552 00c2 2268     		ldr	r2, [r4]
 3553 00c4 1368     		ldr	r3, [r2]
 3554 00c6 43F48063 		orr	r3, r3, #1024
 3555 00ca 1360     		str	r3, [r2]
 3556 00cc 0023     		movs	r3, #0
 3557 00ce 84F83C30 		strb	r3, [r4, #60]
 3558 00d2 2268     		ldr	r2, [r4]
 3559 00d4 5368     		ldr	r3, [r2, #4]
 3560 00d6 43F44073 		orr	r3, r3, #768
 3561 00da 5360     		str	r3, [r2, #4]
 3562 00dc 2268     		ldr	r2, [r4]
 3563 00de 5368     		ldr	r3, [r2, #4]
 3564 00e0 43F40063 		orr	r3, r3, #2048
 3565 00e4 5360     		str	r3, [r2, #4]
 3566 00e6 04E0     		b	.L425
 3567              	.L430:
 3568 00e8 0220     		movs	r0, #2
 3569 00ea 7047     		bx	lr
 3570              	.L431:
 3571 00ec 0120     		movs	r0, #1
 3572 00ee 00E0     		b	.L425
 3573              	.L432:
 3574 00f0 0120     		movs	r0, #1
 3575              	.L425:
 3576 00f2 10BD     		pop	{r4, pc}
 3577              	.L433:
 3578 00f4 0220     		movs	r0, #2
 3579 00f6 FCE7     		b	.L425
 3580              	.L440:
 3581              		.align	2
 3582              	.L439:
 3583 00f8 0000FFFF 		.word	-65536
 3584 00fc 00000000 		.word	I2C_DMAXferCplt
 3585 0100 00000000 		.word	I2C_DMAError
 3587              		.section	.text.HAL_I2C_Slave_Receive_DMA,"ax",%progbits
 3588              		.align	1
 3589              		.global	HAL_I2C_Slave_Receive_DMA
 3590              		.syntax unified
 3591              		.thumb
 3592              		.thumb_func
 3594              	HAL_I2C_Slave_Receive_DMA:
 3595              		@ args = 0, pretend = 0, frame = 0
 3596              		@ frame_needed = 0, uses_anonymous_args = 0
 3597 0000 90F83D30 		ldrb	r3, [r0, #61]	@ zero_extendqisi2
 3598 0004 202B     		cmp	r3, #32
 3599 0006 6FD1     		bne	.L447
 3600 0008 10B5     		push	{r4, lr}
 3601 000a 0446     		mov	r4, r0
 3602 000c 0029     		cmp	r1, #0
 3603 000e 6DD0     		beq	.L448
ARM GAS  /var/folders/kf/d797ysj14bb1pb7szkr3jbx80000gn/T//ccIy82lf.s 			page 63


 3604 0010 002A     		cmp	r2, #0
 3605 0012 6DD0     		beq	.L449
 3606 0014 90F83C30 		ldrb	r3, [r0, #60]	@ zero_extendqisi2
 3607 0018 012B     		cmp	r3, #1
 3608 001a 6BD0     		beq	.L450
 3609 001c 0123     		movs	r3, #1
 3610 001e 80F83C30 		strb	r3, [r0, #60]
 3611 0022 0368     		ldr	r3, [r0]
 3612 0024 1868     		ldr	r0, [r3]
 3613 0026 10F0010F 		tst	r0, #1
 3614 002a 03D1     		bne	.L443
 3615 002c 1868     		ldr	r0, [r3]
 3616 002e 40F00100 		orr	r0, r0, #1
 3617 0032 1860     		str	r0, [r3]
 3618              	.L443:
 3619 0034 2068     		ldr	r0, [r4]
 3620 0036 0368     		ldr	r3, [r0]
 3621 0038 23F40063 		bic	r3, r3, #2048
 3622 003c 0360     		str	r3, [r0]
 3623 003e 2223     		movs	r3, #34
 3624 0040 84F83D30 		strb	r3, [r4, #61]
 3625 0044 2023     		movs	r3, #32
 3626 0046 84F83E30 		strb	r3, [r4, #62]
 3627 004a 0023     		movs	r3, #0
 3628 004c 2364     		str	r3, [r4, #64]
 3629 004e 6162     		str	r1, [r4, #36]
 3630 0050 6285     		strh	r2, [r4, #42]	@ movhi
 3631 0052 638D     		ldrh	r3, [r4, #42]
 3632 0054 2385     		strh	r3, [r4, #40]	@ movhi
 3633 0056 284B     		ldr	r3, .L456
 3634 0058 E362     		str	r3, [r4, #44]
 3635 005a A36B     		ldr	r3, [r4, #56]
 3636 005c 1BB3     		cbz	r3, .L444
 3637 005e 274A     		ldr	r2, .L456+4
 3638 0060 DA63     		str	r2, [r3, #60]
 3639 0062 A36B     		ldr	r3, [r4, #56]
 3640 0064 264A     		ldr	r2, .L456+8
 3641 0066 DA64     		str	r2, [r3, #76]
 3642 0068 A26B     		ldr	r2, [r4, #56]
 3643 006a 0023     		movs	r3, #0
 3644 006c 1364     		str	r3, [r2, #64]
 3645 006e A26B     		ldr	r2, [r4, #56]
 3646 0070 5364     		str	r3, [r2, #68]
 3647 0072 A26B     		ldr	r2, [r4, #56]
 3648 0074 9364     		str	r3, [r2, #72]
 3649 0076 A26B     		ldr	r2, [r4, #56]
 3650 0078 1365     		str	r3, [r2, #80]
 3651 007a 2168     		ldr	r1, [r4]
 3652 007c 238D     		ldrh	r3, [r4, #40]
 3653 007e 626A     		ldr	r2, [r4, #36]
 3654 0080 1031     		adds	r1, r1, #16
 3655 0082 A06B     		ldr	r0, [r4, #56]
 3656 0084 FFF7FEFF 		bl	HAL_DMA_Start_IT
 3657 0088 D8B1     		cbz	r0, .L445
 3658 008a 2023     		movs	r3, #32
 3659 008c 84F83D30 		strb	r3, [r4, #61]
 3660 0090 0022     		movs	r2, #0
ARM GAS  /var/folders/kf/d797ysj14bb1pb7szkr3jbx80000gn/T//ccIy82lf.s 			page 64


 3661 0092 84F83E20 		strb	r2, [r4, #62]
 3662 0096 236C     		ldr	r3, [r4, #64]
 3663 0098 43F01003 		orr	r3, r3, #16
 3664 009c 2364     		str	r3, [r4, #64]
 3665 009e 84F83C20 		strb	r2, [r4, #60]
 3666 00a2 0120     		movs	r0, #1
 3667 00a4 25E0     		b	.L442
 3668              	.L444:
 3669 00a6 2823     		movs	r3, #40
 3670 00a8 84F83D30 		strb	r3, [r4, #61]
 3671 00ac 0022     		movs	r2, #0
 3672 00ae 84F83E20 		strb	r2, [r4, #62]
 3673 00b2 236C     		ldr	r3, [r4, #64]
 3674 00b4 43F08003 		orr	r3, r3, #128
 3675 00b8 2364     		str	r3, [r4, #64]
 3676 00ba 84F83C20 		strb	r2, [r4, #60]
 3677 00be 0120     		movs	r0, #1
 3678 00c0 17E0     		b	.L442
 3679              	.L445:
 3680 00c2 2268     		ldr	r2, [r4]
 3681 00c4 1368     		ldr	r3, [r2]
 3682 00c6 43F48063 		orr	r3, r3, #1024
 3683 00ca 1360     		str	r3, [r2]
 3684 00cc 0023     		movs	r3, #0
 3685 00ce 84F83C30 		strb	r3, [r4, #60]
 3686 00d2 2268     		ldr	r2, [r4]
 3687 00d4 5368     		ldr	r3, [r2, #4]
 3688 00d6 43F44073 		orr	r3, r3, #768
 3689 00da 5360     		str	r3, [r2, #4]
 3690 00dc 2268     		ldr	r2, [r4]
 3691 00de 5368     		ldr	r3, [r2, #4]
 3692 00e0 43F40063 		orr	r3, r3, #2048
 3693 00e4 5360     		str	r3, [r2, #4]
 3694 00e6 04E0     		b	.L442
 3695              	.L447:
 3696 00e8 0220     		movs	r0, #2
 3697 00ea 7047     		bx	lr
 3698              	.L448:
 3699 00ec 0120     		movs	r0, #1
 3700 00ee 00E0     		b	.L442
 3701              	.L449:
 3702 00f0 0120     		movs	r0, #1
 3703              	.L442:
 3704 00f2 10BD     		pop	{r4, pc}
 3705              	.L450:
 3706 00f4 0220     		movs	r0, #2
 3707 00f6 FCE7     		b	.L442
 3708              	.L457:
 3709              		.align	2
 3710              	.L456:
 3711 00f8 0000FFFF 		.word	-65536
 3712 00fc 00000000 		.word	I2C_DMAXferCplt
 3713 0100 00000000 		.word	I2C_DMAError
 3715              		.section	.text.HAL_I2C_Mem_Write,"ax",%progbits
 3716              		.align	1
 3717              		.global	HAL_I2C_Mem_Write
 3718              		.syntax unified
ARM GAS  /var/folders/kf/d797ysj14bb1pb7szkr3jbx80000gn/T//ccIy82lf.s 			page 65


 3719              		.thumb
 3720              		.thumb_func
 3722              	HAL_I2C_Mem_Write:
 3723              		@ args = 12, pretend = 0, frame = 0
 3724              		@ frame_needed = 0, uses_anonymous_args = 0
 3725 0000 2DE9F041 		push	{r4, r5, r6, r7, r8, lr}
 3726 0004 82B0     		sub	sp, sp, #8
 3727 0006 0446     		mov	r4, r0
 3728 0008 0E46     		mov	r6, r1
 3729 000a 1746     		mov	r7, r2
 3730 000c 9846     		mov	r8, r3
 3731 000e FFF7FEFF 		bl	HAL_GetTick
 3732 0012 94F83D20 		ldrb	r2, [r4, #61]	@ zero_extendqisi2
 3733 0016 202A     		cmp	r2, #32
 3734 0018 03D0     		beq	.L473
 3735 001a 0220     		movs	r0, #2
 3736              	.L459:
 3737 001c 02B0     		add	sp, sp, #8
 3738              		@ sp needed
 3739 001e BDE8F081 		pop	{r4, r5, r6, r7, r8, pc}
 3740              	.L473:
 3741 0022 0546     		mov	r5, r0
 3742 0024 0090     		str	r0, [sp]
 3743 0026 1923     		movs	r3, #25
 3744 0028 0122     		movs	r2, #1
 3745 002a 4C49     		ldr	r1, .L479
 3746 002c 2046     		mov	r0, r4
 3747 002e FFF7FEFF 		bl	I2C_WaitOnFlagUntilTimeout
 3748 0032 0028     		cmp	r0, #0
 3749 0034 40F08B80 		bne	.L469
 3750 0038 94F83C30 		ldrb	r3, [r4, #60]	@ zero_extendqisi2
 3751 003c 012B     		cmp	r3, #1
 3752 003e 00F08880 		beq	.L470
 3753 0042 0123     		movs	r3, #1
 3754 0044 84F83C30 		strb	r3, [r4, #60]
 3755 0048 2368     		ldr	r3, [r4]
 3756 004a 1A68     		ldr	r2, [r3]
 3757 004c 12F0010F 		tst	r2, #1
 3758 0050 03D1     		bne	.L460
 3759 0052 1A68     		ldr	r2, [r3]
 3760 0054 42F00102 		orr	r2, r2, #1
 3761 0058 1A60     		str	r2, [r3]
 3762              	.L460:
 3763 005a 2268     		ldr	r2, [r4]
 3764 005c 1368     		ldr	r3, [r2]
 3765 005e 23F40063 		bic	r3, r3, #2048
 3766 0062 1360     		str	r3, [r2]
 3767 0064 2123     		movs	r3, #33
 3768 0066 84F83D30 		strb	r3, [r4, #61]
 3769 006a 4023     		movs	r3, #64
 3770 006c 84F83E30 		strb	r3, [r4, #62]
 3771 0070 0023     		movs	r3, #0
 3772 0072 2364     		str	r3, [r4, #64]
 3773 0074 089B     		ldr	r3, [sp, #32]
 3774 0076 6362     		str	r3, [r4, #36]
 3775 0078 BDF82430 		ldrh	r3, [sp, #36]
 3776 007c 6385     		strh	r3, [r4, #42]	@ movhi
ARM GAS  /var/folders/kf/d797ysj14bb1pb7szkr3jbx80000gn/T//ccIy82lf.s 			page 66


 3777 007e 638D     		ldrh	r3, [r4, #42]
 3778 0080 2385     		strh	r3, [r4, #40]	@ movhi
 3779 0082 374B     		ldr	r3, .L479+4
 3780 0084 E362     		str	r3, [r4, #44]
 3781 0086 0195     		str	r5, [sp, #4]
 3782 0088 0A9B     		ldr	r3, [sp, #40]
 3783 008a 0093     		str	r3, [sp]
 3784 008c 4346     		mov	r3, r8
 3785 008e 3A46     		mov	r2, r7
 3786 0090 3146     		mov	r1, r6
 3787 0092 2046     		mov	r0, r4
 3788 0094 FFF7FEFF 		bl	I2C_RequestMemoryWrite
 3789 0098 0028     		cmp	r0, #0
 3790 009a 5CD1     		bne	.L474
 3791              	.L461:
 3792 009c 238D     		ldrh	r3, [r4, #40]
 3793 009e 002B     		cmp	r3, #0
 3794 00a0 36D0     		beq	.L475
 3795 00a2 2A46     		mov	r2, r5
 3796 00a4 0A99     		ldr	r1, [sp, #40]
 3797 00a6 2046     		mov	r0, r4
 3798 00a8 FFF7FEFF 		bl	I2C_WaitOnTXEFlagUntilTimeout
 3799 00ac 0028     		cmp	r0, #0
 3800 00ae 24D1     		bne	.L476
 3801 00b0 626A     		ldr	r2, [r4, #36]
 3802 00b2 2368     		ldr	r3, [r4]
 3803 00b4 1278     		ldrb	r2, [r2]	@ zero_extendqisi2
 3804 00b6 1A61     		str	r2, [r3, #16]
 3805 00b8 626A     		ldr	r2, [r4, #36]
 3806 00ba 531C     		adds	r3, r2, #1
 3807 00bc 6362     		str	r3, [r4, #36]
 3808 00be 218D     		ldrh	r1, [r4, #40]
 3809 00c0 0139     		subs	r1, r1, #1
 3810 00c2 89B2     		uxth	r1, r1
 3811 00c4 2185     		strh	r1, [r4, #40]	@ movhi
 3812 00c6 638D     		ldrh	r3, [r4, #42]
 3813 00c8 9BB2     		uxth	r3, r3
 3814 00ca 013B     		subs	r3, r3, #1
 3815 00cc 9BB2     		uxth	r3, r3
 3816 00ce 6385     		strh	r3, [r4, #42]	@ movhi
 3817 00d0 2368     		ldr	r3, [r4]
 3818 00d2 5869     		ldr	r0, [r3, #20]
 3819 00d4 10F0040F 		tst	r0, #4
 3820 00d8 E0D0     		beq	.L461
 3821 00da 0029     		cmp	r1, #0
 3822 00dc DED0     		beq	.L461
 3823 00de 5278     		ldrb	r2, [r2, #1]	@ zero_extendqisi2
 3824 00e0 1A61     		str	r2, [r3, #16]
 3825 00e2 636A     		ldr	r3, [r4, #36]
 3826 00e4 0133     		adds	r3, r3, #1
 3827 00e6 6362     		str	r3, [r4, #36]
 3828 00e8 238D     		ldrh	r3, [r4, #40]
 3829 00ea 013B     		subs	r3, r3, #1
 3830 00ec 2385     		strh	r3, [r4, #40]	@ movhi
 3831 00ee 638D     		ldrh	r3, [r4, #42]
 3832 00f0 9BB2     		uxth	r3, r3
 3833 00f2 013B     		subs	r3, r3, #1
ARM GAS  /var/folders/kf/d797ysj14bb1pb7szkr3jbx80000gn/T//ccIy82lf.s 			page 67


 3834 00f4 9BB2     		uxth	r3, r3
 3835 00f6 6385     		strh	r3, [r4, #42]	@ movhi
 3836 00f8 D0E7     		b	.L461
 3837              	.L476:
 3838 00fa 236C     		ldr	r3, [r4, #64]
 3839 00fc 042B     		cmp	r3, #4
 3840 00fe 01D0     		beq	.L477
 3841              	.L463:
 3842 0100 0120     		movs	r0, #1
 3843 0102 8BE7     		b	.L459
 3844              	.L477:
 3845 0104 2268     		ldr	r2, [r4]
 3846 0106 1368     		ldr	r3, [r2]
 3847 0108 43F40073 		orr	r3, r3, #512
 3848 010c 1360     		str	r3, [r2]
 3849 010e F7E7     		b	.L463
 3850              	.L475:
 3851 0110 2A46     		mov	r2, r5
 3852 0112 0A99     		ldr	r1, [sp, #40]
 3853 0114 2046     		mov	r0, r4
 3854 0116 FFF7FEFF 		bl	I2C_WaitOnBTFFlagUntilTimeout
 3855 011a 50B1     		cbz	r0, .L466
 3856 011c 236C     		ldr	r3, [r4, #64]
 3857 011e 042B     		cmp	r3, #4
 3858 0120 01D0     		beq	.L478
 3859              	.L467:
 3860 0122 0120     		movs	r0, #1
 3861 0124 7AE7     		b	.L459
 3862              	.L478:
 3863 0126 2268     		ldr	r2, [r4]
 3864 0128 1368     		ldr	r3, [r2]
 3865 012a 43F40073 		orr	r3, r3, #512
 3866 012e 1360     		str	r3, [r2]
 3867 0130 F7E7     		b	.L467
 3868              	.L466:
 3869 0132 2268     		ldr	r2, [r4]
 3870 0134 1368     		ldr	r3, [r2]
 3871 0136 43F40073 		orr	r3, r3, #512
 3872 013a 1360     		str	r3, [r2]
 3873 013c 2023     		movs	r3, #32
 3874 013e 84F83D30 		strb	r3, [r4, #61]
 3875 0142 0023     		movs	r3, #0
 3876 0144 84F83E30 		strb	r3, [r4, #62]
 3877 0148 84F83C30 		strb	r3, [r4, #60]
 3878 014c 66E7     		b	.L459
 3879              	.L469:
 3880 014e 0220     		movs	r0, #2
 3881 0150 64E7     		b	.L459
 3882              	.L470:
 3883 0152 0220     		movs	r0, #2
 3884 0154 62E7     		b	.L459
 3885              	.L474:
 3886 0156 0120     		movs	r0, #1
 3887 0158 60E7     		b	.L459
 3888              	.L480:
 3889 015a 00BF     		.align	2
 3890              	.L479:
ARM GAS  /var/folders/kf/d797ysj14bb1pb7szkr3jbx80000gn/T//ccIy82lf.s 			page 68


 3891 015c 02001000 		.word	1048578
 3892 0160 0000FFFF 		.word	-65536
 3894              		.section	.text.HAL_I2C_Mem_Read,"ax",%progbits
 3895              		.align	1
 3896              		.global	HAL_I2C_Mem_Read
 3897              		.syntax unified
 3898              		.thumb
 3899              		.thumb_func
 3901              	HAL_I2C_Mem_Read:
 3902              		@ args = 12, pretend = 0, frame = 16
 3903              		@ frame_needed = 0, uses_anonymous_args = 0
 3904 0000 2DE9F043 		push	{r4, r5, r6, r7, r8, r9, lr}
 3905 0004 87B0     		sub	sp, sp, #28
 3906 0006 0446     		mov	r4, r0
 3907 0008 0F46     		mov	r7, r1
 3908 000a 9046     		mov	r8, r2
 3909 000c 9946     		mov	r9, r3
 3910 000e 109E     		ldr	r6, [sp, #64]
 3911 0010 FFF7FEFF 		bl	HAL_GetTick
 3912 0014 94F83D20 		ldrb	r2, [r4, #61]	@ zero_extendqisi2
 3913 0018 202A     		cmp	r2, #32
 3914 001a 05D0     		beq	.L505
 3915 001c 0223     		movs	r3, #2
 3916 001e 1F46     		mov	r7, r3
 3917              	.L482:
 3918 0020 3846     		mov	r0, r7
 3919 0022 07B0     		add	sp, sp, #28
 3920              		@ sp needed
 3921 0024 BDE8F083 		pop	{r4, r5, r6, r7, r8, r9, pc}
 3922              	.L505:
 3923 0028 0546     		mov	r5, r0
 3924 002a 0090     		str	r0, [sp]
 3925 002c 1923     		movs	r3, #25
 3926 002e 0122     		movs	r2, #1
 3927 0030 8849     		ldr	r1, .L512
 3928 0032 2046     		mov	r0, r4
 3929 0034 FFF7FEFF 		bl	I2C_WaitOnFlagUntilTimeout
 3930 0038 0028     		cmp	r0, #0
 3931 003a 40F04D81 		bne	.L496
 3932 003e 94F83C30 		ldrb	r3, [r4, #60]	@ zero_extendqisi2
 3933 0042 012B     		cmp	r3, #1
 3934 0044 00F04B81 		beq	.L497
 3935 0048 0123     		movs	r3, #1
 3936 004a 84F83C30 		strb	r3, [r4, #60]
 3937 004e 2368     		ldr	r3, [r4]
 3938 0050 1A68     		ldr	r2, [r3]
 3939 0052 12F0010F 		tst	r2, #1
 3940 0056 03D1     		bne	.L483
 3941 0058 1A68     		ldr	r2, [r3]
 3942 005a 42F00102 		orr	r2, r2, #1
 3943 005e 1A60     		str	r2, [r3]
 3944              	.L483:
 3945 0060 2268     		ldr	r2, [r4]
 3946 0062 1368     		ldr	r3, [r2]
 3947 0064 23F40063 		bic	r3, r3, #2048
 3948 0068 1360     		str	r3, [r2]
 3949 006a 2223     		movs	r3, #34
ARM GAS  /var/folders/kf/d797ysj14bb1pb7szkr3jbx80000gn/T//ccIy82lf.s 			page 69


 3950 006c 84F83D30 		strb	r3, [r4, #61]
 3951 0070 4023     		movs	r3, #64
 3952 0072 84F83E30 		strb	r3, [r4, #62]
 3953 0076 0023     		movs	r3, #0
 3954 0078 2364     		str	r3, [r4, #64]
 3955 007a 0E9B     		ldr	r3, [sp, #56]
 3956 007c 6362     		str	r3, [r4, #36]
 3957 007e BDF83C30 		ldrh	r3, [sp, #60]
 3958 0082 6385     		strh	r3, [r4, #42]	@ movhi
 3959 0084 638D     		ldrh	r3, [r4, #42]
 3960 0086 2385     		strh	r3, [r4, #40]	@ movhi
 3961 0088 734B     		ldr	r3, .L512+4
 3962 008a E362     		str	r3, [r4, #44]
 3963 008c 0195     		str	r5, [sp, #4]
 3964 008e 0096     		str	r6, [sp]
 3965 0090 4B46     		mov	r3, r9
 3966 0092 4246     		mov	r2, r8
 3967 0094 3946     		mov	r1, r7
 3968 0096 2046     		mov	r0, r4
 3969 0098 FFF7FEFF 		bl	I2C_RequestMemoryRead
 3970 009c 0746     		mov	r7, r0
 3971 009e 0028     		cmp	r0, #0
 3972 00a0 40F02081 		bne	.L498
 3973 00a4 238D     		ldrh	r3, [r4, #40]
 3974 00a6 5BB9     		cbnz	r3, .L484
 3975 00a8 0293     		str	r3, [sp, #8]
 3976 00aa 2368     		ldr	r3, [r4]
 3977 00ac 5A69     		ldr	r2, [r3, #20]
 3978 00ae 0292     		str	r2, [sp, #8]
 3979 00b0 9A69     		ldr	r2, [r3, #24]
 3980 00b2 0292     		str	r2, [sp, #8]
 3981 00b4 029A     		ldr	r2, [sp, #8]
 3982 00b6 1A68     		ldr	r2, [r3]
 3983 00b8 42F40072 		orr	r2, r2, #512
 3984 00bc 1A60     		str	r2, [r3]
 3985 00be 75E0     		b	.L493
 3986              	.L484:
 3987 00c0 012B     		cmp	r3, #1
 3988 00c2 0AD0     		beq	.L506
 3989 00c4 022B     		cmp	r3, #2
 3990 00c6 1AD0     		beq	.L507
 3991 00c8 0023     		movs	r3, #0
 3992 00ca 0593     		str	r3, [sp, #20]
 3993 00cc 2368     		ldr	r3, [r4]
 3994 00ce 5A69     		ldr	r2, [r3, #20]
 3995 00d0 0592     		str	r2, [sp, #20]
 3996 00d2 9B69     		ldr	r3, [r3, #24]
 3997 00d4 0593     		str	r3, [sp, #20]
 3998 00d6 059B     		ldr	r3, [sp, #20]
 3999 00d8 68E0     		b	.L493
 4000              	.L506:
 4001 00da 2268     		ldr	r2, [r4]
 4002 00dc 1368     		ldr	r3, [r2]
 4003 00de 23F48063 		bic	r3, r3, #1024
 4004 00e2 1360     		str	r3, [r2]
 4005 00e4 0023     		movs	r3, #0
 4006 00e6 0393     		str	r3, [sp, #12]
ARM GAS  /var/folders/kf/d797ysj14bb1pb7szkr3jbx80000gn/T//ccIy82lf.s 			page 70


 4007 00e8 2368     		ldr	r3, [r4]
 4008 00ea 5A69     		ldr	r2, [r3, #20]
 4009 00ec 0392     		str	r2, [sp, #12]
 4010 00ee 9A69     		ldr	r2, [r3, #24]
 4011 00f0 0392     		str	r2, [sp, #12]
 4012 00f2 039A     		ldr	r2, [sp, #12]
 4013 00f4 1A68     		ldr	r2, [r3]
 4014 00f6 42F40072 		orr	r2, r2, #512
 4015 00fa 1A60     		str	r2, [r3]
 4016 00fc 56E0     		b	.L493
 4017              	.L507:
 4018 00fe 2268     		ldr	r2, [r4]
 4019 0100 1368     		ldr	r3, [r2]
 4020 0102 23F48063 		bic	r3, r3, #1024
 4021 0106 1360     		str	r3, [r2]
 4022 0108 2268     		ldr	r2, [r4]
 4023 010a 1368     		ldr	r3, [r2]
 4024 010c 43F40063 		orr	r3, r3, #2048
 4025 0110 1360     		str	r3, [r2]
 4026 0112 0023     		movs	r3, #0
 4027 0114 0493     		str	r3, [sp, #16]
 4028 0116 2368     		ldr	r3, [r4]
 4029 0118 5A69     		ldr	r2, [r3, #20]
 4030 011a 0492     		str	r2, [sp, #16]
 4031 011c 9B69     		ldr	r3, [r3, #24]
 4032 011e 0493     		str	r3, [sp, #16]
 4033 0120 049B     		ldr	r3, [sp, #16]
 4034 0122 43E0     		b	.L493
 4035              	.L509:
 4036 0124 2A46     		mov	r2, r5
 4037 0126 3146     		mov	r1, r6
 4038 0128 2046     		mov	r0, r4
 4039 012a FFF7FEFF 		bl	I2C_WaitOnRXNEFlagUntilTimeout
 4040 012e 0028     		cmp	r0, #0
 4041 0130 40F0DB80 		bne	.L499
 4042 0134 2368     		ldr	r3, [r4]
 4043 0136 1A69     		ldr	r2, [r3, #16]
 4044 0138 636A     		ldr	r3, [r4, #36]
 4045 013a 1A70     		strb	r2, [r3]
 4046 013c 636A     		ldr	r3, [r4, #36]
 4047 013e 0133     		adds	r3, r3, #1
 4048 0140 6362     		str	r3, [r4, #36]
 4049 0142 238D     		ldrh	r3, [r4, #40]
 4050 0144 013B     		subs	r3, r3, #1
 4051 0146 2385     		strh	r3, [r4, #40]	@ movhi
 4052 0148 638D     		ldrh	r3, [r4, #42]
 4053 014a 9BB2     		uxth	r3, r3
 4054 014c 013B     		subs	r3, r3, #1
 4055 014e 9BB2     		uxth	r3, r3
 4056 0150 6385     		strh	r3, [r4, #42]	@ movhi
 4057 0152 2BE0     		b	.L493
 4058              	.L510:
 4059 0154 0095     		str	r5, [sp]
 4060 0156 3346     		mov	r3, r6
 4061 0158 0022     		movs	r2, #0
 4062 015a 4049     		ldr	r1, .L512+8
 4063 015c 2046     		mov	r0, r4
ARM GAS  /var/folders/kf/d797ysj14bb1pb7szkr3jbx80000gn/T//ccIy82lf.s 			page 71


 4064 015e FFF7FEFF 		bl	I2C_WaitOnFlagUntilTimeout
 4065 0162 0028     		cmp	r0, #0
 4066 0164 40F0C480 		bne	.L500
 4067 0168 2268     		ldr	r2, [r4]
 4068 016a 1368     		ldr	r3, [r2]
 4069 016c 43F40073 		orr	r3, r3, #512
 4070 0170 1360     		str	r3, [r2]
 4071 0172 2368     		ldr	r3, [r4]
 4072 0174 1A69     		ldr	r2, [r3, #16]
 4073 0176 636A     		ldr	r3, [r4, #36]
 4074 0178 1A70     		strb	r2, [r3]
 4075 017a 626A     		ldr	r2, [r4, #36]
 4076 017c 531C     		adds	r3, r2, #1
 4077 017e 6362     		str	r3, [r4, #36]
 4078 0180 238D     		ldrh	r3, [r4, #40]
 4079 0182 013B     		subs	r3, r3, #1
 4080 0184 2385     		strh	r3, [r4, #40]	@ movhi
 4081 0186 638D     		ldrh	r3, [r4, #42]
 4082 0188 9BB2     		uxth	r3, r3
 4083 018a 013B     		subs	r3, r3, #1
 4084 018c 9BB2     		uxth	r3, r3
 4085 018e 6385     		strh	r3, [r4, #42]	@ movhi
 4086 0190 2368     		ldr	r3, [r4]
 4087 0192 1B69     		ldr	r3, [r3, #16]
 4088 0194 5370     		strb	r3, [r2, #1]
 4089 0196 636A     		ldr	r3, [r4, #36]
 4090 0198 0133     		adds	r3, r3, #1
 4091 019a 6362     		str	r3, [r4, #36]
 4092 019c 238D     		ldrh	r3, [r4, #40]
 4093 019e 013B     		subs	r3, r3, #1
 4094 01a0 2385     		strh	r3, [r4, #40]	@ movhi
 4095 01a2 638D     		ldrh	r3, [r4, #42]
 4096 01a4 9BB2     		uxth	r3, r3
 4097 01a6 013B     		subs	r3, r3, #1
 4098 01a8 9BB2     		uxth	r3, r3
 4099 01aa 6385     		strh	r3, [r4, #42]	@ movhi
 4100              	.L493:
 4101 01ac 238D     		ldrh	r3, [r4, #40]
 4102 01ae 002B     		cmp	r3, #0
 4103 01b0 00F08980 		beq	.L508
 4104 01b4 032B     		cmp	r3, #3
 4105 01b6 53D8     		bhi	.L488
 4106 01b8 012B     		cmp	r3, #1
 4107 01ba B3D0     		beq	.L509
 4108 01bc 022B     		cmp	r3, #2
 4109 01be C9D0     		beq	.L510
 4110 01c0 0095     		str	r5, [sp]
 4111 01c2 3346     		mov	r3, r6
 4112 01c4 0022     		movs	r2, #0
 4113 01c6 2549     		ldr	r1, .L512+8
 4114 01c8 2046     		mov	r0, r4
 4115 01ca FFF7FEFF 		bl	I2C_WaitOnFlagUntilTimeout
 4116 01ce 0028     		cmp	r0, #0
 4117 01d0 40F09180 		bne	.L501
 4118 01d4 2268     		ldr	r2, [r4]
 4119 01d6 1368     		ldr	r3, [r2]
 4120 01d8 23F48063 		bic	r3, r3, #1024
ARM GAS  /var/folders/kf/d797ysj14bb1pb7szkr3jbx80000gn/T//ccIy82lf.s 			page 72


 4121 01dc 1360     		str	r3, [r2]
 4122 01de 2368     		ldr	r3, [r4]
 4123 01e0 1A69     		ldr	r2, [r3, #16]
 4124 01e2 636A     		ldr	r3, [r4, #36]
 4125 01e4 1A70     		strb	r2, [r3]
 4126 01e6 636A     		ldr	r3, [r4, #36]
 4127 01e8 0133     		adds	r3, r3, #1
 4128 01ea 6362     		str	r3, [r4, #36]
 4129 01ec 238D     		ldrh	r3, [r4, #40]
 4130 01ee 013B     		subs	r3, r3, #1
 4131 01f0 2385     		strh	r3, [r4, #40]	@ movhi
 4132 01f2 638D     		ldrh	r3, [r4, #42]
 4133 01f4 9BB2     		uxth	r3, r3
 4134 01f6 013B     		subs	r3, r3, #1
 4135 01f8 9BB2     		uxth	r3, r3
 4136 01fa 6385     		strh	r3, [r4, #42]	@ movhi
 4137 01fc 0095     		str	r5, [sp]
 4138 01fe 3346     		mov	r3, r6
 4139 0200 0246     		mov	r2, r0
 4140 0202 1649     		ldr	r1, .L512+8
 4141 0204 2046     		mov	r0, r4
 4142 0206 FFF7FEFF 		bl	I2C_WaitOnFlagUntilTimeout
 4143 020a 0028     		cmp	r0, #0
 4144 020c 76D1     		bne	.L502
 4145 020e 2268     		ldr	r2, [r4]
 4146 0210 1368     		ldr	r3, [r2]
 4147 0212 43F40073 		orr	r3, r3, #512
 4148 0216 1360     		str	r3, [r2]
 4149 0218 2368     		ldr	r3, [r4]
 4150 021a 1A69     		ldr	r2, [r3, #16]
 4151 021c 636A     		ldr	r3, [r4, #36]
 4152 021e 1A70     		strb	r2, [r3]
 4153 0220 626A     		ldr	r2, [r4, #36]
 4154 0222 531C     		adds	r3, r2, #1
 4155 0224 6362     		str	r3, [r4, #36]
 4156 0226 238D     		ldrh	r3, [r4, #40]
 4157 0228 013B     		subs	r3, r3, #1
 4158 022a 2385     		strh	r3, [r4, #40]	@ movhi
 4159 022c 638D     		ldrh	r3, [r4, #42]
 4160 022e 9BB2     		uxth	r3, r3
 4161 0230 013B     		subs	r3, r3, #1
 4162 0232 9BB2     		uxth	r3, r3
 4163 0234 6385     		strh	r3, [r4, #42]	@ movhi
 4164 0236 2368     		ldr	r3, [r4]
 4165 0238 1B69     		ldr	r3, [r3, #16]
 4166 023a 5370     		strb	r3, [r2, #1]
 4167 023c 636A     		ldr	r3, [r4, #36]
 4168 023e 0133     		adds	r3, r3, #1
 4169 0240 6362     		str	r3, [r4, #36]
 4170 0242 238D     		ldrh	r3, [r4, #40]
 4171 0244 013B     		subs	r3, r3, #1
 4172 0246 2385     		strh	r3, [r4, #40]	@ movhi
 4173 0248 638D     		ldrh	r3, [r4, #42]
 4174 024a 9BB2     		uxth	r3, r3
 4175 024c 013B     		subs	r3, r3, #1
 4176 024e 9BB2     		uxth	r3, r3
 4177 0250 6385     		strh	r3, [r4, #42]	@ movhi
ARM GAS  /var/folders/kf/d797ysj14bb1pb7szkr3jbx80000gn/T//ccIy82lf.s 			page 73


 4178 0252 ABE7     		b	.L493
 4179              	.L513:
 4180              		.align	2
 4181              	.L512:
 4182 0254 02001000 		.word	1048578
 4183 0258 0000FFFF 		.word	-65536
 4184 025c 04000100 		.word	65540
 4185              	.L488:
 4186 0260 2A46     		mov	r2, r5
 4187 0262 3146     		mov	r1, r6
 4188 0264 2046     		mov	r0, r4
 4189 0266 FFF7FEFF 		bl	I2C_WaitOnRXNEFlagUntilTimeout
 4190 026a 0028     		cmp	r0, #0
 4191 026c 49D1     		bne	.L503
 4192 026e 2368     		ldr	r3, [r4]
 4193 0270 1A69     		ldr	r2, [r3, #16]
 4194 0272 636A     		ldr	r3, [r4, #36]
 4195 0274 1A70     		strb	r2, [r3]
 4196 0276 636A     		ldr	r3, [r4, #36]
 4197 0278 0133     		adds	r3, r3, #1
 4198 027a 6362     		str	r3, [r4, #36]
 4199 027c 228D     		ldrh	r2, [r4, #40]
 4200 027e 013A     		subs	r2, r2, #1
 4201 0280 92B2     		uxth	r2, r2
 4202 0282 2285     		strh	r2, [r4, #40]	@ movhi
 4203 0284 638D     		ldrh	r3, [r4, #42]
 4204 0286 9BB2     		uxth	r3, r3
 4205 0288 013B     		subs	r3, r3, #1
 4206 028a 9BB2     		uxth	r3, r3
 4207 028c 6385     		strh	r3, [r4, #42]	@ movhi
 4208 028e 2368     		ldr	r3, [r4]
 4209 0290 5969     		ldr	r1, [r3, #20]
 4210 0292 11F0040F 		tst	r1, #4
 4211 0296 89D0     		beq	.L493
 4212 0298 032A     		cmp	r2, #3
 4213 029a 0FD0     		beq	.L511
 4214              	.L492:
 4215 029c 2368     		ldr	r3, [r4]
 4216 029e 1A69     		ldr	r2, [r3, #16]
 4217 02a0 636A     		ldr	r3, [r4, #36]
 4218 02a2 1A70     		strb	r2, [r3]
 4219 02a4 636A     		ldr	r3, [r4, #36]
 4220 02a6 0133     		adds	r3, r3, #1
 4221 02a8 6362     		str	r3, [r4, #36]
 4222 02aa 238D     		ldrh	r3, [r4, #40]
 4223 02ac 013B     		subs	r3, r3, #1
 4224 02ae 2385     		strh	r3, [r4, #40]	@ movhi
 4225 02b0 638D     		ldrh	r3, [r4, #42]
 4226 02b2 9BB2     		uxth	r3, r3
 4227 02b4 013B     		subs	r3, r3, #1
 4228 02b6 9BB2     		uxth	r3, r3
 4229 02b8 6385     		strh	r3, [r4, #42]	@ movhi
 4230 02ba 77E7     		b	.L493
 4231              	.L511:
 4232 02bc 1A68     		ldr	r2, [r3]
 4233 02be 22F48062 		bic	r2, r2, #1024
 4234 02c2 1A60     		str	r2, [r3]
ARM GAS  /var/folders/kf/d797ysj14bb1pb7szkr3jbx80000gn/T//ccIy82lf.s 			page 74


 4235 02c4 EAE7     		b	.L492
 4236              	.L508:
 4237 02c6 2023     		movs	r3, #32
 4238 02c8 84F83D30 		strb	r3, [r4, #61]
 4239 02cc 0023     		movs	r3, #0
 4240 02ce 84F83E30 		strb	r3, [r4, #62]
 4241 02d2 84F83C30 		strb	r3, [r4, #60]
 4242 02d6 A3E6     		b	.L482
 4243              	.L496:
 4244 02d8 0223     		movs	r3, #2
 4245 02da 1F46     		mov	r7, r3
 4246 02dc A0E6     		b	.L482
 4247              	.L497:
 4248 02de 0223     		movs	r3, #2
 4249 02e0 1F46     		mov	r7, r3
 4250 02e2 9DE6     		b	.L482
 4251              	.L498:
 4252 02e4 0123     		movs	r3, #1
 4253 02e6 1F46     		mov	r7, r3
 4254 02e8 9AE6     		b	.L482
 4255              	.L499:
 4256 02ea 0123     		movs	r3, #1
 4257 02ec 1F46     		mov	r7, r3
 4258 02ee 97E6     		b	.L482
 4259              	.L500:
 4260 02f0 0123     		movs	r3, #1
 4261 02f2 1F46     		mov	r7, r3
 4262 02f4 94E6     		b	.L482
 4263              	.L501:
 4264 02f6 0123     		movs	r3, #1
 4265 02f8 1F46     		mov	r7, r3
 4266 02fa 91E6     		b	.L482
 4267              	.L502:
 4268 02fc 0123     		movs	r3, #1
 4269 02fe 1F46     		mov	r7, r3
 4270 0300 8EE6     		b	.L482
 4271              	.L503:
 4272 0302 0123     		movs	r3, #1
 4273 0304 1F46     		mov	r7, r3
 4274 0306 8BE6     		b	.L482
 4276              		.section	.text.HAL_I2C_Mem_Write_IT,"ax",%progbits
 4277              		.align	1
 4278              		.global	HAL_I2C_Mem_Write_IT
 4279              		.syntax unified
 4280              		.thumb
 4281              		.thumb_func
 4283              	HAL_I2C_Mem_Write_IT:
 4284              		@ args = 8, pretend = 0, frame = 8
 4285              		@ frame_needed = 0, uses_anonymous_args = 0
 4286 0000 10B5     		push	{r4, lr}
 4287 0002 82B0     		sub	sp, sp, #8
 4288 0004 1C46     		mov	r4, r3
 4289 0006 0023     		movs	r3, #0
 4290 0008 0193     		str	r3, [sp, #4]
 4291 000a 90F83D30 		ldrb	r3, [r0, #61]	@ zero_extendqisi2
 4292 000e 202B     		cmp	r3, #32
 4293 0010 5CD1     		bne	.L519
ARM GAS  /var/folders/kf/d797ysj14bb1pb7szkr3jbx80000gn/T//ccIy82lf.s 			page 75


 4294 0012 9646     		mov	lr, r2
 4295 0014 304B     		ldr	r3, .L523
 4296 0016 1B68     		ldr	r3, [r3]
 4297 0018 4FEAD30C 		lsr	ip, r3, #3
 4298 001c 2F4B     		ldr	r3, .L523+4
 4299 001e A3FB0C3C 		umull	r3, ip, r3, ip
 4300 0022 4FEA1C2C 		lsr	ip, ip, #8
 4301 0026 0CEB8C0C 		add	ip, ip, ip, lsl #2
 4302 002a 0CEB8C03 		add	r3, ip, ip, lsl #2
 4303 002e 0193     		str	r3, [sp, #4]
 4304              	.L517:
 4305 0030 019B     		ldr	r3, [sp, #4]
 4306 0032 013B     		subs	r3, r3, #1
 4307 0034 0193     		str	r3, [sp, #4]
 4308 0036 019B     		ldr	r3, [sp, #4]
 4309 0038 002B     		cmp	r3, #0
 4310 003a 3CD0     		beq	.L522
 4311 003c 0368     		ldr	r3, [r0]
 4312 003e 9A69     		ldr	r2, [r3, #24]
 4313 0040 12F0020F 		tst	r2, #2
 4314 0044 F4D1     		bne	.L517
 4315 0046 90F83C20 		ldrb	r2, [r0, #60]	@ zero_extendqisi2
 4316 004a 012A     		cmp	r2, #1
 4317 004c 41D0     		beq	.L520
 4318 004e 0122     		movs	r2, #1
 4319 0050 80F83C20 		strb	r2, [r0, #60]
 4320 0054 1A68     		ldr	r2, [r3]
 4321 0056 12F0010F 		tst	r2, #1
 4322 005a 03D1     		bne	.L518
 4323 005c 1A68     		ldr	r2, [r3]
 4324 005e 42F00102 		orr	r2, r2, #1
 4325 0062 1A60     		str	r2, [r3]
 4326              	.L518:
 4327 0064 0268     		ldr	r2, [r0]
 4328 0066 1368     		ldr	r3, [r2]
 4329 0068 23F40063 		bic	r3, r3, #2048
 4330 006c 1360     		str	r3, [r2]
 4331 006e 2123     		movs	r3, #33
 4332 0070 80F83D30 		strb	r3, [r0, #61]
 4333 0074 4023     		movs	r3, #64
 4334 0076 80F83E30 		strb	r3, [r0, #62]
 4335 007a 0023     		movs	r3, #0
 4336 007c 0364     		str	r3, [r0, #64]
 4337 007e 049A     		ldr	r2, [sp, #16]
 4338 0080 4262     		str	r2, [r0, #36]
 4339 0082 BDF81420 		ldrh	r2, [sp, #20]
 4340 0086 4285     		strh	r2, [r0, #42]	@ movhi
 4341 0088 428D     		ldrh	r2, [r0, #42]
 4342 008a 0285     		strh	r2, [r0, #40]	@ movhi
 4343 008c 144A     		ldr	r2, .L523+8
 4344 008e C262     		str	r2, [r0, #44]
 4345 0090 4164     		str	r1, [r0, #68]
 4346 0092 C0F848E0 		str	lr, [r0, #72]
 4347 0096 C464     		str	r4, [r0, #76]
 4348 0098 0365     		str	r3, [r0, #80]
 4349 009a 0168     		ldr	r1, [r0]
 4350 009c 0A68     		ldr	r2, [r1]
ARM GAS  /var/folders/kf/d797ysj14bb1pb7szkr3jbx80000gn/T//ccIy82lf.s 			page 76


 4351 009e 42F48072 		orr	r2, r2, #256
 4352 00a2 0A60     		str	r2, [r1]
 4353 00a4 80F83C30 		strb	r3, [r0, #60]
 4354 00a8 0168     		ldr	r1, [r0]
 4355 00aa 4A68     		ldr	r2, [r1, #4]
 4356 00ac 42F4E062 		orr	r2, r2, #1792
 4357 00b0 4A60     		str	r2, [r1, #4]
 4358 00b2 1846     		mov	r0, r3
 4359 00b4 0BE0     		b	.L515
 4360              	.L522:
 4361 00b6 0363     		str	r3, [r0, #48]
 4362 00b8 2022     		movs	r2, #32
 4363 00ba 80F83D20 		strb	r2, [r0, #61]
 4364 00be 80F83E30 		strb	r3, [r0, #62]
 4365 00c2 036C     		ldr	r3, [r0, #64]
 4366 00c4 1343     		orrs	r3, r3, r2
 4367 00c6 0364     		str	r3, [r0, #64]
 4368 00c8 0220     		movs	r0, #2
 4369 00ca 00E0     		b	.L515
 4370              	.L519:
 4371 00cc 0220     		movs	r0, #2
 4372              	.L515:
 4373 00ce 02B0     		add	sp, sp, #8
 4374              		@ sp needed
 4375 00d0 10BD     		pop	{r4, pc}
 4376              	.L520:
 4377 00d2 0220     		movs	r0, #2
 4378 00d4 FBE7     		b	.L515
 4379              	.L524:
 4380 00d6 00BF     		.align	2
 4381              	.L523:
 4382 00d8 00000000 		.word	SystemCoreClock
 4383 00dc 89B5F814 		.word	351843721
 4384 00e0 0000FFFF 		.word	-65536
 4386              		.section	.text.HAL_I2C_Mem_Read_IT,"ax",%progbits
 4387              		.align	1
 4388              		.global	HAL_I2C_Mem_Read_IT
 4389              		.syntax unified
 4390              		.thumb
 4391              		.thumb_func
 4393              	HAL_I2C_Mem_Read_IT:
 4394              		@ args = 8, pretend = 0, frame = 8
 4395              		@ frame_needed = 0, uses_anonymous_args = 0
 4396 0000 10B5     		push	{r4, lr}
 4397 0002 82B0     		sub	sp, sp, #8
 4398 0004 1C46     		mov	r4, r3
 4399 0006 0023     		movs	r3, #0
 4400 0008 0193     		str	r3, [sp, #4]
 4401 000a 90F83D30 		ldrb	r3, [r0, #61]	@ zero_extendqisi2
 4402 000e 202B     		cmp	r3, #32
 4403 0010 63D1     		bne	.L531
 4404 0012 9646     		mov	lr, r2
 4405 0014 334B     		ldr	r3, .L535
 4406 0016 1B68     		ldr	r3, [r3]
 4407 0018 4FEAD30C 		lsr	ip, r3, #3
 4408 001c 324B     		ldr	r3, .L535+4
 4409 001e A3FB0C3C 		umull	r3, ip, r3, ip
ARM GAS  /var/folders/kf/d797ysj14bb1pb7szkr3jbx80000gn/T//ccIy82lf.s 			page 77


 4410 0022 4FEA1C2C 		lsr	ip, ip, #8
 4411 0026 0CEB8C0C 		add	ip, ip, ip, lsl #2
 4412 002a 0CEB8C03 		add	r3, ip, ip, lsl #2
 4413 002e 0193     		str	r3, [sp, #4]
 4414              	.L528:
 4415 0030 019B     		ldr	r3, [sp, #4]
 4416 0032 013B     		subs	r3, r3, #1
 4417 0034 0193     		str	r3, [sp, #4]
 4418 0036 019B     		ldr	r3, [sp, #4]
 4419 0038 002B     		cmp	r3, #0
 4420 003a 43D0     		beq	.L534
 4421 003c 0368     		ldr	r3, [r0]
 4422 003e 9A69     		ldr	r2, [r3, #24]
 4423 0040 12F0020F 		tst	r2, #2
 4424 0044 F4D1     		bne	.L528
 4425 0046 90F83C20 		ldrb	r2, [r0, #60]	@ zero_extendqisi2
 4426 004a 012A     		cmp	r2, #1
 4427 004c 48D0     		beq	.L532
 4428 004e 0122     		movs	r2, #1
 4429 0050 80F83C20 		strb	r2, [r0, #60]
 4430 0054 1A68     		ldr	r2, [r3]
 4431 0056 12F0010F 		tst	r2, #1
 4432 005a 03D1     		bne	.L529
 4433 005c 1A68     		ldr	r2, [r3]
 4434 005e 42F00102 		orr	r2, r2, #1
 4435 0062 1A60     		str	r2, [r3]
 4436              	.L529:
 4437 0064 0268     		ldr	r2, [r0]
 4438 0066 1368     		ldr	r3, [r2]
 4439 0068 23F40063 		bic	r3, r3, #2048
 4440 006c 1360     		str	r3, [r2]
 4441 006e 2223     		movs	r3, #34
 4442 0070 80F83D30 		strb	r3, [r0, #61]
 4443 0074 4023     		movs	r3, #64
 4444 0076 80F83E30 		strb	r3, [r0, #62]
 4445 007a 0023     		movs	r3, #0
 4446 007c 0364     		str	r3, [r0, #64]
 4447 007e 049A     		ldr	r2, [sp, #16]
 4448 0080 4262     		str	r2, [r0, #36]
 4449 0082 BDF81420 		ldrh	r2, [sp, #20]
 4450 0086 4285     		strh	r2, [r0, #42]	@ movhi
 4451 0088 428D     		ldrh	r2, [r0, #42]
 4452 008a 0285     		strh	r2, [r0, #40]	@ movhi
 4453 008c 174A     		ldr	r2, .L535+8
 4454 008e C262     		str	r2, [r0, #44]
 4455 0090 4164     		str	r1, [r0, #68]
 4456 0092 C0F848E0 		str	lr, [r0, #72]
 4457 0096 C464     		str	r4, [r0, #76]
 4458 0098 0365     		str	r3, [r0, #80]
 4459 009a 0168     		ldr	r1, [r0]
 4460 009c 0A68     		ldr	r2, [r1]
 4461 009e 42F48062 		orr	r2, r2, #1024
 4462 00a2 0A60     		str	r2, [r1]
 4463 00a4 0168     		ldr	r1, [r0]
 4464 00a6 0A68     		ldr	r2, [r1]
 4465 00a8 42F48072 		orr	r2, r2, #256
 4466 00ac 0A60     		str	r2, [r1]
ARM GAS  /var/folders/kf/d797ysj14bb1pb7szkr3jbx80000gn/T//ccIy82lf.s 			page 78


 4467 00ae 80F83C30 		strb	r3, [r0, #60]
 4468 00b2 038D     		ldrh	r3, [r0, #40]
 4469 00b4 23B1     		cbz	r3, .L530
 4470 00b6 0268     		ldr	r2, [r0]
 4471 00b8 5368     		ldr	r3, [r2, #4]
 4472 00ba 43F4E063 		orr	r3, r3, #1792
 4473 00be 5360     		str	r3, [r2, #4]
 4474              	.L530:
 4475 00c0 0020     		movs	r0, #0
 4476 00c2 0BE0     		b	.L526
 4477              	.L534:
 4478 00c4 0363     		str	r3, [r0, #48]
 4479 00c6 2022     		movs	r2, #32
 4480 00c8 80F83D20 		strb	r2, [r0, #61]
 4481 00cc 80F83E30 		strb	r3, [r0, #62]
 4482 00d0 036C     		ldr	r3, [r0, #64]
 4483 00d2 1343     		orrs	r3, r3, r2
 4484 00d4 0364     		str	r3, [r0, #64]
 4485 00d6 0220     		movs	r0, #2
 4486 00d8 00E0     		b	.L526
 4487              	.L531:
 4488 00da 0220     		movs	r0, #2
 4489              	.L526:
 4490 00dc 02B0     		add	sp, sp, #8
 4491              		@ sp needed
 4492 00de 10BD     		pop	{r4, pc}
 4493              	.L532:
 4494 00e0 0220     		movs	r0, #2
 4495 00e2 FBE7     		b	.L526
 4496              	.L536:
 4497              		.align	2
 4498              	.L535:
 4499 00e4 00000000 		.word	SystemCoreClock
 4500 00e8 89B5F814 		.word	351843721
 4501 00ec 0000FFFF 		.word	-65536
 4503              		.section	.text.HAL_I2C_Mem_Write_DMA,"ax",%progbits
 4504              		.align	1
 4505              		.global	HAL_I2C_Mem_Write_DMA
 4506              		.syntax unified
 4507              		.thumb
 4508              		.thumb_func
 4510              	HAL_I2C_Mem_Write_DMA:
 4511              		@ args = 8, pretend = 0, frame = 8
 4512              		@ frame_needed = 0, uses_anonymous_args = 0
 4513 0000 2DE9F041 		push	{r4, r5, r6, r7, r8, lr}
 4514 0004 84B0     		sub	sp, sp, #16
 4515 0006 0446     		mov	r4, r0
 4516 0008 0D46     		mov	r5, r1
 4517 000a 1646     		mov	r6, r2
 4518 000c 1F46     		mov	r7, r3
 4519 000e 0023     		movs	r3, #0
 4520 0010 0393     		str	r3, [sp, #12]
 4521 0012 FFF7FEFF 		bl	HAL_GetTick
 4522 0016 94F83D30 		ldrb	r3, [r4, #61]	@ zero_extendqisi2
 4523 001a 202B     		cmp	r3, #32
 4524 001c 40F0C580 		bne	.L547
 4525 0020 8046     		mov	r8, r0
ARM GAS  /var/folders/kf/d797ysj14bb1pb7szkr3jbx80000gn/T//ccIy82lf.s 			page 79


 4526 0022 654B     		ldr	r3, .L554
 4527 0024 1B68     		ldr	r3, [r3]
 4528 0026 DB08     		lsrs	r3, r3, #3
 4529 0028 644A     		ldr	r2, .L554+4
 4530 002a A2FB0323 		umull	r2, r3, r2, r3
 4531 002e 1B0A     		lsrs	r3, r3, #8
 4532 0030 03EB8303 		add	r3, r3, r3, lsl #2
 4533 0034 03EB8303 		add	r3, r3, r3, lsl #2
 4534 0038 0393     		str	r3, [sp, #12]
 4535              	.L540:
 4536 003a 039B     		ldr	r3, [sp, #12]
 4537 003c 013B     		subs	r3, r3, #1
 4538 003e 0393     		str	r3, [sp, #12]
 4539 0040 0398     		ldr	r0, [sp, #12]
 4540 0042 0028     		cmp	r0, #0
 4541 0044 58D0     		beq	.L551
 4542 0046 2368     		ldr	r3, [r4]
 4543 0048 9A69     		ldr	r2, [r3, #24]
 4544 004a 12F0020F 		tst	r2, #2
 4545 004e F4D1     		bne	.L540
 4546 0050 94F83C20 		ldrb	r2, [r4, #60]	@ zero_extendqisi2
 4547 0054 012A     		cmp	r2, #1
 4548 0056 00F0AC80 		beq	.L548
 4549 005a 0122     		movs	r2, #1
 4550 005c 84F83C20 		strb	r2, [r4, #60]
 4551 0060 1A68     		ldr	r2, [r3]
 4552 0062 12F0010F 		tst	r2, #1
 4553 0066 03D1     		bne	.L541
 4554 0068 1A68     		ldr	r2, [r3]
 4555 006a 42F00102 		orr	r2, r2, #1
 4556 006e 1A60     		str	r2, [r3]
 4557              	.L541:
 4558 0070 2268     		ldr	r2, [r4]
 4559 0072 1368     		ldr	r3, [r2]
 4560 0074 23F40063 		bic	r3, r3, #2048
 4561 0078 1360     		str	r3, [r2]
 4562 007a 2123     		movs	r3, #33
 4563 007c 84F83D30 		strb	r3, [r4, #61]
 4564 0080 4023     		movs	r3, #64
 4565 0082 84F83E30 		strb	r3, [r4, #62]
 4566 0086 0022     		movs	r2, #0
 4567 0088 2264     		str	r2, [r4, #64]
 4568 008a 0A9B     		ldr	r3, [sp, #40]
 4569 008c 6362     		str	r3, [r4, #36]
 4570 008e BDF82C30 		ldrh	r3, [sp, #44]
 4571 0092 6385     		strh	r3, [r4, #42]	@ movhi
 4572 0094 638D     		ldrh	r3, [r4, #42]
 4573 0096 9BB2     		uxth	r3, r3
 4574 0098 2385     		strh	r3, [r4, #40]	@ movhi
 4575 009a 4949     		ldr	r1, .L554+8
 4576 009c E162     		str	r1, [r4, #44]
 4577 009e 6564     		str	r5, [r4, #68]
 4578 00a0 A664     		str	r6, [r4, #72]
 4579 00a2 E764     		str	r7, [r4, #76]
 4580 00a4 2265     		str	r2, [r4, #80]
 4581 00a6 002B     		cmp	r3, #0
 4582 00a8 71D0     		beq	.L542
ARM GAS  /var/folders/kf/d797ysj14bb1pb7szkr3jbx80000gn/T//ccIy82lf.s 			page 80


 4583 00aa 636B     		ldr	r3, [r4, #52]
 4584 00ac 002B     		cmp	r3, #0
 4585 00ae 2ED0     		beq	.L543
 4586 00b0 444A     		ldr	r2, .L554+12
 4587 00b2 DA63     		str	r2, [r3, #60]
 4588 00b4 636B     		ldr	r3, [r4, #52]
 4589 00b6 444A     		ldr	r2, .L554+16
 4590 00b8 DA64     		str	r2, [r3, #76]
 4591 00ba 626B     		ldr	r2, [r4, #52]
 4592 00bc 0023     		movs	r3, #0
 4593 00be 1364     		str	r3, [r2, #64]
 4594 00c0 626B     		ldr	r2, [r4, #52]
 4595 00c2 5364     		str	r3, [r2, #68]
 4596 00c4 626B     		ldr	r2, [r4, #52]
 4597 00c6 9364     		str	r3, [r2, #72]
 4598 00c8 626B     		ldr	r2, [r4, #52]
 4599 00ca 1365     		str	r3, [r2, #80]
 4600 00cc 2268     		ldr	r2, [r4]
 4601 00ce 238D     		ldrh	r3, [r4, #40]
 4602 00d0 1032     		adds	r2, r2, #16
 4603 00d2 616A     		ldr	r1, [r4, #36]
 4604 00d4 606B     		ldr	r0, [r4, #52]
 4605 00d6 FFF7FEFF 		bl	HAL_DMA_Start_IT
 4606 00da 30B3     		cbz	r0, .L552
 4607 00dc 2023     		movs	r3, #32
 4608 00de 84F83D30 		strb	r3, [r4, #61]
 4609 00e2 0022     		movs	r2, #0
 4610 00e4 84F83E20 		strb	r2, [r4, #62]
 4611 00e8 236C     		ldr	r3, [r4, #64]
 4612 00ea 43F01003 		orr	r3, r3, #16
 4613 00ee 2364     		str	r3, [r4, #64]
 4614 00f0 84F83C20 		strb	r2, [r4, #60]
 4615 00f4 0120     		movs	r0, #1
 4616 00f6 59E0     		b	.L538
 4617              	.L551:
 4618 00f8 2063     		str	r0, [r4, #48]
 4619 00fa 2022     		movs	r2, #32
 4620 00fc 84F83D20 		strb	r2, [r4, #61]
 4621 0100 84F83E00 		strb	r0, [r4, #62]
 4622 0104 236C     		ldr	r3, [r4, #64]
 4623 0106 1343     		orrs	r3, r3, r2
 4624 0108 2364     		str	r3, [r4, #64]
 4625 010a 0220     		movs	r0, #2
 4626 010c 4EE0     		b	.L538
 4627              	.L543:
 4628 010e 2023     		movs	r3, #32
 4629 0110 84F83D30 		strb	r3, [r4, #61]
 4630 0114 0022     		movs	r2, #0
 4631 0116 84F83E20 		strb	r2, [r4, #62]
 4632 011a 236C     		ldr	r3, [r4, #64]
 4633 011c 43F08003 		orr	r3, r3, #128
 4634 0120 2364     		str	r3, [r4, #64]
 4635 0122 84F83C20 		strb	r2, [r4, #60]
 4636 0126 0120     		movs	r0, #1
 4637 0128 40E0     		b	.L538
 4638              	.L552:
 4639 012a CDF80480 		str	r8, [sp, #4]
ARM GAS  /var/folders/kf/d797ysj14bb1pb7szkr3jbx80000gn/T//ccIy82lf.s 			page 81


 4640 012e 2323     		movs	r3, #35
 4641 0130 0093     		str	r3, [sp]
 4642 0132 3B46     		mov	r3, r7
 4643 0134 3246     		mov	r2, r6
 4644 0136 2946     		mov	r1, r5
 4645 0138 2046     		mov	r0, r4
 4646 013a FFF7FEFF 		bl	I2C_RequestMemoryWrite
 4647 013e 90B9     		cbnz	r0, .L553
 4648 0140 0290     		str	r0, [sp, #8]
 4649 0142 2368     		ldr	r3, [r4]
 4650 0144 5969     		ldr	r1, [r3, #20]
 4651 0146 0291     		str	r1, [sp, #8]
 4652 0148 9969     		ldr	r1, [r3, #24]
 4653 014a 0291     		str	r1, [sp, #8]
 4654 014c 0299     		ldr	r1, [sp, #8]
 4655 014e 84F83C00 		strb	r0, [r4, #60]
 4656 0152 5A68     		ldr	r2, [r3, #4]
 4657 0154 42F48072 		orr	r2, r2, #256
 4658 0158 5A60     		str	r2, [r3, #4]
 4659 015a 2268     		ldr	r2, [r4]
 4660 015c 5368     		ldr	r3, [r2, #4]
 4661 015e 43F40063 		orr	r3, r3, #2048
 4662 0162 5360     		str	r3, [r2, #4]
 4663 0164 22E0     		b	.L538
 4664              	.L553:
 4665 0166 606B     		ldr	r0, [r4, #52]
 4666 0168 FFF7FEFF 		bl	HAL_DMA_Abort_IT
 4667 016c 626B     		ldr	r2, [r4, #52]
 4668 016e 0023     		movs	r3, #0
 4669 0170 D363     		str	r3, [r2, #60]
 4670 0172 2168     		ldr	r1, [r4]
 4671 0174 0A68     		ldr	r2, [r1]
 4672 0176 22F48062 		bic	r2, r2, #1024
 4673 017a 0A60     		str	r2, [r1]
 4674 017c 2385     		strh	r3, [r4, #40]	@ movhi
 4675 017e 6385     		strh	r3, [r4, #42]	@ movhi
 4676 0180 2268     		ldr	r2, [r4]
 4677 0182 1368     		ldr	r3, [r2]
 4678 0184 23F00103 		bic	r3, r3, #1
 4679 0188 1360     		str	r3, [r2]
 4680 018a 0120     		movs	r0, #1
 4681 018c 0EE0     		b	.L538
 4682              	.L542:
 4683 018e 2023     		movs	r3, #32
 4684 0190 84F83D30 		strb	r3, [r4, #61]
 4685 0194 0022     		movs	r2, #0
 4686 0196 84F83E20 		strb	r2, [r4, #62]
 4687 019a 236C     		ldr	r3, [r4, #64]
 4688 019c 43F04003 		orr	r3, r3, #64
 4689 01a0 2364     		str	r3, [r4, #64]
 4690 01a2 84F83C20 		strb	r2, [r4, #60]
 4691 01a6 0120     		movs	r0, #1
 4692 01a8 00E0     		b	.L538
 4693              	.L547:
 4694 01aa 0220     		movs	r0, #2
 4695              	.L538:
 4696 01ac 04B0     		add	sp, sp, #16
ARM GAS  /var/folders/kf/d797ysj14bb1pb7szkr3jbx80000gn/T//ccIy82lf.s 			page 82


 4697              		@ sp needed
 4698 01ae BDE8F081 		pop	{r4, r5, r6, r7, r8, pc}
 4699              	.L548:
 4700 01b2 0220     		movs	r0, #2
 4701 01b4 FAE7     		b	.L538
 4702              	.L555:
 4703 01b6 00BF     		.align	2
 4704              	.L554:
 4705 01b8 00000000 		.word	SystemCoreClock
 4706 01bc 89B5F814 		.word	351843721
 4707 01c0 0000FFFF 		.word	-65536
 4708 01c4 00000000 		.word	I2C_DMAXferCplt
 4709 01c8 00000000 		.word	I2C_DMAError
 4711              		.section	.text.HAL_I2C_Mem_Read_DMA,"ax",%progbits
 4712              		.align	1
 4713              		.global	HAL_I2C_Mem_Read_DMA
 4714              		.syntax unified
 4715              		.thumb
 4716              		.thumb_func
 4718              	HAL_I2C_Mem_Read_DMA:
 4719              		@ args = 8, pretend = 0, frame = 16
 4720              		@ frame_needed = 0, uses_anonymous_args = 0
 4721 0000 2DE9F041 		push	{r4, r5, r6, r7, r8, lr}
 4722 0004 86B0     		sub	sp, sp, #24
 4723 0006 0446     		mov	r4, r0
 4724 0008 0D46     		mov	r5, r1
 4725 000a 1646     		mov	r6, r2
 4726 000c 1F46     		mov	r7, r3
 4727 000e FFF7FEFF 		bl	HAL_GetTick
 4728 0012 0023     		movs	r3, #0
 4729 0014 0593     		str	r3, [sp, #20]
 4730 0016 94F83D30 		ldrb	r3, [r4, #61]	@ zero_extendqisi2
 4731 001a 202B     		cmp	r3, #32
 4732 001c 40F0E480 		bne	.L569
 4733 0020 8046     		mov	r8, r0
 4734 0022 754B     		ldr	r3, .L578
 4735 0024 1B68     		ldr	r3, [r3]
 4736 0026 DB08     		lsrs	r3, r3, #3
 4737 0028 744A     		ldr	r2, .L578+4
 4738 002a A2FB0323 		umull	r2, r3, r2, r3
 4739 002e 1B0A     		lsrs	r3, r3, #8
 4740 0030 03EB8303 		add	r3, r3, r3, lsl #2
 4741 0034 03EB8303 		add	r3, r3, r3, lsl #2
 4742 0038 0593     		str	r3, [sp, #20]
 4743              	.L559:
 4744 003a 059B     		ldr	r3, [sp, #20]
 4745 003c 013B     		subs	r3, r3, #1
 4746 003e 0593     		str	r3, [sp, #20]
 4747 0040 0598     		ldr	r0, [sp, #20]
 4748 0042 0028     		cmp	r0, #0
 4749 0044 59D0     		beq	.L574
 4750 0046 2368     		ldr	r3, [r4]
 4751 0048 9A69     		ldr	r2, [r3, #24]
 4752 004a 12F0020F 		tst	r2, #2
 4753 004e F4D1     		bne	.L559
 4754 0050 94F83C20 		ldrb	r2, [r4, #60]	@ zero_extendqisi2
 4755 0054 012A     		cmp	r2, #1
ARM GAS  /var/folders/kf/d797ysj14bb1pb7szkr3jbx80000gn/T//ccIy82lf.s 			page 83


 4756 0056 00F0CB80 		beq	.L570
 4757 005a 0122     		movs	r2, #1
 4758 005c 84F83C20 		strb	r2, [r4, #60]
 4759 0060 1A68     		ldr	r2, [r3]
 4760 0062 12F0010F 		tst	r2, #1
 4761 0066 03D1     		bne	.L560
 4762 0068 1A68     		ldr	r2, [r3]
 4763 006a 42F00102 		orr	r2, r2, #1
 4764 006e 1A60     		str	r2, [r3]
 4765              	.L560:
 4766 0070 2268     		ldr	r2, [r4]
 4767 0072 1368     		ldr	r3, [r2]
 4768 0074 23F40063 		bic	r3, r3, #2048
 4769 0078 1360     		str	r3, [r2]
 4770 007a 2223     		movs	r3, #34
 4771 007c 84F83D30 		strb	r3, [r4, #61]
 4772 0080 4023     		movs	r3, #64
 4773 0082 84F83E30 		strb	r3, [r4, #62]
 4774 0086 0022     		movs	r2, #0
 4775 0088 2264     		str	r2, [r4, #64]
 4776 008a 0C9B     		ldr	r3, [sp, #48]
 4777 008c 6362     		str	r3, [r4, #36]
 4778 008e BDF83430 		ldrh	r3, [sp, #52]
 4779 0092 6385     		strh	r3, [r4, #42]	@ movhi
 4780 0094 638D     		ldrh	r3, [r4, #42]
 4781 0096 9BB2     		uxth	r3, r3
 4782 0098 2385     		strh	r3, [r4, #40]	@ movhi
 4783 009a 5949     		ldr	r1, .L578+8
 4784 009c E162     		str	r1, [r4, #44]
 4785 009e 6564     		str	r5, [r4, #68]
 4786 00a0 A664     		str	r6, [r4, #72]
 4787 00a2 E764     		str	r7, [r4, #76]
 4788 00a4 2265     		str	r2, [r4, #80]
 4789 00a6 002B     		cmp	r3, #0
 4790 00a8 00F08180 		beq	.L561
 4791 00ac A36B     		ldr	r3, [r4, #56]
 4792 00ae 002B     		cmp	r3, #0
 4793 00b0 2ED0     		beq	.L562
 4794 00b2 544A     		ldr	r2, .L578+12
 4795 00b4 DA63     		str	r2, [r3, #60]
 4796 00b6 A36B     		ldr	r3, [r4, #56]
 4797 00b8 534A     		ldr	r2, .L578+16
 4798 00ba DA64     		str	r2, [r3, #76]
 4799 00bc A26B     		ldr	r2, [r4, #56]
 4800 00be 0023     		movs	r3, #0
 4801 00c0 1364     		str	r3, [r2, #64]
 4802 00c2 A26B     		ldr	r2, [r4, #56]
 4803 00c4 5364     		str	r3, [r2, #68]
 4804 00c6 A26B     		ldr	r2, [r4, #56]
 4805 00c8 9364     		str	r3, [r2, #72]
 4806 00ca A26B     		ldr	r2, [r4, #56]
 4807 00cc 1365     		str	r3, [r2, #80]
 4808 00ce 2168     		ldr	r1, [r4]
 4809 00d0 238D     		ldrh	r3, [r4, #40]
 4810 00d2 626A     		ldr	r2, [r4, #36]
 4811 00d4 1031     		adds	r1, r1, #16
 4812 00d6 A06B     		ldr	r0, [r4, #56]
ARM GAS  /var/folders/kf/d797ysj14bb1pb7szkr3jbx80000gn/T//ccIy82lf.s 			page 84


 4813 00d8 FFF7FEFF 		bl	HAL_DMA_Start_IT
 4814 00dc 30B3     		cbz	r0, .L575
 4815 00de 2023     		movs	r3, #32
 4816 00e0 84F83D30 		strb	r3, [r4, #61]
 4817 00e4 0022     		movs	r2, #0
 4818 00e6 84F83E20 		strb	r2, [r4, #62]
 4819 00ea 236C     		ldr	r3, [r4, #64]
 4820 00ec 43F01003 		orr	r3, r3, #16
 4821 00f0 2364     		str	r3, [r4, #64]
 4822 00f2 84F83C20 		strb	r2, [r4, #60]
 4823 00f6 0120     		movs	r0, #1
 4824 00f8 77E0     		b	.L557
 4825              	.L574:
 4826 00fa 2063     		str	r0, [r4, #48]
 4827 00fc 2022     		movs	r2, #32
 4828 00fe 84F83D20 		strb	r2, [r4, #61]
 4829 0102 84F83E00 		strb	r0, [r4, #62]
 4830 0106 236C     		ldr	r3, [r4, #64]
 4831 0108 1343     		orrs	r3, r3, r2
 4832 010a 2364     		str	r3, [r4, #64]
 4833 010c 0220     		movs	r0, #2
 4834 010e 6CE0     		b	.L557
 4835              	.L562:
 4836 0110 2023     		movs	r3, #32
 4837 0112 84F83D30 		strb	r3, [r4, #61]
 4838 0116 0022     		movs	r2, #0
 4839 0118 84F83E20 		strb	r2, [r4, #62]
 4840 011c 236C     		ldr	r3, [r4, #64]
 4841 011e 43F08003 		orr	r3, r3, #128
 4842 0122 2364     		str	r3, [r4, #64]
 4843 0124 84F83C20 		strb	r2, [r4, #60]
 4844 0128 0120     		movs	r0, #1
 4845 012a 5EE0     		b	.L557
 4846              	.L575:
 4847 012c CDF80480 		str	r8, [sp, #4]
 4848 0130 2323     		movs	r3, #35
 4849 0132 0093     		str	r3, [sp]
 4850 0134 3B46     		mov	r3, r7
 4851 0136 3246     		mov	r2, r6
 4852 0138 2946     		mov	r1, r5
 4853 013a 2046     		mov	r0, r4
 4854 013c FFF7FEFF 		bl	I2C_RequestMemoryRead
 4855 0140 D8B9     		cbnz	r0, .L576
 4856 0142 238D     		ldrh	r3, [r4, #40]
 4857 0144 012B     		cmp	r3, #1
 4858 0146 2CD0     		beq	.L577
 4859 0148 2268     		ldr	r2, [r4]
 4860 014a 5368     		ldr	r3, [r2, #4]
 4861 014c 43F48053 		orr	r3, r3, #4096
 4862 0150 5360     		str	r3, [r2, #4]
 4863              	.L567:
 4864 0152 0022     		movs	r2, #0
 4865 0154 0392     		str	r2, [sp, #12]
 4866 0156 2368     		ldr	r3, [r4]
 4867 0158 5969     		ldr	r1, [r3, #20]
 4868 015a 0391     		str	r1, [sp, #12]
 4869 015c 9969     		ldr	r1, [r3, #24]
ARM GAS  /var/folders/kf/d797ysj14bb1pb7szkr3jbx80000gn/T//ccIy82lf.s 			page 85


 4870 015e 0391     		str	r1, [sp, #12]
 4871 0160 0399     		ldr	r1, [sp, #12]
 4872 0162 84F83C20 		strb	r2, [r4, #60]
 4873 0166 5A68     		ldr	r2, [r3, #4]
 4874 0168 42F48072 		orr	r2, r2, #256
 4875 016c 5A60     		str	r2, [r3, #4]
 4876 016e 2268     		ldr	r2, [r4]
 4877 0170 5368     		ldr	r3, [r2, #4]
 4878 0172 43F40063 		orr	r3, r3, #2048
 4879 0176 5360     		str	r3, [r2, #4]
 4880 0178 34E0     		b	.L568
 4881              	.L576:
 4882 017a A06B     		ldr	r0, [r4, #56]
 4883 017c FFF7FEFF 		bl	HAL_DMA_Abort_IT
 4884 0180 A26B     		ldr	r2, [r4, #56]
 4885 0182 0023     		movs	r3, #0
 4886 0184 D363     		str	r3, [r2, #60]
 4887 0186 2168     		ldr	r1, [r4]
 4888 0188 0A68     		ldr	r2, [r1]
 4889 018a 22F48062 		bic	r2, r2, #1024
 4890 018e 0A60     		str	r2, [r1]
 4891 0190 2385     		strh	r3, [r4, #40]	@ movhi
 4892 0192 6385     		strh	r3, [r4, #42]	@ movhi
 4893 0194 2268     		ldr	r2, [r4]
 4894 0196 1368     		ldr	r3, [r2]
 4895 0198 23F00103 		bic	r3, r3, #1
 4896 019c 1360     		str	r3, [r2]
 4897 019e 0120     		movs	r0, #1
 4898 01a0 23E0     		b	.L557
 4899              	.L577:
 4900 01a2 2268     		ldr	r2, [r4]
 4901 01a4 1368     		ldr	r3, [r2]
 4902 01a6 23F48063 		bic	r3, r3, #1024
 4903 01aa 1360     		str	r3, [r2]
 4904 01ac D1E7     		b	.L567
 4905              	.L561:
 4906 01ae CDF80480 		str	r8, [sp, #4]
 4907 01b2 2323     		movs	r3, #35
 4908 01b4 0093     		str	r3, [sp]
 4909 01b6 3B46     		mov	r3, r7
 4910 01b8 3246     		mov	r2, r6
 4911 01ba 2946     		mov	r1, r5
 4912 01bc 2046     		mov	r0, r4
 4913 01be FFF7FEFF 		bl	I2C_RequestMemoryRead
 4914 01c2 B8B9     		cbnz	r0, .L571
 4915 01c4 0490     		str	r0, [sp, #16]
 4916 01c6 2368     		ldr	r3, [r4]
 4917 01c8 5A69     		ldr	r2, [r3, #20]
 4918 01ca 0492     		str	r2, [sp, #16]
 4919 01cc 9A69     		ldr	r2, [r3, #24]
 4920 01ce 0492     		str	r2, [sp, #16]
 4921 01d0 049A     		ldr	r2, [sp, #16]
 4922 01d2 1A68     		ldr	r2, [r3]
 4923 01d4 42F40072 		orr	r2, r2, #512
 4924 01d8 1A60     		str	r2, [r3]
 4925 01da 2023     		movs	r3, #32
 4926 01dc 84F83D30 		strb	r3, [r4, #61]
ARM GAS  /var/folders/kf/d797ysj14bb1pb7szkr3jbx80000gn/T//ccIy82lf.s 			page 86


 4927 01e0 84F83C00 		strb	r0, [r4, #60]
 4928              	.L568:
 4929 01e4 0020     		movs	r0, #0
 4930 01e6 00E0     		b	.L557
 4931              	.L569:
 4932 01e8 0220     		movs	r0, #2
 4933              	.L557:
 4934 01ea 06B0     		add	sp, sp, #24
 4935              		@ sp needed
 4936 01ec BDE8F081 		pop	{r4, r5, r6, r7, r8, pc}
 4937              	.L570:
 4938 01f0 0220     		movs	r0, #2
 4939 01f2 FAE7     		b	.L557
 4940              	.L571:
 4941 01f4 0120     		movs	r0, #1
 4942 01f6 F8E7     		b	.L557
 4943              	.L579:
 4944              		.align	2
 4945              	.L578:
 4946 01f8 00000000 		.word	SystemCoreClock
 4947 01fc 89B5F814 		.word	351843721
 4948 0200 0000FFFF 		.word	-65536
 4949 0204 00000000 		.word	I2C_DMAXferCplt
 4950 0208 00000000 		.word	I2C_DMAError
 4952              		.section	.text.HAL_I2C_IsDeviceReady,"ax",%progbits
 4953              		.align	1
 4954              		.global	HAL_I2C_IsDeviceReady
 4955              		.syntax unified
 4956              		.thumb
 4957              		.thumb_func
 4959              	HAL_I2C_IsDeviceReady:
 4960              		@ args = 0, pretend = 0, frame = 8
 4961              		@ frame_needed = 0, uses_anonymous_args = 0
 4962 0000 2DE9F043 		push	{r4, r5, r6, r7, r8, r9, lr}
 4963 0004 85B0     		sub	sp, sp, #20
 4964 0006 0446     		mov	r4, r0
 4965 0008 8846     		mov	r8, r1
 4966 000a 9146     		mov	r9, r2
 4967 000c 1D46     		mov	r5, r3
 4968 000e FFF7FEFF 		bl	HAL_GetTick
 4969 0012 94F83D30 		ldrb	r3, [r4, #61]	@ zero_extendqisi2
 4970 0016 202B     		cmp	r3, #32
 4971 0018 03D0     		beq	.L598
 4972 001a 0220     		movs	r0, #2
 4973              	.L581:
 4974 001c 05B0     		add	sp, sp, #20
 4975              		@ sp needed
 4976 001e BDE8F083 		pop	{r4, r5, r6, r7, r8, r9, pc}
 4977              	.L598:
 4978 0022 0646     		mov	r6, r0
 4979 0024 0090     		str	r0, [sp]
 4980 0026 1923     		movs	r3, #25
 4981 0028 0122     		movs	r2, #1
 4982 002a 5549     		ldr	r1, .L602
 4983 002c 2046     		mov	r0, r4
 4984 002e FFF7FEFF 		bl	I2C_WaitOnFlagUntilTimeout
 4985 0032 0028     		cmp	r0, #0
ARM GAS  /var/folders/kf/d797ysj14bb1pb7szkr3jbx80000gn/T//ccIy82lf.s 			page 87


 4986 0034 40F09C80 		bne	.L593
 4987 0038 94F83C30 		ldrb	r3, [r4, #60]	@ zero_extendqisi2
 4988 003c 012B     		cmp	r3, #1
 4989 003e 00F09980 		beq	.L594
 4990 0042 0123     		movs	r3, #1
 4991 0044 84F83C30 		strb	r3, [r4, #60]
 4992 0048 2368     		ldr	r3, [r4]
 4993 004a 1A68     		ldr	r2, [r3]
 4994 004c 12F0010F 		tst	r2, #1
 4995 0050 03D1     		bne	.L582
 4996 0052 1A68     		ldr	r2, [r3]
 4997 0054 42F00102 		orr	r2, r2, #1
 4998 0058 1A60     		str	r2, [r3]
 4999              	.L582:
 5000 005a 2268     		ldr	r2, [r4]
 5001 005c 1368     		ldr	r3, [r2]
 5002 005e 23F40063 		bic	r3, r3, #2048
 5003 0062 1360     		str	r3, [r2]
 5004 0064 2423     		movs	r3, #36
 5005 0066 84F83D30 		strb	r3, [r4, #61]
 5006 006a 0027     		movs	r7, #0
 5007 006c 2764     		str	r7, [r4, #64]
 5008 006e 454B     		ldr	r3, .L602+4
 5009 0070 E362     		str	r3, [r4, #44]
 5010 0072 3DE0     		b	.L591
 5011              	.L601:
 5012 0074 2368     		ldr	r3, [r4]
 5013 0076 1B68     		ldr	r3, [r3]
 5014 0078 13F4807F 		tst	r3, #256
 5015 007c 02D0     		beq	.L584
 5016 007e 4FF40073 		mov	r3, #512
 5017 0082 2364     		str	r3, [r4, #64]
 5018              	.L584:
 5019 0084 0320     		movs	r0, #3
 5020 0086 C9E7     		b	.L581
 5021              	.L586:
 5022 0088 A023     		movs	r3, #160
 5023 008a 84F83D30 		strb	r3, [r4, #61]
 5024              	.L587:
 5025 008e 2268     		ldr	r2, [r4]
 5026 0090 5369     		ldr	r3, [r2, #20]
 5027 0092 C3F34003 		ubfx	r3, r3, #1, #1
 5028 0096 5269     		ldr	r2, [r2, #20]
 5029 0098 C2F38022 		ubfx	r2, r2, #10, #1
 5030              	.L585:
 5031 009c 94F83D10 		ldrb	r1, [r4, #61]	@ zero_extendqisi2
 5032 00a0 A029     		cmp	r1, #160
 5033 00a2 09D0     		beq	.L588
 5034 00a4 43B9     		cbnz	r3, .L588
 5035 00a6 3AB9     		cbnz	r2, .L588
 5036 00a8 FFF7FEFF 		bl	HAL_GetTick
 5037 00ac 801B     		subs	r0, r0, r6
 5038 00ae A842     		cmp	r0, r5
 5039 00b0 EAD8     		bhi	.L586
 5040 00b2 002D     		cmp	r5, #0
 5041 00b4 EBD1     		bne	.L587
 5042 00b6 E7E7     		b	.L586
ARM GAS  /var/folders/kf/d797ysj14bb1pb7szkr3jbx80000gn/T//ccIy82lf.s 			page 88


 5043              	.L588:
 5044 00b8 2023     		movs	r3, #32
 5045 00ba 84F83D30 		strb	r3, [r4, #61]
 5046 00be 2368     		ldr	r3, [r4]
 5047 00c0 5A69     		ldr	r2, [r3, #20]
 5048 00c2 12F0020F 		tst	r2, #2
 5049 00c6 31D1     		bne	.L599
 5050 00c8 1A68     		ldr	r2, [r3]
 5051 00ca 42F40072 		orr	r2, r2, #512
 5052 00ce 1A60     		str	r2, [r3]
 5053 00d0 2368     		ldr	r3, [r4]
 5054 00d2 6FF48062 		mvn	r2, #1024
 5055 00d6 5A61     		str	r2, [r3, #20]
 5056 00d8 0096     		str	r6, [sp]
 5057 00da 1923     		movs	r3, #25
 5058 00dc 0122     		movs	r2, #1
 5059 00de 2849     		ldr	r1, .L602
 5060 00e0 2046     		mov	r0, r4
 5061 00e2 FFF7FEFF 		bl	I2C_WaitOnFlagUntilTimeout
 5062 00e6 0028     		cmp	r0, #0
 5063 00e8 48D1     		bne	.L596
 5064 00ea 0137     		adds	r7, r7, #1
 5065 00ec 4F45     		cmp	r7, r9
 5066 00ee 38D2     		bcs	.L600
 5067              	.L591:
 5068 00f0 2268     		ldr	r2, [r4]
 5069 00f2 1368     		ldr	r3, [r2]
 5070 00f4 43F48073 		orr	r3, r3, #256
 5071 00f8 1360     		str	r3, [r2]
 5072 00fa 0096     		str	r6, [sp]
 5073 00fc 2B46     		mov	r3, r5
 5074 00fe 0022     		movs	r2, #0
 5075 0100 4FF00111 		mov	r1, #65537
 5076 0104 2046     		mov	r0, r4
 5077 0106 FFF7FEFF 		bl	I2C_WaitOnFlagUntilTimeout
 5078 010a 0028     		cmp	r0, #0
 5079 010c B2D1     		bne	.L601
 5080 010e 2368     		ldr	r3, [r4]
 5081 0110 08F0FE02 		and	r2, r8, #254
 5082 0114 1A61     		str	r2, [r3, #16]
 5083 0116 FFF7FEFF 		bl	HAL_GetTick
 5084 011a 0646     		mov	r6, r0
 5085 011c 2268     		ldr	r2, [r4]
 5086 011e 5369     		ldr	r3, [r2, #20]
 5087 0120 C3F34003 		ubfx	r3, r3, #1, #1
 5088 0124 5269     		ldr	r2, [r2, #20]
 5089 0126 C2F38022 		ubfx	r2, r2, #10, #1
 5090 012a B7E7     		b	.L585
 5091              	.L599:
 5092 012c 1A68     		ldr	r2, [r3]
 5093 012e 42F40072 		orr	r2, r2, #512
 5094 0132 1A60     		str	r2, [r3]
 5095 0134 0023     		movs	r3, #0
 5096 0136 0393     		str	r3, [sp, #12]
 5097 0138 2368     		ldr	r3, [r4]
 5098 013a 5A69     		ldr	r2, [r3, #20]
 5099 013c 0392     		str	r2, [sp, #12]
ARM GAS  /var/folders/kf/d797ysj14bb1pb7szkr3jbx80000gn/T//ccIy82lf.s 			page 89


 5100 013e 9B69     		ldr	r3, [r3, #24]
 5101 0140 0393     		str	r3, [sp, #12]
 5102 0142 039B     		ldr	r3, [sp, #12]
 5103 0144 0096     		str	r6, [sp]
 5104 0146 1923     		movs	r3, #25
 5105 0148 0122     		movs	r2, #1
 5106 014a 0D49     		ldr	r1, .L602
 5107 014c 2046     		mov	r0, r4
 5108 014e FFF7FEFF 		bl	I2C_WaitOnFlagUntilTimeout
 5109 0152 88B9     		cbnz	r0, .L595
 5110 0154 2023     		movs	r3, #32
 5111 0156 84F83D30 		strb	r3, [r4, #61]
 5112 015a 0023     		movs	r3, #0
 5113 015c 84F83C30 		strb	r3, [r4, #60]
 5114 0160 5CE7     		b	.L581
 5115              	.L600:
 5116 0162 2023     		movs	r3, #32
 5117 0164 84F83D30 		strb	r3, [r4, #61]
 5118 0168 84F83C00 		strb	r0, [r4, #60]
 5119 016c 0120     		movs	r0, #1
 5120 016e 55E7     		b	.L581
 5121              	.L593:
 5122 0170 0220     		movs	r0, #2
 5123 0172 53E7     		b	.L581
 5124              	.L594:
 5125 0174 0220     		movs	r0, #2
 5126 0176 51E7     		b	.L581
 5127              	.L595:
 5128 0178 0120     		movs	r0, #1
 5129 017a 4FE7     		b	.L581
 5130              	.L596:
 5131 017c 0120     		movs	r0, #1
 5132 017e 4DE7     		b	.L581
 5133              	.L603:
 5134              		.align	2
 5135              	.L602:
 5136 0180 02001000 		.word	1048578
 5137 0184 0000FFFF 		.word	-65536
 5139              		.section	.text.HAL_I2C_Master_Seq_Transmit_IT,"ax",%progbits
 5140              		.align	1
 5141              		.global	HAL_I2C_Master_Seq_Transmit_IT
 5142              		.syntax unified
 5143              		.thumb
 5144              		.thumb_func
 5146              	HAL_I2C_Master_Seq_Transmit_IT:
 5147              		@ args = 4, pretend = 0, frame = 8
 5148              		@ frame_needed = 0, uses_anonymous_args = 0
 5149 0000 10B5     		push	{r4, lr}
 5150 0002 82B0     		sub	sp, sp, #8
 5151 0004 9E46     		mov	lr, r3
 5152 0006 0023     		movs	r3, #0
 5153 0008 0193     		str	r3, [sp, #4]
 5154 000a 0093     		str	r3, [sp]
 5155 000c 90F83D30 		ldrb	r3, [r0, #61]	@ zero_extendqisi2
 5156 0010 202B     		cmp	r3, #32
 5157 0012 6DD1     		bne	.L613
 5158 0014 1446     		mov	r4, r2
ARM GAS  /var/folders/kf/d797ysj14bb1pb7szkr3jbx80000gn/T//ccIy82lf.s 			page 90


 5159 0016 0268     		ldr	r2, [r0]
 5160 0018 1368     		ldr	r3, [r2]
 5161 001a 13F4007F 		tst	r3, #512
 5162 001e 04D1     		bne	.L606
 5163 0020 049B     		ldr	r3, [sp, #16]
 5164 0022 082B     		cmp	r3, #8
 5165 0024 01D0     		beq	.L606
 5166 0026 012B     		cmp	r3, #1
 5167 0028 17D1     		bne	.L607
 5168              	.L606:
 5169 002a 344B     		ldr	r3, .L618
 5170 002c 1B68     		ldr	r3, [r3]
 5171 002e 4FEAD30C 		lsr	ip, r3, #3
 5172 0032 334B     		ldr	r3, .L618+4
 5173 0034 A3FB0C3C 		umull	r3, ip, r3, ip
 5174 0038 4FEA1C2C 		lsr	ip, ip, #8
 5175 003c 0CEB8C0C 		add	ip, ip, ip, lsl #2
 5176 0040 0CEB8C03 		add	r3, ip, ip, lsl #2
 5177 0044 0093     		str	r3, [sp]
 5178              	.L609:
 5179 0046 009B     		ldr	r3, [sp]
 5180 0048 013B     		subs	r3, r3, #1
 5181 004a 0093     		str	r3, [sp]
 5182 004c 009B     		ldr	r3, [sp]
 5183 004e 002B     		cmp	r3, #0
 5184 0050 3BD0     		beq	.L616
 5185 0052 9369     		ldr	r3, [r2, #24]
 5186 0054 13F0020F 		tst	r3, #2
 5187 0058 F5D1     		bne	.L609
 5188              	.L607:
 5189 005a 90F83C30 		ldrb	r3, [r0, #60]	@ zero_extendqisi2
 5190 005e 012B     		cmp	r3, #1
 5191 0060 49D0     		beq	.L614
 5192 0062 0123     		movs	r3, #1
 5193 0064 80F83C30 		strb	r3, [r0, #60]
 5194 0068 1368     		ldr	r3, [r2]
 5195 006a 13F0010F 		tst	r3, #1
 5196 006e 03D1     		bne	.L610
 5197 0070 1368     		ldr	r3, [r2]
 5198 0072 43F00103 		orr	r3, r3, #1
 5199 0076 1360     		str	r3, [r2]
 5200              	.L610:
 5201 0078 0268     		ldr	r2, [r0]
 5202 007a 1368     		ldr	r3, [r2]
 5203 007c 23F40063 		bic	r3, r3, #2048
 5204 0080 1360     		str	r3, [r2]
 5205 0082 2123     		movs	r3, #33
 5206 0084 80F83D30 		strb	r3, [r0, #61]
 5207 0088 1023     		movs	r3, #16
 5208 008a 80F83E30 		strb	r3, [r0, #62]
 5209 008e 0023     		movs	r3, #0
 5210 0090 0364     		str	r3, [r0, #64]
 5211 0092 4462     		str	r4, [r0, #36]
 5212 0094 A0F82AE0 		strh	lr, [r0, #42]	@ movhi
 5213 0098 438D     		ldrh	r3, [r0, #42]
 5214 009a 0385     		strh	r3, [r0, #40]	@ movhi
 5215 009c 049B     		ldr	r3, [sp, #16]
ARM GAS  /var/folders/kf/d797ysj14bb1pb7szkr3jbx80000gn/T//ccIy82lf.s 			page 91


 5216 009e C362     		str	r3, [r0, #44]
 5217 00a0 4164     		str	r1, [r0, #68]
 5218 00a2 036B     		ldr	r3, [r0, #48]
 5219 00a4 0193     		str	r3, [sp, #4]
 5220 00a6 019B     		ldr	r3, [sp, #4]
 5221 00a8 112B     		cmp	r3, #17
 5222 00aa 19D0     		beq	.L617
 5223              	.L611:
 5224 00ac 0268     		ldr	r2, [r0]
 5225 00ae 1368     		ldr	r3, [r2]
 5226 00b0 43F48073 		orr	r3, r3, #256
 5227 00b4 1360     		str	r3, [r2]
 5228              	.L612:
 5229 00b6 0023     		movs	r3, #0
 5230 00b8 80F83C30 		strb	r3, [r0, #60]
 5231 00bc 0168     		ldr	r1, [r0]
 5232 00be 4A68     		ldr	r2, [r1, #4]
 5233 00c0 42F4E062 		orr	r2, r2, #1792
 5234 00c4 4A60     		str	r2, [r1, #4]
 5235 00c6 1846     		mov	r0, r3
 5236 00c8 13E0     		b	.L605
 5237              	.L616:
 5238 00ca 0363     		str	r3, [r0, #48]
 5239 00cc 2022     		movs	r2, #32
 5240 00ce 80F83D20 		strb	r2, [r0, #61]
 5241 00d2 80F83E30 		strb	r3, [r0, #62]
 5242 00d6 036C     		ldr	r3, [r0, #64]
 5243 00d8 1343     		orrs	r3, r3, r2
 5244 00da 0364     		str	r3, [r0, #64]
 5245 00dc 0220     		movs	r0, #2
 5246 00de 08E0     		b	.L605
 5247              	.L617:
 5248 00e0 049B     		ldr	r3, [sp, #16]
 5249 00e2 B3F52A0F 		cmp	r3, #11141120
 5250 00e6 E1D0     		beq	.L611
 5251 00e8 B3F12A4F 		cmp	r3, #-1442840576
 5252 00ec E3D1     		bne	.L612
 5253 00ee DDE7     		b	.L611
 5254              	.L613:
 5255 00f0 0220     		movs	r0, #2
 5256              	.L605:
 5257 00f2 02B0     		add	sp, sp, #8
 5258              		@ sp needed
 5259 00f4 10BD     		pop	{r4, pc}
 5260              	.L614:
 5261 00f6 0220     		movs	r0, #2
 5262 00f8 FBE7     		b	.L605
 5263              	.L619:
 5264 00fa 00BF     		.align	2
 5265              	.L618:
 5266 00fc 00000000 		.word	SystemCoreClock
 5267 0100 89B5F814 		.word	351843721
 5269              		.section	.text.HAL_I2C_Master_Seq_Transmit_DMA,"ax",%progbits
 5270              		.align	1
 5271              		.global	HAL_I2C_Master_Seq_Transmit_DMA
 5272              		.syntax unified
 5273              		.thumb
ARM GAS  /var/folders/kf/d797ysj14bb1pb7szkr3jbx80000gn/T//ccIy82lf.s 			page 92


 5274              		.thumb_func
 5276              	HAL_I2C_Master_Seq_Transmit_DMA:
 5277              		@ args = 4, pretend = 0, frame = 8
 5278              		@ frame_needed = 0, uses_anonymous_args = 0
 5279 0000 10B5     		push	{r4, lr}
 5280 0002 82B0     		sub	sp, sp, #8
 5281 0004 9E46     		mov	lr, r3
 5282 0006 0023     		movs	r3, #0
 5283 0008 0193     		str	r3, [sp, #4]
 5284 000a 0093     		str	r3, [sp]
 5285 000c 90F83D30 		ldrb	r3, [r0, #61]	@ zero_extendqisi2
 5286 0010 202B     		cmp	r3, #32
 5287 0012 40F0D180 		bne	.L638
 5288 0016 0446     		mov	r4, r0
 5289 0018 9446     		mov	ip, r2
 5290 001a 0268     		ldr	r2, [r0]
 5291 001c 1368     		ldr	r3, [r2]
 5292 001e 13F4007F 		tst	r3, #512
 5293 0022 04D1     		bne	.L622
 5294 0024 049B     		ldr	r3, [sp, #16]
 5295 0026 082B     		cmp	r3, #8
 5296 0028 01D0     		beq	.L622
 5297 002a 012B     		cmp	r3, #1
 5298 002c 15D1     		bne	.L623
 5299              	.L622:
 5300 002e 654B     		ldr	r3, .L645
 5301 0030 1868     		ldr	r0, [r3]
 5302 0032 C008     		lsrs	r0, r0, #3
 5303 0034 644B     		ldr	r3, .L645+4
 5304 0036 A3FB0030 		umull	r3, r0, r3, r0
 5305 003a 000A     		lsrs	r0, r0, #8
 5306 003c 00EB8000 		add	r0, r0, r0, lsl #2
 5307 0040 00EB8000 		add	r0, r0, r0, lsl #2
 5308 0044 0090     		str	r0, [sp]
 5309              	.L625:
 5310 0046 009B     		ldr	r3, [sp]
 5311 0048 013B     		subs	r3, r3, #1
 5312 004a 0093     		str	r3, [sp]
 5313 004c 0098     		ldr	r0, [sp]
 5314 004e 0028     		cmp	r0, #0
 5315 0050 50D0     		beq	.L642
 5316 0052 9069     		ldr	r0, [r2, #24]
 5317 0054 10F0020F 		tst	r0, #2
 5318 0058 F5D1     		bne	.L625
 5319              	.L623:
 5320 005a 94F83C30 		ldrb	r3, [r4, #60]	@ zero_extendqisi2
 5321 005e 012B     		cmp	r3, #1
 5322 0060 00F0AD80 		beq	.L639
 5323 0064 0123     		movs	r3, #1
 5324 0066 84F83C30 		strb	r3, [r4, #60]
 5325 006a 1368     		ldr	r3, [r2]
 5326 006c 13F0010F 		tst	r3, #1
 5327 0070 03D1     		bne	.L626
 5328 0072 1368     		ldr	r3, [r2]
 5329 0074 43F00103 		orr	r3, r3, #1
 5330 0078 1360     		str	r3, [r2]
 5331              	.L626:
ARM GAS  /var/folders/kf/d797ysj14bb1pb7szkr3jbx80000gn/T//ccIy82lf.s 			page 93


 5332 007a 2268     		ldr	r2, [r4]
 5333 007c 1368     		ldr	r3, [r2]
 5334 007e 23F40063 		bic	r3, r3, #2048
 5335 0082 1360     		str	r3, [r2]
 5336 0084 2123     		movs	r3, #33
 5337 0086 84F83D30 		strb	r3, [r4, #61]
 5338 008a 1023     		movs	r3, #16
 5339 008c 84F83E30 		strb	r3, [r4, #62]
 5340 0090 0023     		movs	r3, #0
 5341 0092 2364     		str	r3, [r4, #64]
 5342 0094 C4F824C0 		str	ip, [r4, #36]
 5343 0098 A4F82AE0 		strh	lr, [r4, #42]	@ movhi
 5344 009c 638D     		ldrh	r3, [r4, #42]
 5345 009e 9BB2     		uxth	r3, r3
 5346 00a0 2385     		strh	r3, [r4, #40]	@ movhi
 5347 00a2 049A     		ldr	r2, [sp, #16]
 5348 00a4 E262     		str	r2, [r4, #44]
 5349 00a6 6164     		str	r1, [r4, #68]
 5350 00a8 226B     		ldr	r2, [r4, #48]
 5351 00aa 0192     		str	r2, [sp, #4]
 5352 00ac 002B     		cmp	r3, #0
 5353 00ae 64D0     		beq	.L627
 5354 00b0 636B     		ldr	r3, [r4, #52]
 5355 00b2 53B3     		cbz	r3, .L628
 5356 00b4 454A     		ldr	r2, .L645+8
 5357 00b6 DA63     		str	r2, [r3, #60]
 5358 00b8 636B     		ldr	r3, [r4, #52]
 5359 00ba 454A     		ldr	r2, .L645+12
 5360 00bc DA64     		str	r2, [r3, #76]
 5361 00be 626B     		ldr	r2, [r4, #52]
 5362 00c0 0023     		movs	r3, #0
 5363 00c2 1364     		str	r3, [r2, #64]
 5364 00c4 626B     		ldr	r2, [r4, #52]
 5365 00c6 1365     		str	r3, [r2, #80]
 5366 00c8 2268     		ldr	r2, [r4]
 5367 00ca 238D     		ldrh	r3, [r4, #40]
 5368 00cc 1032     		adds	r2, r2, #16
 5369 00ce 616A     		ldr	r1, [r4, #36]
 5370 00d0 606B     		ldr	r0, [r4, #52]
 5371 00d2 FFF7FEFF 		bl	HAL_DMA_Start_IT
 5372 00d6 30B3     		cbz	r0, .L629
 5373 00d8 2023     		movs	r3, #32
 5374 00da 84F83D30 		strb	r3, [r4, #61]
 5375 00de 0022     		movs	r2, #0
 5376 00e0 84F83E20 		strb	r2, [r4, #62]
 5377 00e4 236C     		ldr	r3, [r4, #64]
 5378 00e6 43F01003 		orr	r3, r3, #16
 5379 00ea 2364     		str	r3, [r4, #64]
 5380 00ec 84F83C20 		strb	r2, [r4, #60]
 5381 00f0 0120     		movs	r0, #1
 5382 00f2 62E0     		b	.L621
 5383              	.L642:
 5384 00f4 2063     		str	r0, [r4, #48]
 5385 00f6 2022     		movs	r2, #32
 5386 00f8 84F83D20 		strb	r2, [r4, #61]
 5387 00fc 84F83E00 		strb	r0, [r4, #62]
 5388 0100 236C     		ldr	r3, [r4, #64]
ARM GAS  /var/folders/kf/d797ysj14bb1pb7szkr3jbx80000gn/T//ccIy82lf.s 			page 94


 5389 0102 1343     		orrs	r3, r3, r2
 5390 0104 2364     		str	r3, [r4, #64]
 5391 0106 0220     		movs	r0, #2
 5392 0108 57E0     		b	.L621
 5393              	.L628:
 5394 010a 2023     		movs	r3, #32
 5395 010c 84F83D30 		strb	r3, [r4, #61]
 5396 0110 0022     		movs	r2, #0
 5397 0112 84F83E20 		strb	r2, [r4, #62]
 5398 0116 236C     		ldr	r3, [r4, #64]
 5399 0118 43F08003 		orr	r3, r3, #128
 5400 011c 2364     		str	r3, [r4, #64]
 5401 011e 84F83C20 		strb	r2, [r4, #60]
 5402 0122 0120     		movs	r0, #1
 5403 0124 49E0     		b	.L621
 5404              	.L629:
 5405 0126 2268     		ldr	r2, [r4]
 5406 0128 1368     		ldr	r3, [r2]
 5407 012a 43F48063 		orr	r3, r3, #1024
 5408 012e 1360     		str	r3, [r2]
 5409 0130 019B     		ldr	r3, [sp, #4]
 5410 0132 112B     		cmp	r3, #17
 5411 0134 19D0     		beq	.L643
 5412              	.L631:
 5413 0136 2268     		ldr	r2, [r4]
 5414 0138 1368     		ldr	r3, [r2]
 5415 013a 43F48073 		orr	r3, r3, #256
 5416 013e 1360     		str	r3, [r2]
 5417              	.L632:
 5418 0140 0023     		movs	r3, #0
 5419 0142 84F83C30 		strb	r3, [r4, #60]
 5420 0146 049B     		ldr	r3, [sp, #16]
 5421 0148 042B     		cmp	r3, #4
 5422 014a 03D0     		beq	.L633
 5423 014c 202B     		cmp	r3, #32
 5424 014e 01D0     		beq	.L633
 5425 0150 102B     		cmp	r3, #16
 5426 0152 04D1     		bne	.L634
 5427              	.L633:
 5428 0154 2268     		ldr	r2, [r4]
 5429 0156 5368     		ldr	r3, [r2, #4]
 5430 0158 43F40063 		orr	r3, r3, #2048
 5431 015c 5360     		str	r3, [r2, #4]
 5432              	.L634:
 5433 015e 2268     		ldr	r2, [r4]
 5434 0160 5368     		ldr	r3, [r2, #4]
 5435 0162 43F44073 		orr	r3, r3, #768
 5436 0166 5360     		str	r3, [r2, #4]
 5437 0168 1CE0     		b	.L635
 5438              	.L643:
 5439 016a 049B     		ldr	r3, [sp, #16]
 5440 016c B3F52A0F 		cmp	r3, #11141120
 5441 0170 E1D0     		beq	.L631
 5442 0172 B3F12A4F 		cmp	r3, #-1442840576
 5443 0176 E3D1     		bne	.L632
 5444 0178 DDE7     		b	.L631
 5445              	.L627:
ARM GAS  /var/folders/kf/d797ysj14bb1pb7szkr3jbx80000gn/T//ccIy82lf.s 			page 95


 5446 017a 2268     		ldr	r2, [r4]
 5447 017c 1368     		ldr	r3, [r2]
 5448 017e 43F48063 		orr	r3, r3, #1024
 5449 0182 1360     		str	r3, [r2]
 5450 0184 019B     		ldr	r3, [sp, #4]
 5451 0186 112B     		cmp	r3, #17
 5452 0188 0ED0     		beq	.L644
 5453              	.L636:
 5454 018a 2268     		ldr	r2, [r4]
 5455 018c 1368     		ldr	r3, [r2]
 5456 018e 43F48073 		orr	r3, r3, #256
 5457 0192 1360     		str	r3, [r2]
 5458              	.L637:
 5459 0194 0023     		movs	r3, #0
 5460 0196 84F83C30 		strb	r3, [r4, #60]
 5461 019a 2268     		ldr	r2, [r4]
 5462 019c 5368     		ldr	r3, [r2, #4]
 5463 019e 43F4E063 		orr	r3, r3, #1792
 5464 01a2 5360     		str	r3, [r2, #4]
 5465              	.L635:
 5466 01a4 0020     		movs	r0, #0
 5467 01a6 08E0     		b	.L621
 5468              	.L644:
 5469 01a8 049B     		ldr	r3, [sp, #16]
 5470 01aa B3F52A0F 		cmp	r3, #11141120
 5471 01ae ECD0     		beq	.L636
 5472 01b0 B3F12A4F 		cmp	r3, #-1442840576
 5473 01b4 EED1     		bne	.L637
 5474 01b6 E8E7     		b	.L636
 5475              	.L638:
 5476 01b8 0220     		movs	r0, #2
 5477              	.L621:
 5478 01ba 02B0     		add	sp, sp, #8
 5479              		@ sp needed
 5480 01bc 10BD     		pop	{r4, pc}
 5481              	.L639:
 5482 01be 0220     		movs	r0, #2
 5483 01c0 FBE7     		b	.L621
 5484              	.L646:
 5485 01c2 00BF     		.align	2
 5486              	.L645:
 5487 01c4 00000000 		.word	SystemCoreClock
 5488 01c8 89B5F814 		.word	351843721
 5489 01cc 00000000 		.word	I2C_DMAXferCplt
 5490 01d0 00000000 		.word	I2C_DMAError
 5492              		.section	.text.HAL_I2C_Master_Seq_Receive_IT,"ax",%progbits
 5493              		.align	1
 5494              		.global	HAL_I2C_Master_Seq_Receive_IT
 5495              		.syntax unified
 5496              		.thumb
 5497              		.thumb_func
 5499              	HAL_I2C_Master_Seq_Receive_IT:
 5500              		@ args = 4, pretend = 0, frame = 8
 5501              		@ frame_needed = 0, uses_anonymous_args = 0
 5502 0000 10B5     		push	{r4, lr}
 5503 0002 82B0     		sub	sp, sp, #8
 5504 0004 1C46     		mov	r4, r3
ARM GAS  /var/folders/kf/d797ysj14bb1pb7szkr3jbx80000gn/T//ccIy82lf.s 			page 96


 5505 0006 0023     		movs	r3, #0
 5506 0008 0193     		str	r3, [sp, #4]
 5507 000a 0093     		str	r3, [sp]
 5508 000c 90F83D30 		ldrb	r3, [r0, #61]	@ zero_extendqisi2
 5509 0010 202B     		cmp	r3, #32
 5510 0012 40F09680 		bne	.L660
 5511 0016 8E46     		mov	lr, r1
 5512 0018 0168     		ldr	r1, [r0]
 5513 001a 0B68     		ldr	r3, [r1]
 5514 001c 13F4007F 		tst	r3, #512
 5515 0020 04D1     		bne	.L649
 5516 0022 049B     		ldr	r3, [sp, #16]
 5517 0024 082B     		cmp	r3, #8
 5518 0026 01D0     		beq	.L649
 5519 0028 012B     		cmp	r3, #1
 5520 002a 17D1     		bne	.L650
 5521              	.L649:
 5522 002c 474B     		ldr	r3, .L667
 5523 002e 1B68     		ldr	r3, [r3]
 5524 0030 4FEAD30C 		lsr	ip, r3, #3
 5525 0034 464B     		ldr	r3, .L667+4
 5526 0036 A3FB0C3C 		umull	r3, ip, r3, ip
 5527 003a 4FEA1C2C 		lsr	ip, ip, #8
 5528 003e 0CEB8C0C 		add	ip, ip, ip, lsl #2
 5529 0042 0CEB8C03 		add	r3, ip, ip, lsl #2
 5530 0046 0093     		str	r3, [sp]
 5531              	.L652:
 5532 0048 009B     		ldr	r3, [sp]
 5533 004a 013B     		subs	r3, r3, #1
 5534 004c 0093     		str	r3, [sp]
 5535 004e 009B     		ldr	r3, [sp]
 5536 0050 002B     		cmp	r3, #0
 5537 0052 46D0     		beq	.L663
 5538 0054 8B69     		ldr	r3, [r1, #24]
 5539 0056 13F0020F 		tst	r3, #2
 5540 005a F5D1     		bne	.L652
 5541              	.L650:
 5542 005c 90F83C30 		ldrb	r3, [r0, #60]	@ zero_extendqisi2
 5543 0060 012B     		cmp	r3, #1
 5544 0062 71D0     		beq	.L661
 5545 0064 0123     		movs	r3, #1
 5546 0066 80F83C30 		strb	r3, [r0, #60]
 5547 006a 0B68     		ldr	r3, [r1]
 5548 006c 13F0010F 		tst	r3, #1
 5549 0070 03D1     		bne	.L653
 5550 0072 0B68     		ldr	r3, [r1]
 5551 0074 43F00103 		orr	r3, r3, #1
 5552 0078 0B60     		str	r3, [r1]
 5553              	.L653:
 5554 007a 0168     		ldr	r1, [r0]
 5555 007c 0B68     		ldr	r3, [r1]
 5556 007e 23F40063 		bic	r3, r3, #2048
 5557 0082 0B60     		str	r3, [r1]
 5558 0084 2223     		movs	r3, #34
 5559 0086 80F83D30 		strb	r3, [r0, #61]
 5560 008a 1023     		movs	r3, #16
 5561 008c 80F83E30 		strb	r3, [r0, #62]
ARM GAS  /var/folders/kf/d797ysj14bb1pb7szkr3jbx80000gn/T//ccIy82lf.s 			page 97


 5562 0090 0023     		movs	r3, #0
 5563 0092 0364     		str	r3, [r0, #64]
 5564 0094 4262     		str	r2, [r0, #36]
 5565 0096 4485     		strh	r4, [r0, #42]	@ movhi
 5566 0098 438D     		ldrh	r3, [r0, #42]
 5567 009a 0385     		strh	r3, [r0, #40]	@ movhi
 5568 009c 049B     		ldr	r3, [sp, #16]
 5569 009e C362     		str	r3, [r0, #44]
 5570 00a0 C0F844E0 		str	lr, [r0, #68]
 5571 00a4 036B     		ldr	r3, [r0, #48]
 5572 00a6 0193     		str	r3, [sp, #4]
 5573 00a8 438D     		ldrh	r3, [r0, #42]
 5574 00aa 9BB2     		uxth	r3, r3
 5575 00ac 022B     		cmp	r3, #2
 5576 00ae 23D0     		beq	.L664
 5577              	.L654:
 5578 00b0 0168     		ldr	r1, [r0]
 5579 00b2 0B68     		ldr	r3, [r1]
 5580 00b4 43F48063 		orr	r3, r3, #1024
 5581 00b8 0B60     		str	r3, [r1]
 5582 00ba 4FF4E06C 		mov	ip, #1792
 5583              	.L657:
 5584 00be 019B     		ldr	r3, [sp, #4]
 5585 00c0 122B     		cmp	r3, #18
 5586 00c2 36D0     		beq	.L665
 5587              	.L658:
 5588 00c4 0268     		ldr	r2, [r0]
 5589 00c6 1368     		ldr	r3, [r2]
 5590 00c8 43F48073 		orr	r3, r3, #256
 5591 00cc 1360     		str	r3, [r2]
 5592              	.L659:
 5593 00ce 0023     		movs	r3, #0
 5594 00d0 80F83C30 		strb	r3, [r0, #60]
 5595 00d4 0168     		ldr	r1, [r0]
 5596 00d6 4A68     		ldr	r2, [r1, #4]
 5597 00d8 42EA0C02 		orr	r2, r2, ip
 5598 00dc 4A60     		str	r2, [r1, #4]
 5599 00de 1846     		mov	r0, r3
 5600 00e0 30E0     		b	.L648
 5601              	.L663:
 5602 00e2 0363     		str	r3, [r0, #48]
 5603 00e4 2022     		movs	r2, #32
 5604 00e6 80F83D20 		strb	r2, [r0, #61]
 5605 00ea 80F83E30 		strb	r3, [r0, #62]
 5606 00ee 036C     		ldr	r3, [r0, #64]
 5607 00f0 1343     		orrs	r3, r3, r2
 5608 00f2 0364     		str	r3, [r0, #64]
 5609 00f4 0220     		movs	r0, #2
 5610 00f6 25E0     		b	.L648
 5611              	.L664:
 5612 00f8 049B     		ldr	r3, [sp, #16]
 5613 00fa 202B     		cmp	r3, #32
 5614 00fc 01D0     		beq	.L655
 5615 00fe 102B     		cmp	r3, #16
 5616 0100 D6D1     		bne	.L654
 5617              	.L655:
 5618 0102 019B     		ldr	r3, [sp, #4]
ARM GAS  /var/folders/kf/d797ysj14bb1pb7szkr3jbx80000gn/T//ccIy82lf.s 			page 98


 5619 0104 122B     		cmp	r3, #18
 5620 0106 07D0     		beq	.L666
 5621 0108 0168     		ldr	r1, [r0]
 5622 010a 0B68     		ldr	r3, [r1]
 5623 010c 43F48063 		orr	r3, r3, #1024
 5624 0110 0B60     		str	r3, [r1]
 5625 0112 4FF4E06C 		mov	ip, #1792
 5626 0116 D2E7     		b	.L657
 5627              	.L666:
 5628 0118 0168     		ldr	r1, [r0]
 5629 011a 0B68     		ldr	r3, [r1]
 5630 011c 23F48063 		bic	r3, r3, #1024
 5631 0120 0B60     		str	r3, [r1]
 5632 0122 0168     		ldr	r1, [r0]
 5633 0124 0B68     		ldr	r3, [r1]
 5634 0126 43F40063 		orr	r3, r3, #2048
 5635 012a 0B60     		str	r3, [r1]
 5636 012c 4FF4407C 		mov	ip, #768
 5637 0130 C5E7     		b	.L657
 5638              	.L665:
 5639 0132 049B     		ldr	r3, [sp, #16]
 5640 0134 B3F52A0F 		cmp	r3, #11141120
 5641 0138 C4D0     		beq	.L658
 5642 013a B3F12A4F 		cmp	r3, #-1442840576
 5643 013e C6D1     		bne	.L659
 5644 0140 C0E7     		b	.L658
 5645              	.L660:
 5646 0142 0220     		movs	r0, #2
 5647              	.L648:
 5648 0144 02B0     		add	sp, sp, #8
 5649              		@ sp needed
 5650 0146 10BD     		pop	{r4, pc}
 5651              	.L661:
 5652 0148 0220     		movs	r0, #2
 5653 014a FBE7     		b	.L648
 5654              	.L668:
 5655              		.align	2
 5656              	.L667:
 5657 014c 00000000 		.word	SystemCoreClock
 5658 0150 89B5F814 		.word	351843721
 5660              		.section	.text.HAL_I2C_Master_Seq_Receive_DMA,"ax",%progbits
 5661              		.align	1
 5662              		.global	HAL_I2C_Master_Seq_Receive_DMA
 5663              		.syntax unified
 5664              		.thumb
 5665              		.thumb_func
 5667              	HAL_I2C_Master_Seq_Receive_DMA:
 5668              		@ args = 4, pretend = 0, frame = 8
 5669              		@ frame_needed = 0, uses_anonymous_args = 0
 5670 0000 10B5     		push	{r4, lr}
 5671 0002 82B0     		sub	sp, sp, #8
 5672 0004 9E46     		mov	lr, r3
 5673 0006 0023     		movs	r3, #0
 5674 0008 0193     		str	r3, [sp, #4]
 5675 000a 0093     		str	r3, [sp]
 5676 000c 90F83D30 		ldrb	r3, [r0, #61]	@ zero_extendqisi2
 5677 0010 202B     		cmp	r3, #32
ARM GAS  /var/folders/kf/d797ysj14bb1pb7szkr3jbx80000gn/T//ccIy82lf.s 			page 99


 5678 0012 40F00B81 		bne	.L692
 5679 0016 0446     		mov	r4, r0
 5680 0018 9446     		mov	ip, r2
 5681 001a 0268     		ldr	r2, [r0]
 5682 001c 1368     		ldr	r3, [r2]
 5683 001e 13F4007F 		tst	r3, #512
 5684 0022 04D1     		bne	.L671
 5685 0024 049B     		ldr	r3, [sp, #16]
 5686 0026 082B     		cmp	r3, #8
 5687 0028 01D0     		beq	.L671
 5688 002a 012B     		cmp	r3, #1
 5689 002c 15D1     		bne	.L672
 5690              	.L671:
 5691 002e 824B     		ldr	r3, .L702
 5692 0030 1868     		ldr	r0, [r3]
 5693 0032 C008     		lsrs	r0, r0, #3
 5694 0034 814B     		ldr	r3, .L702+4
 5695 0036 A3FB0030 		umull	r3, r0, r3, r0
 5696 003a 000A     		lsrs	r0, r0, #8
 5697 003c 00EB8000 		add	r0, r0, r0, lsl #2
 5698 0040 00EB8000 		add	r0, r0, r0, lsl #2
 5699 0044 0090     		str	r0, [sp]
 5700              	.L674:
 5701 0046 009B     		ldr	r3, [sp]
 5702 0048 013B     		subs	r3, r3, #1
 5703 004a 0093     		str	r3, [sp]
 5704 004c 0098     		ldr	r0, [sp]
 5705 004e 0028     		cmp	r0, #0
 5706 0050 6ED0     		beq	.L697
 5707 0052 9069     		ldr	r0, [r2, #24]
 5708 0054 10F0020F 		tst	r0, #2
 5709 0058 F5D1     		bne	.L674
 5710              	.L672:
 5711 005a 94F83C30 		ldrb	r3, [r4, #60]	@ zero_extendqisi2
 5712 005e 012B     		cmp	r3, #1
 5713 0060 00F0E780 		beq	.L693
 5714 0064 0123     		movs	r3, #1
 5715 0066 84F83C30 		strb	r3, [r4, #60]
 5716 006a 1368     		ldr	r3, [r2]
 5717 006c 13F0010F 		tst	r3, #1
 5718 0070 03D1     		bne	.L675
 5719 0072 1368     		ldr	r3, [r2]
 5720 0074 43F00103 		orr	r3, r3, #1
 5721 0078 1360     		str	r3, [r2]
 5722              	.L675:
 5723 007a 2268     		ldr	r2, [r4]
 5724 007c 1368     		ldr	r3, [r2]
 5725 007e 23F40063 		bic	r3, r3, #2048
 5726 0082 1360     		str	r3, [r2]
 5727 0084 2268     		ldr	r2, [r4]
 5728 0086 5368     		ldr	r3, [r2, #4]
 5729 0088 23F48053 		bic	r3, r3, #4096
 5730 008c 5360     		str	r3, [r2, #4]
 5731 008e 2223     		movs	r3, #34
 5732 0090 84F83D30 		strb	r3, [r4, #61]
 5733 0094 1023     		movs	r3, #16
 5734 0096 84F83E30 		strb	r3, [r4, #62]
ARM GAS  /var/folders/kf/d797ysj14bb1pb7szkr3jbx80000gn/T//ccIy82lf.s 			page 100


 5735 009a 0023     		movs	r3, #0
 5736 009c 2364     		str	r3, [r4, #64]
 5737 009e C4F824C0 		str	ip, [r4, #36]
 5738 00a2 A4F82AE0 		strh	lr, [r4, #42]	@ movhi
 5739 00a6 638D     		ldrh	r3, [r4, #42]
 5740 00a8 9BB2     		uxth	r3, r3
 5741 00aa 2385     		strh	r3, [r4, #40]	@ movhi
 5742 00ac 049A     		ldr	r2, [sp, #16]
 5743 00ae E262     		str	r2, [r4, #44]
 5744 00b0 6164     		str	r1, [r4, #68]
 5745 00b2 226B     		ldr	r2, [r4, #48]
 5746 00b4 0192     		str	r2, [sp, #4]
 5747 00b6 002B     		cmp	r3, #0
 5748 00b8 00F09980 		beq	.L676
 5749 00bc 638D     		ldrh	r3, [r4, #42]
 5750 00be 9BB2     		uxth	r3, r3
 5751 00c0 022B     		cmp	r3, #2
 5752 00c2 40D0     		beq	.L698
 5753              	.L677:
 5754 00c4 2268     		ldr	r2, [r4]
 5755 00c6 1368     		ldr	r3, [r2]
 5756 00c8 43F48063 		orr	r3, r3, #1024
 5757 00cc 1360     		str	r3, [r2]
 5758 00ce 049B     		ldr	r3, [sp, #16]
 5759 00d0 202B     		cmp	r3, #32
 5760 00d2 04D0     		beq	.L681
 5761 00d4 B3F12A4F 		cmp	r3, #-1442840576
 5762 00d8 01D0     		beq	.L681
 5763 00da 102B     		cmp	r3, #16
 5764 00dc 04D1     		bne	.L680
 5765              	.L681:
 5766 00de 2268     		ldr	r2, [r4]
 5767 00e0 5368     		ldr	r3, [r2, #4]
 5768 00e2 43F48053 		orr	r3, r3, #4096
 5769 00e6 5360     		str	r3, [r2, #4]
 5770              	.L680:
 5771 00e8 A36B     		ldr	r3, [r4, #56]
 5772 00ea 002B     		cmp	r3, #0
 5773 00ec 49D0     		beq	.L682
 5774 00ee 544A     		ldr	r2, .L702+8
 5775 00f0 DA63     		str	r2, [r3, #60]
 5776 00f2 A36B     		ldr	r3, [r4, #56]
 5777 00f4 534A     		ldr	r2, .L702+12
 5778 00f6 DA64     		str	r2, [r3, #76]
 5779 00f8 A26B     		ldr	r2, [r4, #56]
 5780 00fa 0023     		movs	r3, #0
 5781 00fc 1364     		str	r3, [r2, #64]
 5782 00fe A26B     		ldr	r2, [r4, #56]
 5783 0100 1365     		str	r3, [r2, #80]
 5784 0102 2168     		ldr	r1, [r4]
 5785 0104 238D     		ldrh	r3, [r4, #40]
 5786 0106 626A     		ldr	r2, [r4, #36]
 5787 0108 1031     		adds	r1, r1, #16
 5788 010a A06B     		ldr	r0, [r4, #56]
 5789 010c FFF7FEFF 		bl	HAL_DMA_Start_IT
 5790 0110 0028     		cmp	r0, #0
 5791 0112 44D0     		beq	.L683
ARM GAS  /var/folders/kf/d797ysj14bb1pb7szkr3jbx80000gn/T//ccIy82lf.s 			page 101


 5792 0114 2023     		movs	r3, #32
 5793 0116 84F83D30 		strb	r3, [r4, #61]
 5794 011a 0022     		movs	r2, #0
 5795 011c 84F83E20 		strb	r2, [r4, #62]
 5796 0120 236C     		ldr	r3, [r4, #64]
 5797 0122 43F01003 		orr	r3, r3, #16
 5798 0126 2364     		str	r3, [r4, #64]
 5799 0128 84F83C20 		strb	r2, [r4, #60]
 5800 012c 0120     		movs	r0, #1
 5801 012e 7EE0     		b	.L670
 5802              	.L697:
 5803 0130 2063     		str	r0, [r4, #48]
 5804 0132 2022     		movs	r2, #32
 5805 0134 84F83D20 		strb	r2, [r4, #61]
 5806 0138 84F83E00 		strb	r0, [r4, #62]
 5807 013c 236C     		ldr	r3, [r4, #64]
 5808 013e 1343     		orrs	r3, r3, r2
 5809 0140 2364     		str	r3, [r4, #64]
 5810 0142 0220     		movs	r0, #2
 5811 0144 73E0     		b	.L670
 5812              	.L698:
 5813 0146 049B     		ldr	r3, [sp, #16]
 5814 0148 202B     		cmp	r3, #32
 5815 014a 01D0     		beq	.L678
 5816 014c 102B     		cmp	r3, #16
 5817 014e B9D1     		bne	.L677
 5818              	.L678:
 5819 0150 019B     		ldr	r3, [sp, #4]
 5820 0152 122B     		cmp	r3, #18
 5821 0154 05D0     		beq	.L699
 5822 0156 2268     		ldr	r2, [r4]
 5823 0158 1368     		ldr	r3, [r2]
 5824 015a 43F48063 		orr	r3, r3, #1024
 5825 015e 1360     		str	r3, [r2]
 5826 0160 C2E7     		b	.L680
 5827              	.L699:
 5828 0162 2268     		ldr	r2, [r4]
 5829 0164 1368     		ldr	r3, [r2]
 5830 0166 23F48063 		bic	r3, r3, #1024
 5831 016a 1360     		str	r3, [r2]
 5832 016c 2268     		ldr	r2, [r4]
 5833 016e 1368     		ldr	r3, [r2]
 5834 0170 43F40063 		orr	r3, r3, #2048
 5835 0174 1360     		str	r3, [r2]
 5836 0176 2268     		ldr	r2, [r4]
 5837 0178 5368     		ldr	r3, [r2, #4]
 5838 017a 43F48053 		orr	r3, r3, #4096
 5839 017e 5360     		str	r3, [r2, #4]
 5840 0180 B2E7     		b	.L680
 5841              	.L682:
 5842 0182 2023     		movs	r3, #32
 5843 0184 84F83D30 		strb	r3, [r4, #61]
 5844 0188 0022     		movs	r2, #0
 5845 018a 84F83E20 		strb	r2, [r4, #62]
 5846 018e 236C     		ldr	r3, [r4, #64]
 5847 0190 43F08003 		orr	r3, r3, #128
 5848 0194 2364     		str	r3, [r4, #64]
ARM GAS  /var/folders/kf/d797ysj14bb1pb7szkr3jbx80000gn/T//ccIy82lf.s 			page 102


 5849 0196 84F83C20 		strb	r2, [r4, #60]
 5850 019a 0120     		movs	r0, #1
 5851 019c 47E0     		b	.L670
 5852              	.L683:
 5853 019e 019B     		ldr	r3, [sp, #4]
 5854 01a0 122B     		cmp	r3, #18
 5855 01a2 1AD0     		beq	.L700
 5856              	.L685:
 5857 01a4 2268     		ldr	r2, [r4]
 5858 01a6 1368     		ldr	r3, [r2]
 5859 01a8 43F48073 		orr	r3, r3, #256
 5860 01ac 1360     		str	r3, [r2]
 5861 01ae 4FF44071 		mov	r1, #768
 5862              	.L686:
 5863 01b2 0023     		movs	r3, #0
 5864 01b4 84F83C30 		strb	r3, [r4, #60]
 5865 01b8 049B     		ldr	r3, [sp, #16]
 5866 01ba 042B     		cmp	r3, #4
 5867 01bc 03D0     		beq	.L687
 5868 01be 202B     		cmp	r3, #32
 5869 01c0 01D0     		beq	.L687
 5870 01c2 102B     		cmp	r3, #16
 5871 01c4 04D1     		bne	.L688
 5872              	.L687:
 5873 01c6 2268     		ldr	r2, [r4]
 5874 01c8 5368     		ldr	r3, [r2, #4]
 5875 01ca 43F40063 		orr	r3, r3, #2048
 5876 01ce 5360     		str	r3, [r2, #4]
 5877              	.L688:
 5878 01d0 2268     		ldr	r2, [r4]
 5879 01d2 5368     		ldr	r3, [r2, #4]
 5880 01d4 0B43     		orrs	r3, r3, r1
 5881 01d6 5360     		str	r3, [r2, #4]
 5882 01d8 1EE0     		b	.L689
 5883              	.L700:
 5884 01da 049B     		ldr	r3, [sp, #16]
 5885 01dc B3F52A0F 		cmp	r3, #11141120
 5886 01e0 E0D0     		beq	.L685
 5887 01e2 B3F12A4F 		cmp	r3, #-1442840576
 5888 01e6 DDD0     		beq	.L685
 5889 01e8 4FF48071 		mov	r1, #256
 5890 01ec E1E7     		b	.L686
 5891              	.L676:
 5892 01ee 2268     		ldr	r2, [r4]
 5893 01f0 1368     		ldr	r3, [r2]
 5894 01f2 43F48063 		orr	r3, r3, #1024
 5895 01f6 1360     		str	r3, [r2]
 5896 01f8 019B     		ldr	r3, [sp, #4]
 5897 01fa 122B     		cmp	r3, #18
 5898 01fc 0ED0     		beq	.L701
 5899              	.L690:
 5900 01fe 2268     		ldr	r2, [r4]
 5901 0200 1368     		ldr	r3, [r2]
 5902 0202 43F48073 		orr	r3, r3, #256
 5903 0206 1360     		str	r3, [r2]
 5904              	.L691:
 5905 0208 0023     		movs	r3, #0
ARM GAS  /var/folders/kf/d797ysj14bb1pb7szkr3jbx80000gn/T//ccIy82lf.s 			page 103


 5906 020a 84F83C30 		strb	r3, [r4, #60]
 5907 020e 2268     		ldr	r2, [r4]
 5908 0210 5368     		ldr	r3, [r2, #4]
 5909 0212 43F4E063 		orr	r3, r3, #1792
 5910 0216 5360     		str	r3, [r2, #4]
 5911              	.L689:
 5912 0218 0020     		movs	r0, #0
 5913 021a 08E0     		b	.L670
 5914              	.L701:
 5915 021c 049B     		ldr	r3, [sp, #16]
 5916 021e B3F52A0F 		cmp	r3, #11141120
 5917 0222 ECD0     		beq	.L690
 5918 0224 B3F12A4F 		cmp	r3, #-1442840576
 5919 0228 EED1     		bne	.L691
 5920 022a E8E7     		b	.L690
 5921              	.L692:
 5922 022c 0220     		movs	r0, #2
 5923              	.L670:
 5924 022e 02B0     		add	sp, sp, #8
 5925              		@ sp needed
 5926 0230 10BD     		pop	{r4, pc}
 5927              	.L693:
 5928 0232 0220     		movs	r0, #2
 5929 0234 FBE7     		b	.L670
 5930              	.L703:
 5931 0236 00BF     		.align	2
 5932              	.L702:
 5933 0238 00000000 		.word	SystemCoreClock
 5934 023c 89B5F814 		.word	351843721
 5935 0240 00000000 		.word	I2C_DMAXferCplt
 5936 0244 00000000 		.word	I2C_DMAError
 5938              		.section	.text.HAL_I2C_Slave_Seq_Transmit_IT,"ax",%progbits
 5939              		.align	1
 5940              		.global	HAL_I2C_Slave_Seq_Transmit_IT
 5941              		.syntax unified
 5942              		.thumb
 5943              		.thumb_func
 5945              	HAL_I2C_Slave_Seq_Transmit_IT:
 5946              		@ args = 0, pretend = 0, frame = 8
 5947              		@ frame_needed = 0, uses_anonymous_args = 0
 5948 0000 90F83DC0 		ldrb	ip, [r0, #61]	@ zero_extendqisi2
 5949 0004 0CF0280C 		and	ip, ip, #40
 5950 0008 BCF1280F 		cmp	ip, #40
 5951 000c 42D1     		bne	.L707
 5952 000e 00B5     		push	{lr}
 5953 0010 83B0     		sub	sp, sp, #12
 5954 0012 8E46     		mov	lr, r1
 5955 0014 1146     		mov	r1, r2
 5956 0016 1A46     		mov	r2, r3
 5957 0018 BEF1000F 		cmp	lr, #0
 5958 001c 3CD0     		beq	.L708
 5959 001e 0029     		cmp	r1, #0
 5960 0020 3CD0     		beq	.L709
 5961 0022 90F83C30 		ldrb	r3, [r0, #60]	@ zero_extendqisi2
 5962 0026 012B     		cmp	r3, #1
 5963 0028 3AD0     		beq	.L710
 5964 002a 0123     		movs	r3, #1
ARM GAS  /var/folders/kf/d797ysj14bb1pb7szkr3jbx80000gn/T//ccIy82lf.s 			page 104


 5965 002c 80F83C30 		strb	r3, [r0, #60]
 5966 0030 0368     		ldr	r3, [r0]
 5967 0032 D3F800C0 		ldr	ip, [r3]
 5968 0036 1CF0010F 		tst	ip, #1
 5969 003a 05D1     		bne	.L706
 5970 003c D3F800C0 		ldr	ip, [r3]
 5971 0040 4CF0010C 		orr	ip, ip, #1
 5972 0044 C3F800C0 		str	ip, [r3]
 5973              	.L706:
 5974 0048 D0F800C0 		ldr	ip, [r0]
 5975 004c DCF80030 		ldr	r3, [ip]
 5976 0050 23F40063 		bic	r3, r3, #2048
 5977 0054 CCF80030 		str	r3, [ip]
 5978 0058 2923     		movs	r3, #41
 5979 005a 80F83D30 		strb	r3, [r0, #61]
 5980 005e 2023     		movs	r3, #32
 5981 0060 80F83E30 		strb	r3, [r0, #62]
 5982 0064 0023     		movs	r3, #0
 5983 0066 0364     		str	r3, [r0, #64]
 5984 0068 C0F824E0 		str	lr, [r0, #36]
 5985 006c 4185     		strh	r1, [r0, #42]	@ movhi
 5986 006e 418D     		ldrh	r1, [r0, #42]
 5987 0070 0185     		strh	r1, [r0, #40]	@ movhi
 5988 0072 C262     		str	r2, [r0, #44]
 5989 0074 0193     		str	r3, [sp, #4]
 5990 0076 0268     		ldr	r2, [r0]
 5991 0078 5169     		ldr	r1, [r2, #20]
 5992 007a 0191     		str	r1, [sp, #4]
 5993 007c 9169     		ldr	r1, [r2, #24]
 5994 007e 0191     		str	r1, [sp, #4]
 5995 0080 0199     		ldr	r1, [sp, #4]
 5996 0082 80F83C30 		strb	r3, [r0, #60]
 5997 0086 5168     		ldr	r1, [r2, #4]
 5998 0088 41F4E061 		orr	r1, r1, #1792
 5999 008c 5160     		str	r1, [r2, #4]
 6000 008e 1846     		mov	r0, r3
 6001              	.L705:
 6002 0090 03B0     		add	sp, sp, #12
 6003              		@ sp needed
 6004 0092 00BD     		pop	{pc}
 6005              	.L707:
 6006 0094 0220     		movs	r0, #2
 6007 0096 7047     		bx	lr
 6008              	.L708:
 6009 0098 0120     		movs	r0, #1
 6010 009a F9E7     		b	.L705
 6011              	.L709:
 6012 009c 0120     		movs	r0, #1
 6013 009e F7E7     		b	.L705
 6014              	.L710:
 6015 00a0 0220     		movs	r0, #2
 6016 00a2 F5E7     		b	.L705
 6018              		.section	.text.HAL_I2C_Slave_Seq_Transmit_DMA,"ax",%progbits
 6019              		.align	1
 6020              		.global	HAL_I2C_Slave_Seq_Transmit_DMA
 6021              		.syntax unified
 6022              		.thumb
ARM GAS  /var/folders/kf/d797ysj14bb1pb7szkr3jbx80000gn/T//ccIy82lf.s 			page 105


 6023              		.thumb_func
 6025              	HAL_I2C_Slave_Seq_Transmit_DMA:
 6026              		@ args = 0, pretend = 0, frame = 8
 6027              		@ frame_needed = 0, uses_anonymous_args = 0
 6028 0000 F0B5     		push	{r4, r5, r6, r7, lr}
 6029 0002 83B0     		sub	sp, sp, #12
 6030 0004 0446     		mov	r4, r0
 6031 0006 90F83D00 		ldrb	r0, [r0, #61]	@ zero_extendqisi2
 6032 000a 00F02800 		and	r0, r0, #40
 6033 000e 2828     		cmp	r0, #40
 6034 0010 40F0B380 		bne	.L723
 6035 0014 0D46     		mov	r5, r1
 6036 0016 1646     		mov	r6, r2
 6037 0018 1F46     		mov	r7, r3
 6038 001a 0029     		cmp	r1, #0
 6039 001c 00F0B080 		beq	.L724
 6040 0020 002A     		cmp	r2, #0
 6041 0022 00F0AF80 		beq	.L725
 6042 0026 94F83C30 		ldrb	r3, [r4, #60]	@ zero_extendqisi2
 6043 002a 012B     		cmp	r3, #1
 6044 002c 00F0AC80 		beq	.L726
 6045 0030 0123     		movs	r3, #1
 6046 0032 84F83C30 		strb	r3, [r4, #60]
 6047 0036 2268     		ldr	r2, [r4]
 6048 0038 5368     		ldr	r3, [r2, #4]
 6049 003a 23F44073 		bic	r3, r3, #768
 6050 003e 5360     		str	r3, [r2, #4]
 6051 0040 94F83D30 		ldrb	r3, [r4, #61]	@ zero_extendqisi2
 6052 0044 2A2B     		cmp	r3, #42
 6053 0046 42D0     		beq	.L729
 6054 0048 94F83D30 		ldrb	r3, [r4, #61]	@ zero_extendqisi2
 6055 004c 292B     		cmp	r3, #41
 6056 004e 56D0     		beq	.L730
 6057              	.L718:
 6058 0050 2368     		ldr	r3, [r4]
 6059 0052 1A68     		ldr	r2, [r3]
 6060 0054 12F0010F 		tst	r2, #1
 6061 0058 03D1     		bne	.L719
 6062 005a 1A68     		ldr	r2, [r3]
 6063 005c 42F00102 		orr	r2, r2, #1
 6064 0060 1A60     		str	r2, [r3]
 6065              	.L719:
 6066 0062 2268     		ldr	r2, [r4]
 6067 0064 1368     		ldr	r3, [r2]
 6068 0066 23F40063 		bic	r3, r3, #2048
 6069 006a 1360     		str	r3, [r2]
 6070 006c 2923     		movs	r3, #41
 6071 006e 84F83D30 		strb	r3, [r4, #61]
 6072 0072 2023     		movs	r3, #32
 6073 0074 84F83E30 		strb	r3, [r4, #62]
 6074 0078 0023     		movs	r3, #0
 6075 007a 2364     		str	r3, [r4, #64]
 6076 007c 6562     		str	r5, [r4, #36]
 6077 007e 6685     		strh	r6, [r4, #42]	@ movhi
 6078 0080 638D     		ldrh	r3, [r4, #42]
 6079 0082 2385     		strh	r3, [r4, #40]	@ movhi
 6080 0084 E762     		str	r7, [r4, #44]
ARM GAS  /var/folders/kf/d797ysj14bb1pb7szkr3jbx80000gn/T//ccIy82lf.s 			page 106


 6081 0086 636B     		ldr	r3, [r4, #52]
 6082 0088 002B     		cmp	r3, #0
 6083 008a 4FD0     		beq	.L720
 6084 008c 3F4A     		ldr	r2, .L731
 6085 008e DA63     		str	r2, [r3, #60]
 6086 0090 636B     		ldr	r3, [r4, #52]
 6087 0092 3F4A     		ldr	r2, .L731+4
 6088 0094 DA64     		str	r2, [r3, #76]
 6089 0096 626B     		ldr	r2, [r4, #52]
 6090 0098 0023     		movs	r3, #0
 6091 009a 1364     		str	r3, [r2, #64]
 6092 009c 626B     		ldr	r2, [r4, #52]
 6093 009e 1365     		str	r3, [r2, #80]
 6094 00a0 2268     		ldr	r2, [r4]
 6095 00a2 238D     		ldrh	r3, [r4, #40]
 6096 00a4 1032     		adds	r2, r2, #16
 6097 00a6 616A     		ldr	r1, [r4, #36]
 6098 00a8 606B     		ldr	r0, [r4, #52]
 6099 00aa FFF7FEFF 		bl	HAL_DMA_Start_IT
 6100 00ae 0028     		cmp	r0, #0
 6101 00b0 4AD0     		beq	.L721
 6102 00b2 2023     		movs	r3, #32
 6103 00b4 84F83D30 		strb	r3, [r4, #61]
 6104 00b8 0022     		movs	r2, #0
 6105 00ba 84F83E20 		strb	r2, [r4, #62]
 6106 00be 236C     		ldr	r3, [r4, #64]
 6107 00c0 43F01003 		orr	r3, r3, #16
 6108 00c4 2364     		str	r3, [r4, #64]
 6109 00c6 84F83C20 		strb	r2, [r4, #60]
 6110 00ca 0120     		movs	r0, #1
 6111 00cc 56E0     		b	.L716
 6112              	.L729:
 6113 00ce 2368     		ldr	r3, [r4]
 6114 00d0 5A68     		ldr	r2, [r3, #4]
 6115 00d2 12F4006F 		tst	r2, #2048
 6116 00d6 BBD0     		beq	.L718
 6117 00d8 A26B     		ldr	r2, [r4, #56]
 6118 00da 002A     		cmp	r2, #0
 6119 00dc B8D0     		beq	.L718
 6120 00de 5A68     		ldr	r2, [r3, #4]
 6121 00e0 22F40062 		bic	r2, r2, #2048
 6122 00e4 5A60     		str	r2, [r3, #4]
 6123 00e6 A36B     		ldr	r3, [r4, #56]
 6124 00e8 2A4A     		ldr	r2, .L731+8
 6125 00ea 1A65     		str	r2, [r3, #80]
 6126 00ec A06B     		ldr	r0, [r4, #56]
 6127 00ee FFF7FEFF 		bl	HAL_DMA_Abort_IT
 6128 00f2 0028     		cmp	r0, #0
 6129 00f4 ACD0     		beq	.L718
 6130 00f6 A06B     		ldr	r0, [r4, #56]
 6131 00f8 036D     		ldr	r3, [r0, #80]
 6132 00fa 9847     		blx	r3
 6133 00fc A8E7     		b	.L718
 6134              	.L730:
 6135 00fe 2368     		ldr	r3, [r4]
 6136 0100 5A68     		ldr	r2, [r3, #4]
 6137 0102 12F4006F 		tst	r2, #2048
ARM GAS  /var/folders/kf/d797ysj14bb1pb7szkr3jbx80000gn/T//ccIy82lf.s 			page 107


 6138 0106 A3D0     		beq	.L718
 6139 0108 5A68     		ldr	r2, [r3, #4]
 6140 010a 22F40062 		bic	r2, r2, #2048
 6141 010e 5A60     		str	r2, [r3, #4]
 6142 0110 636B     		ldr	r3, [r4, #52]
 6143 0112 002B     		cmp	r3, #0
 6144 0114 9CD0     		beq	.L718
 6145 0116 1F4A     		ldr	r2, .L731+8
 6146 0118 1A65     		str	r2, [r3, #80]
 6147 011a 606B     		ldr	r0, [r4, #52]
 6148 011c FFF7FEFF 		bl	HAL_DMA_Abort_IT
 6149 0120 0028     		cmp	r0, #0
 6150 0122 95D0     		beq	.L718
 6151 0124 606B     		ldr	r0, [r4, #52]
 6152 0126 036D     		ldr	r3, [r0, #80]
 6153 0128 9847     		blx	r3
 6154 012a 91E7     		b	.L718
 6155              	.L720:
 6156 012c 2823     		movs	r3, #40
 6157 012e 84F83D30 		strb	r3, [r4, #61]
 6158 0132 0022     		movs	r2, #0
 6159 0134 84F83E20 		strb	r2, [r4, #62]
 6160 0138 236C     		ldr	r3, [r4, #64]
 6161 013a 43F08003 		orr	r3, r3, #128
 6162 013e 2364     		str	r3, [r4, #64]
 6163 0140 84F83C20 		strb	r2, [r4, #60]
 6164 0144 0120     		movs	r0, #1
 6165 0146 19E0     		b	.L716
 6166              	.L721:
 6167 0148 2268     		ldr	r2, [r4]
 6168 014a 1368     		ldr	r3, [r2]
 6169 014c 43F48063 		orr	r3, r3, #1024
 6170 0150 1360     		str	r3, [r2]
 6171 0152 0022     		movs	r2, #0
 6172 0154 0192     		str	r2, [sp, #4]
 6173 0156 2368     		ldr	r3, [r4]
 6174 0158 5969     		ldr	r1, [r3, #20]
 6175 015a 0191     		str	r1, [sp, #4]
 6176 015c 9969     		ldr	r1, [r3, #24]
 6177 015e 0191     		str	r1, [sp, #4]
 6178 0160 0199     		ldr	r1, [sp, #4]
 6179 0162 84F83C20 		strb	r2, [r4, #60]
 6180 0166 5A68     		ldr	r2, [r3, #4]
 6181 0168 42F44072 		orr	r2, r2, #768
 6182 016c 5A60     		str	r2, [r3, #4]
 6183 016e 2268     		ldr	r2, [r4]
 6184 0170 5368     		ldr	r3, [r2, #4]
 6185 0172 43F40063 		orr	r3, r3, #2048
 6186 0176 5360     		str	r3, [r2, #4]
 6187 0178 00E0     		b	.L716
 6188              	.L723:
 6189 017a 0220     		movs	r0, #2
 6190              	.L716:
 6191 017c 03B0     		add	sp, sp, #12
 6192              		@ sp needed
 6193 017e F0BD     		pop	{r4, r5, r6, r7, pc}
 6194              	.L724:
ARM GAS  /var/folders/kf/d797ysj14bb1pb7szkr3jbx80000gn/T//ccIy82lf.s 			page 108


 6195 0180 0120     		movs	r0, #1
 6196 0182 FBE7     		b	.L716
 6197              	.L725:
 6198 0184 0120     		movs	r0, #1
 6199 0186 F9E7     		b	.L716
 6200              	.L726:
 6201 0188 0220     		movs	r0, #2
 6202 018a F7E7     		b	.L716
 6203              	.L732:
 6204              		.align	2
 6205              	.L731:
 6206 018c 00000000 		.word	I2C_DMAXferCplt
 6207 0190 00000000 		.word	I2C_DMAError
 6208 0194 00000000 		.word	I2C_DMAAbort
 6210              		.section	.text.HAL_I2C_Slave_Seq_Receive_IT,"ax",%progbits
 6211              		.align	1
 6212              		.global	HAL_I2C_Slave_Seq_Receive_IT
 6213              		.syntax unified
 6214              		.thumb
 6215              		.thumb_func
 6217              	HAL_I2C_Slave_Seq_Receive_IT:
 6218              		@ args = 0, pretend = 0, frame = 8
 6219              		@ frame_needed = 0, uses_anonymous_args = 0
 6220 0000 90F83DC0 		ldrb	ip, [r0, #61]	@ zero_extendqisi2
 6221 0004 0CF0280C 		and	ip, ip, #40
 6222 0008 BCF1280F 		cmp	ip, #40
 6223 000c 42D1     		bne	.L736
 6224 000e 00B5     		push	{lr}
 6225 0010 83B0     		sub	sp, sp, #12
 6226 0012 8E46     		mov	lr, r1
 6227 0014 1146     		mov	r1, r2
 6228 0016 1A46     		mov	r2, r3
 6229 0018 BEF1000F 		cmp	lr, #0
 6230 001c 3CD0     		beq	.L737
 6231 001e 0029     		cmp	r1, #0
 6232 0020 3CD0     		beq	.L738
 6233 0022 90F83C30 		ldrb	r3, [r0, #60]	@ zero_extendqisi2
 6234 0026 012B     		cmp	r3, #1
 6235 0028 3AD0     		beq	.L739
 6236 002a 0123     		movs	r3, #1
 6237 002c 80F83C30 		strb	r3, [r0, #60]
 6238 0030 0368     		ldr	r3, [r0]
 6239 0032 D3F800C0 		ldr	ip, [r3]
 6240 0036 1CF0010F 		tst	ip, #1
 6241 003a 05D1     		bne	.L735
 6242 003c D3F800C0 		ldr	ip, [r3]
 6243 0040 4CF0010C 		orr	ip, ip, #1
 6244 0044 C3F800C0 		str	ip, [r3]
 6245              	.L735:
 6246 0048 D0F800C0 		ldr	ip, [r0]
 6247 004c DCF80030 		ldr	r3, [ip]
 6248 0050 23F40063 		bic	r3, r3, #2048
 6249 0054 CCF80030 		str	r3, [ip]
 6250 0058 2A23     		movs	r3, #42
 6251 005a 80F83D30 		strb	r3, [r0, #61]
 6252 005e 2023     		movs	r3, #32
 6253 0060 80F83E30 		strb	r3, [r0, #62]
ARM GAS  /var/folders/kf/d797ysj14bb1pb7szkr3jbx80000gn/T//ccIy82lf.s 			page 109


 6254 0064 0023     		movs	r3, #0
 6255 0066 0364     		str	r3, [r0, #64]
 6256 0068 C0F824E0 		str	lr, [r0, #36]
 6257 006c 4185     		strh	r1, [r0, #42]	@ movhi
 6258 006e 418D     		ldrh	r1, [r0, #42]
 6259 0070 0185     		strh	r1, [r0, #40]	@ movhi
 6260 0072 C262     		str	r2, [r0, #44]
 6261 0074 0193     		str	r3, [sp, #4]
 6262 0076 0268     		ldr	r2, [r0]
 6263 0078 5169     		ldr	r1, [r2, #20]
 6264 007a 0191     		str	r1, [sp, #4]
 6265 007c 9169     		ldr	r1, [r2, #24]
 6266 007e 0191     		str	r1, [sp, #4]
 6267 0080 0199     		ldr	r1, [sp, #4]
 6268 0082 80F83C30 		strb	r3, [r0, #60]
 6269 0086 5168     		ldr	r1, [r2, #4]
 6270 0088 41F4E061 		orr	r1, r1, #1792
 6271 008c 5160     		str	r1, [r2, #4]
 6272 008e 1846     		mov	r0, r3
 6273              	.L734:
 6274 0090 03B0     		add	sp, sp, #12
 6275              		@ sp needed
 6276 0092 00BD     		pop	{pc}
 6277              	.L736:
 6278 0094 0220     		movs	r0, #2
 6279 0096 7047     		bx	lr
 6280              	.L737:
 6281 0098 0120     		movs	r0, #1
 6282 009a F9E7     		b	.L734
 6283              	.L738:
 6284 009c 0120     		movs	r0, #1
 6285 009e F7E7     		b	.L734
 6286              	.L739:
 6287 00a0 0220     		movs	r0, #2
 6288 00a2 F5E7     		b	.L734
 6290              		.section	.text.HAL_I2C_Slave_Seq_Receive_DMA,"ax",%progbits
 6291              		.align	1
 6292              		.global	HAL_I2C_Slave_Seq_Receive_DMA
 6293              		.syntax unified
 6294              		.thumb
 6295              		.thumb_func
 6297              	HAL_I2C_Slave_Seq_Receive_DMA:
 6298              		@ args = 0, pretend = 0, frame = 8
 6299              		@ frame_needed = 0, uses_anonymous_args = 0
 6300 0000 F0B5     		push	{r4, r5, r6, r7, lr}
 6301 0002 83B0     		sub	sp, sp, #12
 6302 0004 0446     		mov	r4, r0
 6303 0006 90F83D00 		ldrb	r0, [r0, #61]	@ zero_extendqisi2
 6304 000a 00F02800 		and	r0, r0, #40
 6305 000e 2828     		cmp	r0, #40
 6306 0010 40F0B380 		bne	.L752
 6307 0014 0D46     		mov	r5, r1
 6308 0016 1646     		mov	r6, r2
 6309 0018 1F46     		mov	r7, r3
 6310 001a 0029     		cmp	r1, #0
 6311 001c 00F0B080 		beq	.L753
 6312 0020 002A     		cmp	r2, #0
ARM GAS  /var/folders/kf/d797ysj14bb1pb7szkr3jbx80000gn/T//ccIy82lf.s 			page 110


 6313 0022 00F0AF80 		beq	.L754
 6314 0026 94F83C30 		ldrb	r3, [r4, #60]	@ zero_extendqisi2
 6315 002a 012B     		cmp	r3, #1
 6316 002c 00F0AC80 		beq	.L755
 6317 0030 0123     		movs	r3, #1
 6318 0032 84F83C30 		strb	r3, [r4, #60]
 6319 0036 2268     		ldr	r2, [r4]
 6320 0038 5368     		ldr	r3, [r2, #4]
 6321 003a 23F44073 		bic	r3, r3, #768
 6322 003e 5360     		str	r3, [r2, #4]
 6323 0040 94F83D30 		ldrb	r3, [r4, #61]	@ zero_extendqisi2
 6324 0044 2A2B     		cmp	r3, #42
 6325 0046 42D0     		beq	.L758
 6326 0048 94F83D30 		ldrb	r3, [r4, #61]	@ zero_extendqisi2
 6327 004c 292B     		cmp	r3, #41
 6328 004e 56D0     		beq	.L759
 6329              	.L747:
 6330 0050 2368     		ldr	r3, [r4]
 6331 0052 1A68     		ldr	r2, [r3]
 6332 0054 12F0010F 		tst	r2, #1
 6333 0058 03D1     		bne	.L748
 6334 005a 1A68     		ldr	r2, [r3]
 6335 005c 42F00102 		orr	r2, r2, #1
 6336 0060 1A60     		str	r2, [r3]
 6337              	.L748:
 6338 0062 2268     		ldr	r2, [r4]
 6339 0064 1368     		ldr	r3, [r2]
 6340 0066 23F40063 		bic	r3, r3, #2048
 6341 006a 1360     		str	r3, [r2]
 6342 006c 2A23     		movs	r3, #42
 6343 006e 84F83D30 		strb	r3, [r4, #61]
 6344 0072 2023     		movs	r3, #32
 6345 0074 84F83E30 		strb	r3, [r4, #62]
 6346 0078 0023     		movs	r3, #0
 6347 007a 2364     		str	r3, [r4, #64]
 6348 007c 6562     		str	r5, [r4, #36]
 6349 007e 6685     		strh	r6, [r4, #42]	@ movhi
 6350 0080 638D     		ldrh	r3, [r4, #42]
 6351 0082 2385     		strh	r3, [r4, #40]	@ movhi
 6352 0084 E762     		str	r7, [r4, #44]
 6353 0086 A36B     		ldr	r3, [r4, #56]
 6354 0088 002B     		cmp	r3, #0
 6355 008a 4FD0     		beq	.L749
 6356 008c 3F4A     		ldr	r2, .L760
 6357 008e DA63     		str	r2, [r3, #60]
 6358 0090 A36B     		ldr	r3, [r4, #56]
 6359 0092 3F4A     		ldr	r2, .L760+4
 6360 0094 DA64     		str	r2, [r3, #76]
 6361 0096 A26B     		ldr	r2, [r4, #56]
 6362 0098 0023     		movs	r3, #0
 6363 009a 1364     		str	r3, [r2, #64]
 6364 009c A26B     		ldr	r2, [r4, #56]
 6365 009e 1365     		str	r3, [r2, #80]
 6366 00a0 2168     		ldr	r1, [r4]
 6367 00a2 238D     		ldrh	r3, [r4, #40]
 6368 00a4 626A     		ldr	r2, [r4, #36]
 6369 00a6 1031     		adds	r1, r1, #16
ARM GAS  /var/folders/kf/d797ysj14bb1pb7szkr3jbx80000gn/T//ccIy82lf.s 			page 111


 6370 00a8 A06B     		ldr	r0, [r4, #56]
 6371 00aa FFF7FEFF 		bl	HAL_DMA_Start_IT
 6372 00ae 0028     		cmp	r0, #0
 6373 00b0 4AD0     		beq	.L750
 6374 00b2 2023     		movs	r3, #32
 6375 00b4 84F83D30 		strb	r3, [r4, #61]
 6376 00b8 0022     		movs	r2, #0
 6377 00ba 84F83E20 		strb	r2, [r4, #62]
 6378 00be 236C     		ldr	r3, [r4, #64]
 6379 00c0 43F01003 		orr	r3, r3, #16
 6380 00c4 2364     		str	r3, [r4, #64]
 6381 00c6 84F83C20 		strb	r2, [r4, #60]
 6382 00ca 0120     		movs	r0, #1
 6383 00cc 56E0     		b	.L745
 6384              	.L758:
 6385 00ce 2368     		ldr	r3, [r4]
 6386 00d0 5A68     		ldr	r2, [r3, #4]
 6387 00d2 12F4006F 		tst	r2, #2048
 6388 00d6 BBD0     		beq	.L747
 6389 00d8 A26B     		ldr	r2, [r4, #56]
 6390 00da 002A     		cmp	r2, #0
 6391 00dc B8D0     		beq	.L747
 6392 00de 5A68     		ldr	r2, [r3, #4]
 6393 00e0 22F40062 		bic	r2, r2, #2048
 6394 00e4 5A60     		str	r2, [r3, #4]
 6395 00e6 A36B     		ldr	r3, [r4, #56]
 6396 00e8 2A4A     		ldr	r2, .L760+8
 6397 00ea 1A65     		str	r2, [r3, #80]
 6398 00ec A06B     		ldr	r0, [r4, #56]
 6399 00ee FFF7FEFF 		bl	HAL_DMA_Abort_IT
 6400 00f2 0028     		cmp	r0, #0
 6401 00f4 ACD0     		beq	.L747
 6402 00f6 A06B     		ldr	r0, [r4, #56]
 6403 00f8 036D     		ldr	r3, [r0, #80]
 6404 00fa 9847     		blx	r3
 6405 00fc A8E7     		b	.L747
 6406              	.L759:
 6407 00fe 2368     		ldr	r3, [r4]
 6408 0100 5A68     		ldr	r2, [r3, #4]
 6409 0102 12F4006F 		tst	r2, #2048
 6410 0106 A3D0     		beq	.L747
 6411 0108 5A68     		ldr	r2, [r3, #4]
 6412 010a 22F40062 		bic	r2, r2, #2048
 6413 010e 5A60     		str	r2, [r3, #4]
 6414 0110 636B     		ldr	r3, [r4, #52]
 6415 0112 002B     		cmp	r3, #0
 6416 0114 9CD0     		beq	.L747
 6417 0116 1F4A     		ldr	r2, .L760+8
 6418 0118 1A65     		str	r2, [r3, #80]
 6419 011a 606B     		ldr	r0, [r4, #52]
 6420 011c FFF7FEFF 		bl	HAL_DMA_Abort_IT
 6421 0120 0028     		cmp	r0, #0
 6422 0122 95D0     		beq	.L747
 6423 0124 606B     		ldr	r0, [r4, #52]
 6424 0126 036D     		ldr	r3, [r0, #80]
 6425 0128 9847     		blx	r3
 6426 012a 91E7     		b	.L747
ARM GAS  /var/folders/kf/d797ysj14bb1pb7szkr3jbx80000gn/T//ccIy82lf.s 			page 112


 6427              	.L749:
 6428 012c 2823     		movs	r3, #40
 6429 012e 84F83D30 		strb	r3, [r4, #61]
 6430 0132 0022     		movs	r2, #0
 6431 0134 84F83E20 		strb	r2, [r4, #62]
 6432 0138 236C     		ldr	r3, [r4, #64]
 6433 013a 43F08003 		orr	r3, r3, #128
 6434 013e 2364     		str	r3, [r4, #64]
 6435 0140 84F83C20 		strb	r2, [r4, #60]
 6436 0144 0120     		movs	r0, #1
 6437 0146 19E0     		b	.L745
 6438              	.L750:
 6439 0148 2268     		ldr	r2, [r4]
 6440 014a 1368     		ldr	r3, [r2]
 6441 014c 43F48063 		orr	r3, r3, #1024
 6442 0150 1360     		str	r3, [r2]
 6443 0152 0022     		movs	r2, #0
 6444 0154 0192     		str	r2, [sp, #4]
 6445 0156 2368     		ldr	r3, [r4]
 6446 0158 5969     		ldr	r1, [r3, #20]
 6447 015a 0191     		str	r1, [sp, #4]
 6448 015c 9969     		ldr	r1, [r3, #24]
 6449 015e 0191     		str	r1, [sp, #4]
 6450 0160 0199     		ldr	r1, [sp, #4]
 6451 0162 84F83C20 		strb	r2, [r4, #60]
 6452 0166 5A68     		ldr	r2, [r3, #4]
 6453 0168 42F40062 		orr	r2, r2, #2048
 6454 016c 5A60     		str	r2, [r3, #4]
 6455 016e 2268     		ldr	r2, [r4]
 6456 0170 5368     		ldr	r3, [r2, #4]
 6457 0172 43F44073 		orr	r3, r3, #768
 6458 0176 5360     		str	r3, [r2, #4]
 6459 0178 00E0     		b	.L745
 6460              	.L752:
 6461 017a 0220     		movs	r0, #2
 6462              	.L745:
 6463 017c 03B0     		add	sp, sp, #12
 6464              		@ sp needed
 6465 017e F0BD     		pop	{r4, r5, r6, r7, pc}
 6466              	.L753:
 6467 0180 0120     		movs	r0, #1
 6468 0182 FBE7     		b	.L745
 6469              	.L754:
 6470 0184 0120     		movs	r0, #1
 6471 0186 F9E7     		b	.L745
 6472              	.L755:
 6473 0188 0220     		movs	r0, #2
 6474 018a F7E7     		b	.L745
 6475              	.L761:
 6476              		.align	2
 6477              	.L760:
 6478 018c 00000000 		.word	I2C_DMAXferCplt
 6479 0190 00000000 		.word	I2C_DMAError
 6480 0194 00000000 		.word	I2C_DMAAbort
 6482              		.section	.text.HAL_I2C_EnableListen_IT,"ax",%progbits
 6483              		.align	1
 6484              		.global	HAL_I2C_EnableListen_IT
ARM GAS  /var/folders/kf/d797ysj14bb1pb7szkr3jbx80000gn/T//ccIy82lf.s 			page 113


 6485              		.syntax unified
 6486              		.thumb
 6487              		.thumb_func
 6489              	HAL_I2C_EnableListen_IT:
 6490              		@ args = 0, pretend = 0, frame = 0
 6491              		@ frame_needed = 0, uses_anonymous_args = 0
 6492              		@ link register save eliminated.
 6493 0000 90F83D30 		ldrb	r3, [r0, #61]	@ zero_extendqisi2
 6494 0004 202B     		cmp	r3, #32
 6495 0006 01D0     		beq	.L766
 6496 0008 0220     		movs	r0, #2
 6497 000a 7047     		bx	lr
 6498              	.L766:
 6499 000c 2823     		movs	r3, #40
 6500 000e 80F83D30 		strb	r3, [r0, #61]
 6501 0012 0368     		ldr	r3, [r0]
 6502 0014 1A68     		ldr	r2, [r3]
 6503 0016 12F0010F 		tst	r2, #1
 6504 001a 03D1     		bne	.L764
 6505 001c 1A68     		ldr	r2, [r3]
 6506 001e 42F00102 		orr	r2, r2, #1
 6507 0022 1A60     		str	r2, [r3]
 6508              	.L764:
 6509 0024 0268     		ldr	r2, [r0]
 6510 0026 1368     		ldr	r3, [r2]
 6511 0028 43F48063 		orr	r3, r3, #1024
 6512 002c 1360     		str	r3, [r2]
 6513 002e 0268     		ldr	r2, [r0]
 6514 0030 5368     		ldr	r3, [r2, #4]
 6515 0032 43F44073 		orr	r3, r3, #768
 6516 0036 5360     		str	r3, [r2, #4]
 6517 0038 0020     		movs	r0, #0
 6518 003a 7047     		bx	lr
 6520              		.section	.text.HAL_I2C_DisableListen_IT,"ax",%progbits
 6521              		.align	1
 6522              		.global	HAL_I2C_DisableListen_IT
 6523              		.syntax unified
 6524              		.thumb
 6525              		.thumb_func
 6527              	HAL_I2C_DisableListen_IT:
 6528              		@ args = 0, pretend = 0, frame = 0
 6529              		@ frame_needed = 0, uses_anonymous_args = 0
 6530              		@ link register save eliminated.
 6531 0000 90F83D30 		ldrb	r3, [r0, #61]	@ zero_extendqisi2
 6532 0004 282B     		cmp	r3, #40
 6533 0006 01D0     		beq	.L770
 6534 0008 0220     		movs	r0, #2
 6535 000a 7047     		bx	lr
 6536              	.L770:
 6537 000c 90F83D20 		ldrb	r2, [r0, #61]	@ zero_extendqisi2
 6538 0010 90F83E30 		ldrb	r3, [r0, #62]	@ zero_extendqisi2
 6539 0014 02F00302 		and	r2, r2, #3
 6540 0018 1343     		orrs	r3, r3, r2
 6541 001a 0363     		str	r3, [r0, #48]
 6542 001c 2023     		movs	r3, #32
 6543 001e 80F83D30 		strb	r3, [r0, #61]
 6544 0022 0023     		movs	r3, #0
ARM GAS  /var/folders/kf/d797ysj14bb1pb7szkr3jbx80000gn/T//ccIy82lf.s 			page 114


 6545 0024 80F83E30 		strb	r3, [r0, #62]
 6546 0028 0168     		ldr	r1, [r0]
 6547 002a 0A68     		ldr	r2, [r1]
 6548 002c 22F48062 		bic	r2, r2, #1024
 6549 0030 0A60     		str	r2, [r1]
 6550 0032 0168     		ldr	r1, [r0]
 6551 0034 4A68     		ldr	r2, [r1, #4]
 6552 0036 22F44072 		bic	r2, r2, #768
 6553 003a 4A60     		str	r2, [r1, #4]
 6554 003c 1846     		mov	r0, r3
 6555 003e 7047     		bx	lr
 6557              		.section	.text.HAL_I2C_MasterTxCpltCallback,"ax",%progbits
 6558              		.align	1
 6559              		.weak	HAL_I2C_MasterTxCpltCallback
 6560              		.syntax unified
 6561              		.thumb
 6562              		.thumb_func
 6564              	HAL_I2C_MasterTxCpltCallback:
 6565              		@ args = 0, pretend = 0, frame = 0
 6566              		@ frame_needed = 0, uses_anonymous_args = 0
 6567              		@ link register save eliminated.
 6568 0000 7047     		bx	lr
 6570              		.section	.text.HAL_I2C_MasterRxCpltCallback,"ax",%progbits
 6571              		.align	1
 6572              		.weak	HAL_I2C_MasterRxCpltCallback
 6573              		.syntax unified
 6574              		.thumb
 6575              		.thumb_func
 6577              	HAL_I2C_MasterRxCpltCallback:
 6578              		@ args = 0, pretend = 0, frame = 0
 6579              		@ frame_needed = 0, uses_anonymous_args = 0
 6580              		@ link register save eliminated.
 6581 0000 7047     		bx	lr
 6583              		.section	.text.HAL_I2C_SlaveTxCpltCallback,"ax",%progbits
 6584              		.align	1
 6585              		.weak	HAL_I2C_SlaveTxCpltCallback
 6586              		.syntax unified
 6587              		.thumb
 6588              		.thumb_func
 6590              	HAL_I2C_SlaveTxCpltCallback:
 6591              		@ args = 0, pretend = 0, frame = 0
 6592              		@ frame_needed = 0, uses_anonymous_args = 0
 6593              		@ link register save eliminated.
 6594 0000 7047     		bx	lr
 6596              		.section	.text.I2C_SlaveTransmit_TXE,"ax",%progbits
 6597              		.align	1
 6598              		.syntax unified
 6599              		.thumb
 6600              		.thumb_func
 6602              	I2C_SlaveTransmit_TXE:
 6603              		@ args = 0, pretend = 0, frame = 0
 6604              		@ frame_needed = 0, uses_anonymous_args = 0
 6605 0000 08B5     		push	{r3, lr}
 6606 0002 90F83D30 		ldrb	r3, [r0, #61]	@ zero_extendqisi2
 6607 0006 DAB2     		uxtb	r2, r3
 6608 0008 438D     		ldrh	r3, [r0, #42]
 6609 000a 9BB2     		uxth	r3, r3
ARM GAS  /var/folders/kf/d797ysj14bb1pb7szkr3jbx80000gn/T//ccIy82lf.s 			page 115


 6610 000c 83B1     		cbz	r3, .L774
 6611 000e 416A     		ldr	r1, [r0, #36]
 6612 0010 0368     		ldr	r3, [r0]
 6613 0012 0978     		ldrb	r1, [r1]	@ zero_extendqisi2
 6614 0014 1961     		str	r1, [r3, #16]
 6615 0016 436A     		ldr	r3, [r0, #36]
 6616 0018 0133     		adds	r3, r3, #1
 6617 001a 4362     		str	r3, [r0, #36]
 6618 001c 438D     		ldrh	r3, [r0, #42]
 6619 001e 9BB2     		uxth	r3, r3
 6620 0020 013B     		subs	r3, r3, #1
 6621 0022 9BB2     		uxth	r3, r3
 6622 0024 4385     		strh	r3, [r0, #42]	@ movhi
 6623 0026 438D     		ldrh	r3, [r0, #42]
 6624 0028 9BB2     		uxth	r3, r3
 6625 002a 0BB9     		cbnz	r3, .L774
 6626 002c 292A     		cmp	r2, #41
 6627 002e 00D0     		beq	.L777
 6628              	.L774:
 6629 0030 08BD     		pop	{r3, pc}
 6630              	.L777:
 6631 0032 0268     		ldr	r2, [r0]
 6632 0034 5368     		ldr	r3, [r2, #4]
 6633 0036 23F48063 		bic	r3, r3, #1024
 6634 003a 5360     		str	r3, [r2, #4]
 6635 003c 2123     		movs	r3, #33
 6636 003e 0363     		str	r3, [r0, #48]
 6637 0040 2823     		movs	r3, #40
